
./output/motor.shakti:     file format elf64-littleriscv


Disassembly of section .text.init:

0000000080000000 <_start>:
    80000000:	00000297          	auipc	t0,0x0
    80000004:	0e028293          	addi	t0,t0,224 # 800000e0 <trap_entry>
    80000008:	30529073          	csrw	mtvec,t0
    8000000c:	42ad                	li	t0,11
    8000000e:	3002b073          	csrc	mstatus,t0
    80000012:	6285                	lui	t0,0x1
    80000014:	8882829b          	addiw	t0,t0,-1912 # 888 <_tbss_end+0x888>
    80000018:	3042b073          	csrc	mie,t0
    8000001c:	0c002fb7          	lui	t6,0xc002
    80000020:	000e7e13          	andi	t3,t3,0
    80000024:	8e72                	mv	t3,t3
    80000026:	01cf8023          	sb	t3,0(t6) # c002000 <_free_space+0x400e9d8>
    8000002a:	01cf80a3          	sb	t3,1(t6)
    8000002e:	01cf8123          	sb	t3,2(t6)
    80000032:	01cf81a3          	sb	t3,3(t6)
    80000036:	0c000fb7          	lui	t6,0xc000
    8000003a:	000e7e13          	andi	t3,t3,0
    8000003e:	01cf8023          	sb	t3,0(t6) # c000000 <_free_space+0x400c9d8>
    80000042:	01cf80a3          	sb	t3,1(t6)
    80000046:	01cf8123          	sb	t3,2(t6)
    8000004a:	01cf81a3          	sb	t3,3(t6)
    8000004e:	4081                	li	ra,0
    80000050:	4101                	li	sp,0
    80000052:	4181                	li	gp,0
    80000054:	4201                	li	tp,0
    80000056:	4281                	li	t0,0
    80000058:	4301                	li	t1,0
    8000005a:	4381                	li	t2,0
    8000005c:	4401                	li	s0,0
    8000005e:	4481                	li	s1,0
    80000060:	4501                	li	a0,0
    80000062:	4581                	li	a1,0
    80000064:	4601                	li	a2,0
    80000066:	4681                	li	a3,0
    80000068:	4701                	li	a4,0
    8000006a:	4781                	li	a5,0
    8000006c:	4801                	li	a6,0
    8000006e:	4881                	li	a7,0
    80000070:	4901                	li	s2,0
    80000072:	4981                	li	s3,0
    80000074:	4a01                	li	s4,0
    80000076:	4a81                	li	s5,0
    80000078:	4b01                	li	s6,0
    8000007a:	4b81                	li	s7,0
    8000007c:	4c01                	li	s8,0
    8000007e:	4c81                	li	s9,0
    80000080:	4d01                	li	s10,0
    80000082:	4d81                	li	s11,0
    80000084:	4e01                	li	t3,0
    80000086:	4e81                	li	t4,0
    80000088:	4f01                	li	t5,0
    8000008a:	4f81                	li	t6,0
    8000008c:	00005197          	auipc	gp,0x5
    80000090:	41418193          	addi	gp,gp,1044 # 800054a0 <__global_pointer$>

0000000080000094 <init_bss>:
    80000094:	85018513          	addi	a0,gp,-1968 # 80004cf0 <mcause_trap_table>
    80000098:	0000c597          	auipc	a1,0xc
    8000009c:	53c58593          	addi	a1,a1,1340 # 8000c5d4 <hart0_interrupt_matrix+0x1bc>
    800000a0:	4601                	li	a2,0
    800000a2:	c110                	sw	a2,0(a0)
    800000a4:	00b57463          	bgeu	a0,a1,800000ac <init_sbss>
    800000a8:	0511                	addi	a0,a0,4
    800000aa:	bfe5                	j	800000a2 <init_bss+0xe>

00000000800000ac <init_sbss>:
    800000ac:	83018513          	addi	a0,gp,-2000 # 80004cd0 <uart0_complete>
    800000b0:	84818593          	addi	a1,gp,-1976 # 80004ce8 <uart2_rcv_isr_count>
    800000b4:	4601                	li	a2,0
    800000b6:	c110                	sw	a2,0(a0)
    800000b8:	00b57463          	bgeu	a0,a1,800000c0 <init_sbss+0x14>
    800000bc:	0511                	addi	a0,a0,4
    800000be:	bfe5                	j	800000b6 <init_sbss+0xa>
    800000c0:	08000117          	auipc	sp,0x8000
    800000c4:	b4010113          	addi	sp,sp,-1216 # 87fffc00 <__stack_pointer$>
    800000c8:	0000c217          	auipc	tp,0xc
    800000cc:	54f20213          	addi	tp,tp,1359 # 8000c617 <__bss_end+0x3f>
    800000d0:	fc027213          	andi	tp,tp,-64
    800000d4:	2aa0106f          	j	8000137e <init>
    800000d8:	a001                	j	800000d8 <init_sbss+0x2c>

Disassembly of section .text:

00000000800000e0 <trap_entry>:
    800000e0:	7111                	addi	sp,sp,-256
    800000e2:	0001                	nop
    800000e4:	00000013          	nop
    800000e8:	e406                	sd	ra,8(sp)
    800000ea:	e80a                	sd	sp,16(sp)
    800000ec:	ec0e                	sd	gp,24(sp)
    800000ee:	f012                	sd	tp,32(sp)
    800000f0:	f416                	sd	t0,40(sp)
    800000f2:	f81a                	sd	t1,48(sp)
    800000f4:	fc1e                	sd	t2,56(sp)
    800000f6:	e0a2                	sd	s0,64(sp)
    800000f8:	e4a6                	sd	s1,72(sp)
    800000fa:	e8aa                	sd	a0,80(sp)
    800000fc:	ecae                	sd	a1,88(sp)
    800000fe:	f0b2                	sd	a2,96(sp)
    80000100:	f4b6                	sd	a3,104(sp)
    80000102:	f8ba                	sd	a4,112(sp)
    80000104:	fcbe                	sd	a5,120(sp)
    80000106:	e142                	sd	a6,128(sp)
    80000108:	e546                	sd	a7,136(sp)
    8000010a:	e94a                	sd	s2,144(sp)
    8000010c:	ed4e                	sd	s3,152(sp)
    8000010e:	f152                	sd	s4,160(sp)
    80000110:	f556                	sd	s5,168(sp)
    80000112:	f95a                	sd	s6,176(sp)
    80000114:	fd5e                	sd	s7,184(sp)
    80000116:	e1e2                	sd	s8,192(sp)
    80000118:	e5e6                	sd	s9,200(sp)
    8000011a:	e9ea                	sd	s10,208(sp)
    8000011c:	edee                	sd	s11,216(sp)
    8000011e:	f1f2                	sd	t3,224(sp)
    80000120:	f5f6                	sd	t4,232(sp)
    80000122:	f9fa                	sd	t5,240(sp)
    80000124:	fdfe                	sd	t6,248(sp)
    80000126:	34202573          	csrr	a0,mcause
    8000012a:	341025f3          	csrr	a1,mepc
    8000012e:	860a                	mv	a2,sp
    80000130:	0c6000ef          	jal	800001f6 <handle_trap>
    80000134:	34151073          	csrw	mepc,a0
    80000138:	60a2                	ld	ra,8(sp)
    8000013a:	6142                	ld	sp,16(sp)
    8000013c:	61e2                	ld	gp,24(sp)
    8000013e:	7202                	ld	tp,32(sp)
    80000140:	72a2                	ld	t0,40(sp)
    80000142:	7342                	ld	t1,48(sp)
    80000144:	73e2                	ld	t2,56(sp)
    80000146:	6406                	ld	s0,64(sp)
    80000148:	64a6                	ld	s1,72(sp)
    8000014a:	6546                	ld	a0,80(sp)
    8000014c:	65e6                	ld	a1,88(sp)
    8000014e:	7606                	ld	a2,96(sp)
    80000150:	76a6                	ld	a3,104(sp)
    80000152:	7746                	ld	a4,112(sp)
    80000154:	77e6                	ld	a5,120(sp)
    80000156:	680a                	ld	a6,128(sp)
    80000158:	68aa                	ld	a7,136(sp)
    8000015a:	694a                	ld	s2,144(sp)
    8000015c:	69ea                	ld	s3,152(sp)
    8000015e:	7a0a                	ld	s4,160(sp)
    80000160:	7aaa                	ld	s5,168(sp)
    80000162:	7b4a                	ld	s6,176(sp)
    80000164:	7bea                	ld	s7,184(sp)
    80000166:	6c0e                	ld	s8,192(sp)
    80000168:	6cae                	ld	s9,200(sp)
    8000016a:	6d4e                	ld	s10,208(sp)
    8000016c:	6dee                	ld	s11,216(sp)
    8000016e:	7e0e                	ld	t3,224(sp)
    80000170:	7eae                	ld	t4,232(sp)
    80000172:	7f4e                	ld	t5,240(sp)
    80000174:	7fee                	ld	t6,248(sp)
    80000176:	6111                	addi	sp,sp,256
    80000178:	30200073          	mret
	...

000000008000017e <extract_ie_code>:
    8000017e:	7179                	addi	sp,sp,-48
    80000180:	f406                	sd	ra,40(sp)
    80000182:	f022                	sd	s0,32(sp)
    80000184:	1800                	addi	s0,sp,48
    80000186:	87aa                	mv	a5,a0
    80000188:	fcf42e23          	sw	a5,-36(s0)
    8000018c:	00004517          	auipc	a0,0x4
    80000190:	b1c50513          	addi	a0,a0,-1252 # 80003ca8 <__rodata_start>
    80000194:	13e000ef          	jal	800002d2 <log_trace>
    80000198:	fdc42783          	lw	a5,-36(s0)
    8000019c:	873e                	mv	a4,a5
    8000019e:	800007b7          	lui	a5,0x80000
    800001a2:	fff7c793          	not	a5,a5
    800001a6:	8ff9                	and	a5,a5,a4
    800001a8:	fef42623          	sw	a5,-20(s0)
    800001ac:	fec42783          	lw	a5,-20(s0)
    800001b0:	85be                	mv	a1,a5
    800001b2:	00004517          	auipc	a0,0x4
    800001b6:	b1650513          	addi	a0,a0,-1258 # 80003cc8 <__rodata_start+0x20>
    800001ba:	186000ef          	jal	80000340 <log_debug>
    800001be:	00004517          	auipc	a0,0x4
    800001c2:	b2250513          	addi	a0,a0,-1246 # 80003ce0 <__rodata_start+0x38>
    800001c6:	10c000ef          	jal	800002d2 <log_trace>
    800001ca:	fec42783          	lw	a5,-20(s0)
    800001ce:	853e                	mv	a0,a5
    800001d0:	70a2                	ld	ra,40(sp)
    800001d2:	7402                	ld	s0,32(sp)
    800001d4:	6145                	addi	sp,sp,48
    800001d6:	8082                	ret

00000000800001d8 <default_handler>:
    800001d8:	1101                	addi	sp,sp,-32
    800001da:	ec06                	sd	ra,24(sp)
    800001dc:	e822                	sd	s0,16(sp)
    800001de:	1000                	addi	s0,sp,32
    800001e0:	fea43423          	sd	a0,-24(s0)
    800001e4:	feb43023          	sd	a1,-32(s0)
    800001e8:	00004517          	auipc	a0,0x4
    800001ec:	b1050513          	addi	a0,a0,-1264 # 80003cf8 <__rodata_start+0x50>
    800001f0:	0e2000ef          	jal	800002d2 <log_trace>
    800001f4:	a001                	j	800001f4 <default_handler+0x1c>

00000000800001f6 <handle_trap>:
    800001f6:	7179                	addi	sp,sp,-48
    800001f8:	f406                	sd	ra,40(sp)
    800001fa:	f022                	sd	s0,32(sp)
    800001fc:	1800                	addi	s0,sp,48
    800001fe:	fca43c23          	sd	a0,-40(s0)
    80000202:	fcb43823          	sd	a1,-48(s0)
    80000206:	fe042623          	sw	zero,-20(s0)
    8000020a:	fe042423          	sw	zero,-24(s0)
    8000020e:	00004517          	auipc	a0,0x4
    80000212:	b0a50513          	addi	a0,a0,-1270 # 80003d18 <__rodata_start+0x70>
    80000216:	0bc000ef          	jal	800002d2 <log_trace>
    8000021a:	45a1                	li	a1,8
    8000021c:	00004517          	auipc	a0,0x4
    80000220:	b1450513          	addi	a0,a0,-1260 # 80003d30 <__rodata_start+0x88>
    80000224:	11c000ef          	jal	80000340 <log_debug>
    80000228:	03f00793          	li	a5,63
    8000022c:	fef42423          	sw	a5,-24(s0)
    80000230:	fe842783          	lw	a5,-24(s0)
    80000234:	873e                	mv	a4,a5
    80000236:	4785                	li	a5,1
    80000238:	00e797bb          	sllw	a5,a5,a4
    8000023c:	2781                	sext.w	a5,a5
    8000023e:	873e                	mv	a4,a5
    80000240:	fd843783          	ld	a5,-40(s0)
    80000244:	8ff9                	and	a5,a5,a4
    80000246:	c3a9                	beqz	a5,80000288 <handle_trap+0x92>
    80000248:	fd843783          	ld	a5,-40(s0)
    8000024c:	2781                	sext.w	a5,a5
    8000024e:	853e                	mv	a0,a5
    80000250:	f2fff0ef          	jal	8000017e <extract_ie_code>
    80000254:	87aa                	mv	a5,a0
    80000256:	fef42623          	sw	a5,-20(s0)
    8000025a:	fd043603          	ld	a2,-48(s0)
    8000025e:	fd843583          	ld	a1,-40(s0)
    80000262:	00004517          	auipc	a0,0x4
    80000266:	ae650513          	addi	a0,a0,-1306 # 80003d48 <__rodata_start+0xa0>
    8000026a:	08c000ef          	jal	800002f6 <log_info>
    8000026e:	8d018713          	addi	a4,gp,-1840 # 80004d70 <mcause_interrupt_table>
    80000272:	fec46783          	lwu	a5,-20(s0)
    80000276:	078e                	slli	a5,a5,0x3
    80000278:	97ba                	add	a5,a5,a4
    8000027a:	639c                	ld	a5,0(a5)
    8000027c:	fd043583          	ld	a1,-48(s0)
    80000280:	fd843503          	ld	a0,-40(s0)
    80000284:	9782                	jalr	a5
    80000286:	a80d                	j	800002b8 <handle_trap+0xc2>
    80000288:	fd043603          	ld	a2,-48(s0)
    8000028c:	fd843583          	ld	a1,-40(s0)
    80000290:	00004517          	auipc	a0,0x4
    80000294:	ae050513          	addi	a0,a0,-1312 # 80003d70 <__rodata_start+0xc8>
    80000298:	05e000ef          	jal	800002f6 <log_info>
    8000029c:	00005717          	auipc	a4,0x5
    800002a0:	a5470713          	addi	a4,a4,-1452 # 80004cf0 <mcause_trap_table>
    800002a4:	fd843783          	ld	a5,-40(s0)
    800002a8:	078e                	slli	a5,a5,0x3
    800002aa:	97ba                	add	a5,a5,a4
    800002ac:	639c                	ld	a5,0(a5)
    800002ae:	fd043583          	ld	a1,-48(s0)
    800002b2:	fd843503          	ld	a0,-40(s0)
    800002b6:	9782                	jalr	a5
    800002b8:	00004517          	auipc	a0,0x4
    800002bc:	ae050513          	addi	a0,a0,-1312 # 80003d98 <__rodata_start+0xf0>
    800002c0:	012000ef          	jal	800002d2 <log_trace>
    800002c4:	fd043783          	ld	a5,-48(s0)
    800002c8:	853e                	mv	a0,a5
    800002ca:	70a2                	ld	ra,40(sp)
    800002cc:	7402                	ld	s0,32(sp)
    800002ce:	6145                	addi	sp,sp,48
    800002d0:	8082                	ret

00000000800002d2 <log_trace>:
    800002d2:	7159                	addi	sp,sp,-112
    800002d4:	f422                	sd	s0,40(sp)
    800002d6:	1800                	addi	s0,sp,48
    800002d8:	fca43c23          	sd	a0,-40(s0)
    800002dc:	e40c                	sd	a1,8(s0)
    800002de:	e810                	sd	a2,16(s0)
    800002e0:	ec14                	sd	a3,24(s0)
    800002e2:	f018                	sd	a4,32(s0)
    800002e4:	f41c                	sd	a5,40(s0)
    800002e6:	03043823          	sd	a6,48(s0)
    800002ea:	03143c23          	sd	a7,56(s0)
    800002ee:	0001                	nop
    800002f0:	7422                	ld	s0,40(sp)
    800002f2:	6165                	addi	sp,sp,112
    800002f4:	8082                	ret

00000000800002f6 <log_info>:
    800002f6:	7159                	addi	sp,sp,-112
    800002f8:	f406                	sd	ra,40(sp)
    800002fa:	f022                	sd	s0,32(sp)
    800002fc:	1800                	addi	s0,sp,48
    800002fe:	fca43c23          	sd	a0,-40(s0)
    80000302:	e40c                	sd	a1,8(s0)
    80000304:	e810                	sd	a2,16(s0)
    80000306:	ec14                	sd	a3,24(s0)
    80000308:	f018                	sd	a4,32(s0)
    8000030a:	f41c                	sd	a5,40(s0)
    8000030c:	03043823          	sd	a6,48(s0)
    80000310:	03143c23          	sd	a7,56(s0)
    80000314:	04040793          	addi	a5,s0,64
    80000318:	fcf43823          	sd	a5,-48(s0)
    8000031c:	fd043783          	ld	a5,-48(s0)
    80000320:	fc878793          	addi	a5,a5,-56 # ffffffff7fffffc8 <__stack_pointer$+0xfffffffef80003c8>
    80000324:	fef43423          	sd	a5,-24(s0)
    80000328:	fe843783          	ld	a5,-24(s0)
    8000032c:	85be                	mv	a1,a5
    8000032e:	fd843503          	ld	a0,-40(s0)
    80000332:	1e4000ef          	jal	80000516 <_printf_>
    80000336:	0001                	nop
    80000338:	70a2                	ld	ra,40(sp)
    8000033a:	7402                	ld	s0,32(sp)
    8000033c:	6165                	addi	sp,sp,112
    8000033e:	8082                	ret

0000000080000340 <log_debug>:
    80000340:	7159                	addi	sp,sp,-112
    80000342:	f422                	sd	s0,40(sp)
    80000344:	1800                	addi	s0,sp,48
    80000346:	fca43c23          	sd	a0,-40(s0)
    8000034a:	e40c                	sd	a1,8(s0)
    8000034c:	e810                	sd	a2,16(s0)
    8000034e:	ec14                	sd	a3,24(s0)
    80000350:	f018                	sd	a4,32(s0)
    80000352:	f41c                	sd	a5,40(s0)
    80000354:	03043823          	sd	a6,48(s0)
    80000358:	03143c23          	sd	a7,56(s0)
    8000035c:	0001                	nop
    8000035e:	7422                	ld	s0,40(sp)
    80000360:	6165                	addi	sp,sp,112
    80000362:	8082                	ret

0000000080000364 <log_warn>:
    80000364:	7159                	addi	sp,sp,-112
    80000366:	f406                	sd	ra,40(sp)
    80000368:	f022                	sd	s0,32(sp)
    8000036a:	1800                	addi	s0,sp,48
    8000036c:	fca43c23          	sd	a0,-40(s0)
    80000370:	e40c                	sd	a1,8(s0)
    80000372:	e810                	sd	a2,16(s0)
    80000374:	ec14                	sd	a3,24(s0)
    80000376:	f018                	sd	a4,32(s0)
    80000378:	f41c                	sd	a5,40(s0)
    8000037a:	03043823          	sd	a6,48(s0)
    8000037e:	03143c23          	sd	a7,56(s0)
    80000382:	04040793          	addi	a5,s0,64
    80000386:	fcf43823          	sd	a5,-48(s0)
    8000038a:	fd043783          	ld	a5,-48(s0)
    8000038e:	fc878793          	addi	a5,a5,-56
    80000392:	fef43423          	sd	a5,-24(s0)
    80000396:	fe843783          	ld	a5,-24(s0)
    8000039a:	85be                	mv	a1,a5
    8000039c:	fd843503          	ld	a0,-40(s0)
    800003a0:	176000ef          	jal	80000516 <_printf_>
    800003a4:	0001                	nop
    800003a6:	70a2                	ld	ra,40(sp)
    800003a8:	7402                	ld	s0,32(sp)
    800003aa:	6165                	addi	sp,sp,112
    800003ac:	8082                	ret

00000000800003ae <log_error>:
    800003ae:	7159                	addi	sp,sp,-112
    800003b0:	f406                	sd	ra,40(sp)
    800003b2:	f022                	sd	s0,32(sp)
    800003b4:	1800                	addi	s0,sp,48
    800003b6:	fca43c23          	sd	a0,-40(s0)
    800003ba:	e40c                	sd	a1,8(s0)
    800003bc:	e810                	sd	a2,16(s0)
    800003be:	ec14                	sd	a3,24(s0)
    800003c0:	f018                	sd	a4,32(s0)
    800003c2:	f41c                	sd	a5,40(s0)
    800003c4:	03043823          	sd	a6,48(s0)
    800003c8:	03143c23          	sd	a7,56(s0)
    800003cc:	04040793          	addi	a5,s0,64
    800003d0:	fcf43823          	sd	a5,-48(s0)
    800003d4:	fd043783          	ld	a5,-48(s0)
    800003d8:	fc878793          	addi	a5,a5,-56
    800003dc:	fef43423          	sd	a5,-24(s0)
    800003e0:	fe843783          	ld	a5,-24(s0)
    800003e4:	85be                	mv	a1,a5
    800003e6:	fd843503          	ld	a0,-40(s0)
    800003ea:	12c000ef          	jal	80000516 <_printf_>
    800003ee:	0001                	nop
    800003f0:	70a2                	ld	ra,40(sp)
    800003f2:	7402                	ld	s0,32(sp)
    800003f4:	6165                	addi	sp,sp,112
    800003f6:	8082                	ret

00000000800003f8 <log_fatal>:
    800003f8:	7159                	addi	sp,sp,-112
    800003fa:	f406                	sd	ra,40(sp)
    800003fc:	f022                	sd	s0,32(sp)
    800003fe:	1800                	addi	s0,sp,48
    80000400:	fca43c23          	sd	a0,-40(s0)
    80000404:	e40c                	sd	a1,8(s0)
    80000406:	e810                	sd	a2,16(s0)
    80000408:	ec14                	sd	a3,24(s0)
    8000040a:	f018                	sd	a4,32(s0)
    8000040c:	f41c                	sd	a5,40(s0)
    8000040e:	03043823          	sd	a6,48(s0)
    80000412:	03143c23          	sd	a7,56(s0)
    80000416:	04040793          	addi	a5,s0,64
    8000041a:	fcf43823          	sd	a5,-48(s0)
    8000041e:	fd043783          	ld	a5,-48(s0)
    80000422:	fc878793          	addi	a5,a5,-56
    80000426:	fef43423          	sd	a5,-24(s0)
    8000042a:	fe843783          	ld	a5,-24(s0)
    8000042e:	85be                	mv	a1,a5
    80000430:	fd843503          	ld	a0,-40(s0)
    80000434:	0e2000ef          	jal	80000516 <_printf_>
    80000438:	00004517          	auipc	a0,0x4
    8000043c:	97850513          	addi	a0,a0,-1672 # 80003db0 <__rodata_start+0x108>
    80000440:	eb7ff0ef          	jal	800002f6 <log_info>
    80000444:	a001                	j	80000444 <log_fatal+0x4c>

0000000080000446 <itoa>:
    80000446:	7169                	addi	sp,sp,-304
    80000448:	f606                	sd	ra,296(sp)
    8000044a:	f222                	sd	s0,288(sp)
    8000044c:	1a00                	addi	s0,sp,304
    8000044e:	eca43c23          	sd	a0,-296(s0)
    80000452:	87ae                	mv	a5,a1
    80000454:	ecf42a23          	sw	a5,-300(s0)
    80000458:	fe042623          	sw	zero,-20(s0)
    8000045c:	fe042423          	sw	zero,-24(s0)
    80000460:	ed446783          	lwu	a5,-300(s0)
    80000464:	ed843703          	ld	a4,-296(s0)
    80000468:	02f777b3          	remu	a5,a4,a5
    8000046c:	0007871b          	sext.w	a4,a5
    80000470:	fec42783          	lw	a5,-20(s0)
    80000474:	078a                	slli	a5,a5,0x2
    80000476:	17c1                	addi	a5,a5,-16
    80000478:	97a2                	add	a5,a5,s0
    8000047a:	eee7ac23          	sw	a4,-264(a5)
    8000047e:	ed446783          	lwu	a5,-300(s0)
    80000482:	ed843703          	ld	a4,-296(s0)
    80000486:	02f76063          	bltu	a4,a5,800004a6 <itoa+0x60>
    8000048a:	ed446783          	lwu	a5,-300(s0)
    8000048e:	ed843703          	ld	a4,-296(s0)
    80000492:	02f757b3          	divu	a5,a4,a5
    80000496:	ecf43c23          	sd	a5,-296(s0)
    8000049a:	fec42783          	lw	a5,-20(s0)
    8000049e:	2785                	addiw	a5,a5,1
    800004a0:	fef42623          	sw	a5,-20(s0)
    800004a4:	bf75                	j	80000460 <itoa+0x1a>
    800004a6:	0001                	nop
    800004a8:	fec42783          	lw	a5,-20(s0)
    800004ac:	2785                	addiw	a5,a5,1
    800004ae:	fef42623          	sw	a5,-20(s0)
    800004b2:	a0a1                	j	800004fa <itoa+0xb4>
    800004b4:	fec42783          	lw	a5,-20(s0)
    800004b8:	078a                	slli	a5,a5,0x2
    800004ba:	17c1                	addi	a5,a5,-16
    800004bc:	97a2                	add	a5,a5,s0
    800004be:	ef87a783          	lw	a5,-264(a5)
    800004c2:	873e                	mv	a4,a5
    800004c4:	47a5                	li	a5,9
    800004c6:	00e7f763          	bgeu	a5,a4,800004d4 <itoa+0x8e>
    800004ca:	05700793          	li	a5,87
    800004ce:	fef42423          	sw	a5,-24(s0)
    800004d2:	a029                	j	800004dc <itoa+0x96>
    800004d4:	03000793          	li	a5,48
    800004d8:	fef42423          	sw	a5,-24(s0)
    800004dc:	fec42783          	lw	a5,-20(s0)
    800004e0:	078a                	slli	a5,a5,0x2
    800004e2:	17c1                	addi	a5,a5,-16
    800004e4:	97a2                	add	a5,a5,s0
    800004e6:	ef87a783          	lw	a5,-264(a5)
    800004ea:	fe842703          	lw	a4,-24(s0)
    800004ee:	9fb9                	addw	a5,a5,a4
    800004f0:	2781                	sext.w	a5,a5
    800004f2:	2781                	sext.w	a5,a5
    800004f4:	853e                	mv	a0,a5
    800004f6:	498000ef          	jal	8000098e <putchar>
    800004fa:	fec42783          	lw	a5,-20(s0)
    800004fe:	fff7871b          	addiw	a4,a5,-1
    80000502:	fee42623          	sw	a4,-20(s0)
    80000506:	faf047e3          	bgtz	a5,800004b4 <itoa+0x6e>
    8000050a:	0001                	nop
    8000050c:	0001                	nop
    8000050e:	70b2                	ld	ra,296(sp)
    80000510:	7412                	ld	s0,288(sp)
    80000512:	6155                	addi	sp,sp,304
    80000514:	8082                	ret

0000000080000516 <_printf_>:
    80000516:	7119                	addi	sp,sp,-128
    80000518:	fc86                	sd	ra,120(sp)
    8000051a:	f8a2                	sd	s0,112(sp)
    8000051c:	f4a6                	sd	s1,104(sp)
    8000051e:	f0ca                	sd	s2,96(sp)
    80000520:	0100                	addi	s0,sp,128
    80000522:	f8a43423          	sd	a0,-120(s0)
    80000526:	f8b43023          	sd	a1,-128(s0)
    8000052a:	00000793          	li	a5,0
    8000052e:	fcf42423          	sw	a5,-56(s0)
    80000532:	f8043c23          	sd	zero,-104(s0)
    80000536:	fa043023          	sd	zero,-96(s0)
    8000053a:	fa043423          	sd	zero,-88(s0)
    8000053e:	fa042823          	sw	zero,-80(s0)
    80000542:	fa041a23          	sh	zero,-76(s0)
    80000546:	a819                	j	8000055c <_printf_+0x46>
    80000548:	36048963          	beqz	s1,800008ba <_printf_+0x3a4>
    8000054c:	8526                	mv	a0,s1
    8000054e:	440000ef          	jal	8000098e <putchar>
    80000552:	f8843783          	ld	a5,-120(s0)
    80000556:	0785                	addi	a5,a5,1
    80000558:	f8f43423          	sd	a5,-120(s0)
    8000055c:	f8843783          	ld	a5,-120(s0)
    80000560:	0007c783          	lbu	a5,0(a5)
    80000564:	0007849b          	sext.w	s1,a5
    80000568:	8726                	mv	a4,s1
    8000056a:	02500793          	li	a5,37
    8000056e:	fcf71de3          	bne	a4,a5,80000548 <_printf_+0x32>
    80000572:	f8843783          	ld	a5,-120(s0)
    80000576:	0785                	addi	a5,a5,1
    80000578:	f8f43423          	sd	a5,-120(s0)
    8000057c:	f8843783          	ld	a5,-120(s0)
    80000580:	fcf43023          	sd	a5,-64(s0)
    80000584:	fc042a23          	sw	zero,-44(s0)
    80000588:	fc042623          	sw	zero,-52(s0)
    8000058c:	f8843783          	ld	a5,-120(s0)
    80000590:	00178713          	addi	a4,a5,1
    80000594:	f8e43423          	sd	a4,-120(s0)
    80000598:	0007c783          	lbu	a5,0(a5)
    8000059c:	0007849b          	sext.w	s1,a5
    800005a0:	8726                	mv	a4,s1
    800005a2:	02500793          	li	a5,37
    800005a6:	2ef70363          	beq	a4,a5,8000088c <_printf_+0x376>
    800005aa:	8726                	mv	a4,s1
    800005ac:	02500793          	li	a5,37
    800005b0:	2ef74263          	blt	a4,a5,80000894 <_printf_+0x37e>
    800005b4:	8726                	mv	a4,s1
    800005b6:	07800793          	li	a5,120
    800005ba:	2ce7cd63          	blt	a5,a4,80000894 <_printf_+0x37e>
    800005be:	8726                	mv	a4,s1
    800005c0:	06300793          	li	a5,99
    800005c4:	2cf74863          	blt	a4,a5,80000894 <_printf_+0x37e>
    800005c8:	f9d4869b          	addiw	a3,s1,-99
    800005cc:	0006871b          	sext.w	a4,a3
    800005d0:	47d5                	li	a5,21
    800005d2:	2ce7e163          	bltu	a5,a4,80000894 <_printf_+0x37e>
    800005d6:	02069793          	slli	a5,a3,0x20
    800005da:	9381                	srli	a5,a5,0x20
    800005dc:	00279713          	slli	a4,a5,0x2
    800005e0:	00003797          	auipc	a5,0x3
    800005e4:	7e878793          	addi	a5,a5,2024 # 80003dc8 <__rodata_start+0x120>
    800005e8:	97ba                	add	a5,a5,a4
    800005ea:	439c                	lw	a5,0(a5)
    800005ec:	0007871b          	sext.w	a4,a5
    800005f0:	00003797          	auipc	a5,0x3
    800005f4:	7d878793          	addi	a5,a5,2008 # 80003dc8 <__rodata_start+0x120>
    800005f8:	97ba                	add	a5,a5,a4
    800005fa:	8782                	jr	a5
    800005fc:	fd442783          	lw	a5,-44(s0)
    80000600:	2785                	addiw	a5,a5,1
    80000602:	fcf42a23          	sw	a5,-44(s0)
    80000606:	4785                	li	a5,1
    80000608:	fcf42623          	sw	a5,-52(s0)
    8000060c:	ac69                	j	800008a6 <_printf_+0x390>
    8000060e:	f8043783          	ld	a5,-128(s0)
    80000612:	00878713          	addi	a4,a5,8
    80000616:	f8e43023          	sd	a4,-128(s0)
    8000061a:	439c                	lw	a5,0(a5)
    8000061c:	853e                	mv	a0,a5
    8000061e:	370000ef          	jal	8000098e <putchar>
    80000622:	a451                	j	800008a6 <_printf_+0x390>
    80000624:	f8043783          	ld	a5,-128(s0)
    80000628:	00878713          	addi	a4,a5,8
    8000062c:	f8e43023          	sd	a4,-128(s0)
    80000630:	0007b903          	ld	s2,0(a5)
    80000634:	00091b63          	bnez	s2,8000064a <_printf_+0x134>
    80000638:	00003917          	auipc	s2,0x3
    8000063c:	78890913          	addi	s2,s2,1928 # 80003dc0 <__rodata_start+0x118>
    80000640:	a029                	j	8000064a <_printf_+0x134>
    80000642:	8526                	mv	a0,s1
    80000644:	34a000ef          	jal	8000098e <putchar>
    80000648:	0905                	addi	s2,s2,1
    8000064a:	00094783          	lbu	a5,0(s2)
    8000064e:	0007849b          	sext.w	s1,a5
    80000652:	f8e5                	bnez	s1,80000642 <_printf_+0x12c>
    80000654:	ac89                	j	800008a6 <_printf_+0x390>
    80000656:	47a9                	li	a5,10
    80000658:	faf42e23          	sw	a5,-68(s0)
    8000065c:	fd442783          	lw	a5,-44(s0)
    80000660:	0007871b          	sext.w	a4,a5
    80000664:	4785                	li	a5,1
    80000666:	00e7dc63          	bge	a5,a4,8000067e <_printf_+0x168>
    8000066a:	f8043783          	ld	a5,-128(s0)
    8000066e:	00878713          	addi	a4,a5,8
    80000672:	f8e43023          	sd	a4,-128(s0)
    80000676:	639c                	ld	a5,0(a5)
    80000678:	fcf43c23          	sd	a5,-40(s0)
    8000067c:	a81d                	j	800006b2 <_printf_+0x19c>
    8000067e:	fd442783          	lw	a5,-44(s0)
    80000682:	0007871b          	sext.w	a4,a5
    80000686:	4785                	li	a5,1
    80000688:	00f71c63          	bne	a4,a5,800006a0 <_printf_+0x18a>
    8000068c:	f8043783          	ld	a5,-128(s0)
    80000690:	00878713          	addi	a4,a5,8
    80000694:	f8e43023          	sd	a4,-128(s0)
    80000698:	639c                	ld	a5,0(a5)
    8000069a:	fcf43c23          	sd	a5,-40(s0)
    8000069e:	a811                	j	800006b2 <_printf_+0x19c>
    800006a0:	f8043783          	ld	a5,-128(s0)
    800006a4:	00878713          	addi	a4,a5,8
    800006a8:	f8e43023          	sd	a4,-128(s0)
    800006ac:	439c                	lw	a5,0(a5)
    800006ae:	fcf43c23          	sd	a5,-40(s0)
    800006b2:	fd843783          	ld	a5,-40(s0)
    800006b6:	0007dc63          	bgez	a5,800006ce <_printf_+0x1b8>
    800006ba:	02d00513          	li	a0,45
    800006be:	2d0000ef          	jal	8000098e <putchar>
    800006c2:	fd843783          	ld	a5,-40(s0)
    800006c6:	40f007b3          	neg	a5,a5
    800006ca:	fcf43c23          	sd	a5,-40(s0)
    800006ce:	fbc42783          	lw	a5,-68(s0)
    800006d2:	85be                	mv	a1,a5
    800006d4:	fd843503          	ld	a0,-40(s0)
    800006d8:	d6fff0ef          	jal	80000446 <itoa>
    800006dc:	a2e9                	j	800008a6 <_printf_+0x390>
    800006de:	f8043783          	ld	a5,-128(s0)
    800006e2:	00878713          	addi	a4,a5,8
    800006e6:	f8e43023          	sd	a4,-128(s0)
    800006ea:	639c                	ld	a5,0(a5)
    800006ec:	853e                	mv	a0,a5
    800006ee:	3f8030ef          	jal	80003ae6 <__truncdfsf2>
    800006f2:	87aa                	mv	a5,a0
    800006f4:	fcf42423          	sw	a5,-56(s0)
    800006f8:	f9840793          	addi	a5,s0,-104
    800006fc:	4619                	li	a2,6
    800006fe:	85be                	mv	a1,a5
    80000700:	fc842503          	lw	a0,-56(s0)
    80000704:	6e5000ef          	jal	800015e8 <ftoa>
    80000708:	fc042823          	sw	zero,-48(s0)
    8000070c:	a03d                	j	8000073a <_printf_+0x224>
    8000070e:	fd042783          	lw	a5,-48(s0)
    80000712:	1781                	addi	a5,a5,-32
    80000714:	97a2                	add	a5,a5,s0
    80000716:	fb87c783          	lbu	a5,-72(a5)
    8000071a:	2781                	sext.w	a5,a5
    8000071c:	853e                	mv	a0,a5
    8000071e:	270000ef          	jal	8000098e <putchar>
    80000722:	fd042783          	lw	a5,-48(s0)
    80000726:	0007871b          	sext.w	a4,a5
    8000072a:	47f5                	li	a5,29
    8000072c:	00e7cf63          	blt	a5,a4,8000074a <_printf_+0x234>
    80000730:	fd042783          	lw	a5,-48(s0)
    80000734:	2785                	addiw	a5,a5,1
    80000736:	fcf42823          	sw	a5,-48(s0)
    8000073a:	fd042783          	lw	a5,-48(s0)
    8000073e:	1781                	addi	a5,a5,-32
    80000740:	97a2                	add	a5,a5,s0
    80000742:	fb87c783          	lbu	a5,-72(a5)
    80000746:	f7e1                	bnez	a5,8000070e <_printf_+0x1f8>
    80000748:	aab9                	j	800008a6 <_printf_+0x390>
    8000074a:	0001                	nop
    8000074c:	aaa9                	j	800008a6 <_printf_+0x390>
    8000074e:	47a9                	li	a5,10
    80000750:	faf42e23          	sw	a5,-68(s0)
    80000754:	fd442783          	lw	a5,-44(s0)
    80000758:	0007871b          	sext.w	a4,a5
    8000075c:	4785                	li	a5,1
    8000075e:	00e7dc63          	bge	a5,a4,80000776 <_printf_+0x260>
    80000762:	f8043783          	ld	a5,-128(s0)
    80000766:	00878713          	addi	a4,a5,8
    8000076a:	f8e43023          	sd	a4,-128(s0)
    8000076e:	639c                	ld	a5,0(a5)
    80000770:	fcf43c23          	sd	a5,-40(s0)
    80000774:	a815                	j	800007a8 <_printf_+0x292>
    80000776:	fd442783          	lw	a5,-44(s0)
    8000077a:	2781                	sext.w	a5,a5
    8000077c:	cb99                	beqz	a5,80000792 <_printf_+0x27c>
    8000077e:	f8043783          	ld	a5,-128(s0)
    80000782:	00878713          	addi	a4,a5,8
    80000786:	f8e43023          	sd	a4,-128(s0)
    8000078a:	639c                	ld	a5,0(a5)
    8000078c:	fcf43c23          	sd	a5,-40(s0)
    80000790:	a821                	j	800007a8 <_printf_+0x292>
    80000792:	f8043783          	ld	a5,-128(s0)
    80000796:	00878713          	addi	a4,a5,8
    8000079a:	f8e43023          	sd	a4,-128(s0)
    8000079e:	439c                	lw	a5,0(a5)
    800007a0:	1782                	slli	a5,a5,0x20
    800007a2:	9381                	srli	a5,a5,0x20
    800007a4:	fcf43c23          	sd	a5,-40(s0)
    800007a8:	fbc42783          	lw	a5,-68(s0)
    800007ac:	85be                	mv	a1,a5
    800007ae:	fd843503          	ld	a0,-40(s0)
    800007b2:	c95ff0ef          	jal	80000446 <itoa>
    800007b6:	a8c5                	j	800008a6 <_printf_+0x390>
    800007b8:	47a1                	li	a5,8
    800007ba:	faf42e23          	sw	a5,-68(s0)
    800007be:	fd442783          	lw	a5,-44(s0)
    800007c2:	0007871b          	sext.w	a4,a5
    800007c6:	4785                	li	a5,1
    800007c8:	00e7dc63          	bge	a5,a4,800007e0 <_printf_+0x2ca>
    800007cc:	f8043783          	ld	a5,-128(s0)
    800007d0:	00878713          	addi	a4,a5,8
    800007d4:	f8e43023          	sd	a4,-128(s0)
    800007d8:	639c                	ld	a5,0(a5)
    800007da:	fcf43c23          	sd	a5,-40(s0)
    800007de:	a815                	j	80000812 <_printf_+0x2fc>
    800007e0:	fd442783          	lw	a5,-44(s0)
    800007e4:	2781                	sext.w	a5,a5
    800007e6:	cb99                	beqz	a5,800007fc <_printf_+0x2e6>
    800007e8:	f8043783          	ld	a5,-128(s0)
    800007ec:	00878713          	addi	a4,a5,8
    800007f0:	f8e43023          	sd	a4,-128(s0)
    800007f4:	639c                	ld	a5,0(a5)
    800007f6:	fcf43c23          	sd	a5,-40(s0)
    800007fa:	a821                	j	80000812 <_printf_+0x2fc>
    800007fc:	f8043783          	ld	a5,-128(s0)
    80000800:	00878713          	addi	a4,a5,8
    80000804:	f8e43023          	sd	a4,-128(s0)
    80000808:	439c                	lw	a5,0(a5)
    8000080a:	1782                	slli	a5,a5,0x20
    8000080c:	9381                	srli	a5,a5,0x20
    8000080e:	fcf43c23          	sd	a5,-40(s0)
    80000812:	fbc42783          	lw	a5,-68(s0)
    80000816:	85be                	mv	a1,a5
    80000818:	fd843503          	ld	a0,-40(s0)
    8000081c:	c2bff0ef          	jal	80000446 <itoa>
    80000820:	a059                	j	800008a6 <_printf_+0x390>
    80000822:	47c1                	li	a5,16
    80000824:	faf42e23          	sw	a5,-68(s0)
    80000828:	fd442783          	lw	a5,-44(s0)
    8000082c:	0007871b          	sext.w	a4,a5
    80000830:	4785                	li	a5,1
    80000832:	00e7dc63          	bge	a5,a4,8000084a <_printf_+0x334>
    80000836:	f8043783          	ld	a5,-128(s0)
    8000083a:	00878713          	addi	a4,a5,8
    8000083e:	f8e43023          	sd	a4,-128(s0)
    80000842:	639c                	ld	a5,0(a5)
    80000844:	fcf43c23          	sd	a5,-40(s0)
    80000848:	a815                	j	8000087c <_printf_+0x366>
    8000084a:	fd442783          	lw	a5,-44(s0)
    8000084e:	2781                	sext.w	a5,a5
    80000850:	cb99                	beqz	a5,80000866 <_printf_+0x350>
    80000852:	f8043783          	ld	a5,-128(s0)
    80000856:	00878713          	addi	a4,a5,8
    8000085a:	f8e43023          	sd	a4,-128(s0)
    8000085e:	639c                	ld	a5,0(a5)
    80000860:	fcf43c23          	sd	a5,-40(s0)
    80000864:	a821                	j	8000087c <_printf_+0x366>
    80000866:	f8043783          	ld	a5,-128(s0)
    8000086a:	00878713          	addi	a4,a5,8
    8000086e:	f8e43023          	sd	a4,-128(s0)
    80000872:	439c                	lw	a5,0(a5)
    80000874:	1782                	slli	a5,a5,0x20
    80000876:	9381                	srli	a5,a5,0x20
    80000878:	fcf43c23          	sd	a5,-40(s0)
    8000087c:	fbc42783          	lw	a5,-68(s0)
    80000880:	85be                	mv	a1,a5
    80000882:	fd843503          	ld	a0,-40(s0)
    80000886:	bc1ff0ef          	jal	80000446 <itoa>
    8000088a:	a831                	j	800008a6 <_printf_+0x390>
    8000088c:	8526                	mv	a0,s1
    8000088e:	100000ef          	jal	8000098e <putchar>
    80000892:	a811                	j	800008a6 <_printf_+0x390>
    80000894:	02500513          	li	a0,37
    80000898:	0f6000ef          	jal	8000098e <putchar>
    8000089c:	fc043783          	ld	a5,-64(s0)
    800008a0:	f8f43423          	sd	a5,-120(s0)
    800008a4:	0001                	nop
    800008a6:	fcc42783          	lw	a5,-52(s0)
    800008aa:	2781                	sext.w	a5,a5
    800008ac:	c789                	beqz	a5,800008b6 <_printf_+0x3a0>
    800008ae:	fc042623          	sw	zero,-52(s0)
    800008b2:	0001                	nop
    800008b4:	b9e1                	j	8000058c <_printf_+0x76>
    800008b6:	0001                	nop
    800008b8:	b155                	j	8000055c <_printf_+0x46>
    800008ba:	0001                	nop
    800008bc:	70e6                	ld	ra,120(sp)
    800008be:	7446                	ld	s0,112(sp)
    800008c0:	74a6                	ld	s1,104(sp)
    800008c2:	7906                	ld	s2,96(sp)
    800008c4:	6109                	addi	sp,sp,128
    800008c6:	8082                	ret

00000000800008c8 <printf>:
    800008c8:	7159                	addi	sp,sp,-112
    800008ca:	f406                	sd	ra,40(sp)
    800008cc:	f022                	sd	s0,32(sp)
    800008ce:	1800                	addi	s0,sp,48
    800008d0:	fca43c23          	sd	a0,-40(s0)
    800008d4:	e40c                	sd	a1,8(s0)
    800008d6:	e810                	sd	a2,16(s0)
    800008d8:	ec14                	sd	a3,24(s0)
    800008da:	f018                	sd	a4,32(s0)
    800008dc:	f41c                	sd	a5,40(s0)
    800008de:	03043823          	sd	a6,48(s0)
    800008e2:	03143c23          	sd	a7,56(s0)
    800008e6:	04040793          	addi	a5,s0,64
    800008ea:	fcf43823          	sd	a5,-48(s0)
    800008ee:	fd043783          	ld	a5,-48(s0)
    800008f2:	fc878793          	addi	a5,a5,-56
    800008f6:	fef43423          	sd	a5,-24(s0)
    800008fa:	fe843783          	ld	a5,-24(s0)
    800008fe:	85be                	mv	a1,a5
    80000900:	fd843503          	ld	a0,-40(s0)
    80000904:	c13ff0ef          	jal	80000516 <_printf_>
    80000908:	4781                	li	a5,0
    8000090a:	853e                	mv	a0,a5
    8000090c:	70a2                	ld	ra,40(sp)
    8000090e:	7402                	ld	s0,32(sp)
    80000910:	6165                	addi	sp,sp,112
    80000912:	8082                	ret

0000000080000914 <uart_init>:
    80000914:	1101                	addi	sp,sp,-32
    80000916:	ec22                	sd	s0,24(sp)
    80000918:	1000                	addi	s0,sp,32
    8000091a:	fe042623          	sw	zero,-20(s0)
    8000091e:	a035                	j	8000094a <uart_init+0x36>
    80000920:	fec42783          	lw	a5,-20(s0)
    80000924:	1137879b          	addiw	a5,a5,275
    80000928:	2781                	sext.w	a5,a5
    8000092a:	0087979b          	slliw	a5,a5,0x8
    8000092e:	2781                	sext.w	a5,a5
    80000930:	86be                	mv	a3,a5
    80000932:	95018713          	addi	a4,gp,-1712 # 80004df0 <uart_instance>
    80000936:	fec42783          	lw	a5,-20(s0)
    8000093a:	078e                	slli	a5,a5,0x3
    8000093c:	97ba                	add	a5,a5,a4
    8000093e:	e394                	sd	a3,0(a5)
    80000940:	fec42783          	lw	a5,-20(s0)
    80000944:	2785                	addiw	a5,a5,1
    80000946:	fef42623          	sw	a5,-20(s0)
    8000094a:	fec42783          	lw	a5,-20(s0)
    8000094e:	0007871b          	sext.w	a4,a5
    80000952:	4789                	li	a5,2
    80000954:	fce7d6e3          	bge	a5,a4,80000920 <uart_init+0xc>
    80000958:	0001                	nop
    8000095a:	0001                	nop
    8000095c:	6462                	ld	s0,24(sp)
    8000095e:	6105                	addi	sp,sp,32
    80000960:	8082                	ret

0000000080000962 <getchar>:
    80000962:	1141                	addi	sp,sp,-16
    80000964:	e422                	sd	s0,8(sp)
    80000966:	0800                	addi	s0,sp,16
    80000968:	0001                	nop
    8000096a:	95018793          	addi	a5,gp,-1712 # 80004df0 <uart_instance>
    8000096e:	639c                	ld	a5,0(a5)
    80000970:	00c7c783          	lbu	a5,12(a5)
    80000974:	2781                	sext.w	a5,a5
    80000976:	8b91                	andi	a5,a5,4
    80000978:	2781                	sext.w	a5,a5
    8000097a:	dbe5                	beqz	a5,8000096a <getchar+0x8>
    8000097c:	95018793          	addi	a5,gp,-1712 # 80004df0 <uart_instance>
    80000980:	639c                	ld	a5,0(a5)
    80000982:	479c                	lw	a5,8(a5)
    80000984:	2781                	sext.w	a5,a5
    80000986:	853e                	mv	a0,a5
    80000988:	6422                	ld	s0,8(sp)
    8000098a:	0141                	addi	sp,sp,16
    8000098c:	8082                	ret

000000008000098e <putchar>:
    8000098e:	1101                	addi	sp,sp,-32
    80000990:	ec22                	sd	s0,24(sp)
    80000992:	1000                	addi	s0,sp,32
    80000994:	87aa                	mv	a5,a0
    80000996:	fef42623          	sw	a5,-20(s0)
    8000099a:	0001                	nop
    8000099c:	95018793          	addi	a5,gp,-1712 # 80004df0 <uart_instance>
    800009a0:	639c                	ld	a5,0(a5)
    800009a2:	00c7c783          	lbu	a5,12(a5)
    800009a6:	2781                	sext.w	a5,a5
    800009a8:	8b89                	andi	a5,a5,2
    800009aa:	2781                	sext.w	a5,a5
    800009ac:	fbe5                	bnez	a5,8000099c <putchar+0xe>
    800009ae:	95018793          	addi	a5,gp,-1712 # 80004df0 <uart_instance>
    800009b2:	639c                	ld	a5,0(a5)
    800009b4:	fec42703          	lw	a4,-20(s0)
    800009b8:	c3d8                	sw	a4,4(a5)
    800009ba:	4781                	li	a5,0
    800009bc:	853e                	mv	a0,a5
    800009be:	6462                	ld	s0,24(sp)
    800009c0:	6105                	addi	sp,sp,32
    800009c2:	8082                	ret

00000000800009c4 <set_baud_rate>:
    800009c4:	7179                	addi	sp,sp,-48
    800009c6:	f422                	sd	s0,40(sp)
    800009c8:	1800                	addi	s0,sp,48
    800009ca:	fca43c23          	sd	a0,-40(s0)
    800009ce:	87ae                	mv	a5,a1
    800009d0:	fcf42a23          	sw	a5,-44(s0)
    800009d4:	fe042623          	sw	zero,-20(s0)
    800009d8:	fd442783          	lw	a5,-44(s0)
    800009dc:	0047979b          	slliw	a5,a5,0x4
    800009e0:	2781                	sext.w	a5,a5
    800009e2:	02faf737          	lui	a4,0x2faf
    800009e6:	0807071b          	addiw	a4,a4,128 # 2faf080 <_tbss_end+0x2faf080>
    800009ea:	02f757bb          	divuw	a5,a4,a5
    800009ee:	fef42623          	sw	a5,-20(s0)
    800009f2:	fec42783          	lw	a5,-20(s0)
    800009f6:	03079713          	slli	a4,a5,0x30
    800009fa:	9341                	srli	a4,a4,0x30
    800009fc:	fd843783          	ld	a5,-40(s0)
    80000a00:	00e79023          	sh	a4,0(a5)
    80000a04:	0001                	nop
    80000a06:	7422                	ld	s0,40(sp)
    80000a08:	6145                	addi	sp,sp,48
    80000a0a:	8082                	ret

0000000080000a0c <enable_uart_interrupts>:
    80000a0c:	1101                	addi	sp,sp,-32
    80000a0e:	ec22                	sd	s0,24(sp)
    80000a10:	1000                	addi	s0,sp,32
    80000a12:	fea43423          	sd	a0,-24(s0)
    80000a16:	87ae                	mv	a5,a1
    80000a18:	fef403a3          	sb	a5,-25(s0)
    80000a1c:	fe843783          	ld	a5,-24(s0)
    80000a20:	fe744703          	lbu	a4,-25(s0)
    80000a24:	00e78c23          	sb	a4,24(a5)
    80000a28:	0001                	nop
    80000a2a:	6462                	ld	s0,24(sp)
    80000a2c:	6105                	addi	sp,sp,32
    80000a2e:	8082                	ret

0000000080000a30 <set_uart_rx_threshold>:
    80000a30:	1101                	addi	sp,sp,-32
    80000a32:	ec22                	sd	s0,24(sp)
    80000a34:	1000                	addi	s0,sp,32
    80000a36:	fea43423          	sd	a0,-24(s0)
    80000a3a:	87ae                	mv	a5,a1
    80000a3c:	fef403a3          	sb	a5,-25(s0)
    80000a40:	fe843783          	ld	a5,-24(s0)
    80000a44:	fe744703          	lbu	a4,-25(s0)
    80000a48:	02e78023          	sb	a4,32(a5)
    80000a4c:	0001                	nop
    80000a4e:	6462                	ld	s0,24(sp)
    80000a50:	6105                	addi	sp,sp,32
    80000a52:	8082                	ret

0000000080000a54 <write_uart_character>:
    80000a54:	1101                	addi	sp,sp,-32
    80000a56:	ec22                	sd	s0,24(sp)
    80000a58:	1000                	addi	s0,sp,32
    80000a5a:	fea43423          	sd	a0,-24(s0)
    80000a5e:	87ae                	mv	a5,a1
    80000a60:	fef403a3          	sb	a5,-25(s0)
    80000a64:	0001                	nop
    80000a66:	fe843783          	ld	a5,-24(s0)
    80000a6a:	00c7c783          	lbu	a5,12(a5)
    80000a6e:	2781                	sext.w	a5,a5
    80000a70:	8b89                	andi	a5,a5,2
    80000a72:	2781                	sext.w	a5,a5
    80000a74:	fbed                	bnez	a5,80000a66 <write_uart_character+0x12>
    80000a76:	fe744783          	lbu	a5,-25(s0)
    80000a7a:	0007871b          	sext.w	a4,a5
    80000a7e:	fe843783          	ld	a5,-24(s0)
    80000a82:	c3d8                	sw	a4,4(a5)
    80000a84:	4781                	li	a5,0
    80000a86:	853e                	mv	a0,a5
    80000a88:	6462                	ld	s0,24(sp)
    80000a8a:	6105                	addi	sp,sp,32
    80000a8c:	8082                	ret

0000000080000a8e <write_uart_string>:
    80000a8e:	7179                	addi	sp,sp,-48
    80000a90:	f406                	sd	ra,40(sp)
    80000a92:	f022                	sd	s0,32(sp)
    80000a94:	1800                	addi	s0,sp,48
    80000a96:	fca43c23          	sd	a0,-40(s0)
    80000a9a:	fcb43823          	sd	a1,-48(s0)
    80000a9e:	fe042623          	sw	zero,-20(s0)
    80000aa2:	fec42783          	lw	a5,-20(s0)
    80000aa6:	0017871b          	addiw	a4,a5,1
    80000aaa:	fee42623          	sw	a4,-20(s0)
    80000aae:	1782                	slli	a5,a5,0x20
    80000ab0:	9381                	srli	a5,a5,0x20
    80000ab2:	fd043703          	ld	a4,-48(s0)
    80000ab6:	97ba                	add	a5,a5,a4
    80000ab8:	0007c783          	lbu	a5,0(a5)
    80000abc:	fef405a3          	sb	a5,-21(s0)
    80000ac0:	feb44783          	lbu	a5,-21(s0)
    80000ac4:	85be                	mv	a1,a5
    80000ac6:	fd843503          	ld	a0,-40(s0)
    80000aca:	f8bff0ef          	jal	80000a54 <write_uart_character>
    80000ace:	feb44783          	lbu	a5,-21(s0)
    80000ad2:	0ff7f793          	zext.b	a5,a5
    80000ad6:	f7f1                	bnez	a5,80000aa2 <write_uart_string+0x14>
    80000ad8:	4781                	li	a5,0
    80000ada:	853e                	mv	a0,a5
    80000adc:	70a2                	ld	ra,40(sp)
    80000ade:	7402                	ld	s0,32(sp)
    80000ae0:	6145                	addi	sp,sp,48
    80000ae2:	8082                	ret

0000000080000ae4 <read_uart_character>:
    80000ae4:	7179                	addi	sp,sp,-48
    80000ae6:	f422                	sd	s0,40(sp)
    80000ae8:	1800                	addi	s0,sp,48
    80000aea:	fca43c23          	sd	a0,-40(s0)
    80000aee:	fcb43823          	sd	a1,-48(s0)
    80000af2:	fe0407a3          	sb	zero,-17(s0)
    80000af6:	0001                	nop
    80000af8:	fd843783          	ld	a5,-40(s0)
    80000afc:	00c7c783          	lbu	a5,12(a5)
    80000b00:	2781                	sext.w	a5,a5
    80000b02:	8b91                	andi	a5,a5,4
    80000b04:	2781                	sext.w	a5,a5
    80000b06:	dbed                	beqz	a5,80000af8 <read_uart_character+0x14>
    80000b08:	fd843783          	ld	a5,-40(s0)
    80000b0c:	479c                	lw	a5,8(a5)
    80000b0e:	fef407a3          	sb	a5,-17(s0)
    80000b12:	fd043783          	ld	a5,-48(s0)
    80000b16:	fef44703          	lbu	a4,-17(s0)
    80000b1a:	00e78023          	sb	a4,0(a5)
    80000b1e:	4785                	li	a5,1
    80000b20:	853e                	mv	a0,a5
    80000b22:	7422                	ld	s0,40(sp)
    80000b24:	6145                	addi	sp,sp,48
    80000b26:	8082                	ret

0000000080000b28 <read_uart_string>:
    80000b28:	7179                	addi	sp,sp,-48
    80000b2a:	f406                	sd	ra,40(sp)
    80000b2c:	f022                	sd	s0,32(sp)
    80000b2e:	1800                	addi	s0,sp,48
    80000b30:	fca43c23          	sd	a0,-40(s0)
    80000b34:	fcb43823          	sd	a1,-48(s0)
    80000b38:	fe042623          	sw	zero,-20(s0)
    80000b3c:	fe0405a3          	sb	zero,-21(s0)
    80000b40:	0001                	nop
    80000b42:	fd843783          	ld	a5,-40(s0)
    80000b46:	00c7c783          	lbu	a5,12(a5)
    80000b4a:	2781                	sext.w	a5,a5
    80000b4c:	8b91                	andi	a5,a5,4
    80000b4e:	2781                	sext.w	a5,a5
    80000b50:	dbed                	beqz	a5,80000b42 <read_uart_string+0x1a>
    80000b52:	fd843783          	ld	a5,-40(s0)
    80000b56:	479c                	lw	a5,8(a5)
    80000b58:	fef405a3          	sb	a5,-21(s0)
    80000b5c:	fec42783          	lw	a5,-20(s0)
    80000b60:	0017871b          	addiw	a4,a5,1
    80000b64:	fee42623          	sw	a4,-20(s0)
    80000b68:	1782                	slli	a5,a5,0x20
    80000b6a:	9381                	srli	a5,a5,0x20
    80000b6c:	fd043703          	ld	a4,-48(s0)
    80000b70:	97ba                	add	a5,a5,a4
    80000b72:	feb44703          	lbu	a4,-21(s0)
    80000b76:	00e78023          	sb	a4,0(a5)
    80000b7a:	feb44783          	lbu	a5,-21(s0)
    80000b7e:	2781                	sext.w	a5,a5
    80000b80:	853e                	mv	a0,a5
    80000b82:	e0dff0ef          	jal	8000098e <putchar>
    80000b86:	feb44783          	lbu	a5,-21(s0)
    80000b8a:	0ff7f713          	zext.b	a4,a5
    80000b8e:	47b5                	li	a5,13
    80000b90:	faf718e3          	bne	a4,a5,80000b40 <read_uart_string+0x18>
    80000b94:	fec42783          	lw	a5,-20(s0)
    80000b98:	0017871b          	addiw	a4,a5,1
    80000b9c:	fee42623          	sw	a4,-20(s0)
    80000ba0:	1782                	slli	a5,a5,0x20
    80000ba2:	9381                	srli	a5,a5,0x20
    80000ba4:	fd043703          	ld	a4,-48(s0)
    80000ba8:	97ba                	add	a5,a5,a4
    80000baa:	4729                	li	a4,10
    80000bac:	00e78023          	sb	a4,0(a5)
    80000bb0:	fec42783          	lw	a5,-20(s0)
    80000bb4:	0017871b          	addiw	a4,a5,1
    80000bb8:	fee42623          	sw	a4,-20(s0)
    80000bbc:	1782                	slli	a5,a5,0x20
    80000bbe:	9381                	srli	a5,a5,0x20
    80000bc0:	fd043703          	ld	a4,-48(s0)
    80000bc4:	97ba                	add	a5,a5,a4
    80000bc6:	00078023          	sb	zero,0(a5)
    80000bca:	fec42783          	lw	a5,-20(s0)
    80000bce:	0ff7f793          	zext.b	a5,a5
    80000bd2:	853e                	mv	a0,a5
    80000bd4:	70a2                	ld	ra,40(sp)
    80000bd6:	7402                	ld	s0,32(sp)
    80000bd8:	6145                	addi	sp,sp,48
    80000bda:	8082                	ret

0000000080000bdc <flush_uart>:
    80000bdc:	7179                	addi	sp,sp,-48
    80000bde:	f422                	sd	s0,40(sp)
    80000be0:	1800                	addi	s0,sp,48
    80000be2:	fca43c23          	sd	a0,-40(s0)
    80000be6:	a031                	j	80000bf2 <flush_uart+0x16>
    80000be8:	fd843783          	ld	a5,-40(s0)
    80000bec:	479c                	lw	a5,8(a5)
    80000bee:	fef407a3          	sb	a5,-17(s0)
    80000bf2:	fd843783          	ld	a5,-40(s0)
    80000bf6:	00c7c783          	lbu	a5,12(a5)
    80000bfa:	2781                	sext.w	a5,a5
    80000bfc:	8b91                	andi	a5,a5,4
    80000bfe:	2781                	sext.w	a5,a5
    80000c00:	f7e5                	bnez	a5,80000be8 <flush_uart+0xc>
    80000c02:	0001                	nop
    80000c04:	0001                	nop
    80000c06:	7422                	ld	s0,40(sp)
    80000c08:	6145                	addi	sp,sp,48
    80000c0a:	8082                	ret

0000000080000c0c <uart0_isr>:
    80000c0c:	1101                	addi	sp,sp,-32
    80000c0e:	ec06                	sd	ra,24(sp)
    80000c10:	e822                	sd	s0,16(sp)
    80000c12:	1000                	addi	s0,sp,32
    80000c14:	fe042623          	sw	zero,-20(s0)
    80000c18:	95018793          	addi	a5,gp,-1712 # 80004df0 <uart_instance>
    80000c1c:	639c                	ld	a5,0(a5)
    80000c1e:	00c7c783          	lbu	a5,12(a5)
    80000c22:	2781                	sext.w	a5,a5
    80000c24:	1007f793          	andi	a5,a5,256
    80000c28:	2781                	sext.w	a5,a5
    80000c2a:	c7ad                	beqz	a5,80000c94 <uart0_isr+0x88>
    80000c2c:	a891                	j	80000c80 <uart0_isr+0x74>
    80000c2e:	95018793          	addi	a5,gp,-1712 # 80004df0 <uart_instance>
    80000c32:	639c                	ld	a5,0(a5)
    80000c34:	479c                	lw	a5,8(a5)
    80000c36:	fef42623          	sw	a5,-20(s0)
    80000c3a:	83818793          	addi	a5,gp,-1992 # 80004cd8 <uart0_rcv_isr_count>
    80000c3e:	439c                	lw	a5,0(a5)
    80000c40:	2781                	sext.w	a5,a5
    80000c42:	0017871b          	addiw	a4,a5,1
    80000c46:	0007069b          	sext.w	a3,a4
    80000c4a:	83818713          	addi	a4,gp,-1992 # 80004cd8 <uart0_rcv_isr_count>
    80000c4e:	c314                	sw	a3,0(a4)
    80000c50:	fec42703          	lw	a4,-20(s0)
    80000c54:	0ff77713          	zext.b	a4,a4
    80000c58:	00004697          	auipc	a3,0x4
    80000c5c:	1b068693          	addi	a3,a3,432 # 80004e08 <u0_rcv_char>
    80000c60:	1782                	slli	a5,a5,0x20
    80000c62:	9381                	srli	a5,a5,0x20
    80000c64:	97b6                	add	a5,a5,a3
    80000c66:	00e78023          	sb	a4,0(a5)
    80000c6a:	95018793          	addi	a5,gp,-1712 # 80004df0 <uart_instance>
    80000c6e:	639c                	ld	a5,0(a5)
    80000c70:	fec42703          	lw	a4,-20(s0)
    80000c74:	0ff77713          	zext.b	a4,a4
    80000c78:	85ba                	mv	a1,a4
    80000c7a:	853e                	mv	a0,a5
    80000c7c:	dd9ff0ef          	jal	80000a54 <write_uart_character>
    80000c80:	95018793          	addi	a5,gp,-1712 # 80004df0 <uart_instance>
    80000c84:	639c                	ld	a5,0(a5)
    80000c86:	00c7c783          	lbu	a5,12(a5)
    80000c8a:	2781                	sext.w	a5,a5
    80000c8c:	8b91                	andi	a5,a5,4
    80000c8e:	2781                	sext.w	a5,a5
    80000c90:	ffd9                	bnez	a5,80000c2e <uart0_isr+0x22>
    80000c92:	a235                	j	80000dbe <uart0_isr+0x1b2>
    80000c94:	95018793          	addi	a5,gp,-1712 # 80004df0 <uart_instance>
    80000c98:	639c                	ld	a5,0(a5)
    80000c9a:	00c7c783          	lbu	a5,12(a5)
    80000c9e:	2781                	sext.w	a5,a5
    80000ca0:	8ba1                	andi	a5,a5,8
    80000ca2:	2781                	sext.w	a5,a5
    80000ca4:	cbdd                	beqz	a5,80000d5a <uart0_isr+0x14e>
    80000ca6:	45c1                	li	a1,16
    80000ca8:	000407b7          	lui	a5,0x40
    80000cac:	10078513          	addi	a0,a5,256 # 40100 <_tbss_end+0x40100>
    80000cb0:	379000ef          	jal	80001828 <write_word>
    80000cb4:	000407b7          	lui	a5,0x40
    80000cb8:	10878513          	addi	a0,a5,264 # 40108 <_tbss_end+0x40108>
    80000cbc:	335000ef          	jal	800017f0 <read_word>
    80000cc0:	87aa                	mv	a5,a0
    80000cc2:	0107e793          	ori	a5,a5,16
    80000cc6:	85be                	mv	a1,a5
    80000cc8:	000407b7          	lui	a5,0x40
    80000ccc:	10878513          	addi	a0,a5,264 # 40108 <_tbss_end+0x40108>
    80000cd0:	359000ef          	jal	80001828 <write_word>
    80000cd4:	a891                	j	80000d28 <uart0_isr+0x11c>
    80000cd6:	95018793          	addi	a5,gp,-1712 # 80004df0 <uart_instance>
    80000cda:	639c                	ld	a5,0(a5)
    80000cdc:	479c                	lw	a5,8(a5)
    80000cde:	fef42623          	sw	a5,-20(s0)
    80000ce2:	83818793          	addi	a5,gp,-1992 # 80004cd8 <uart0_rcv_isr_count>
    80000ce6:	439c                	lw	a5,0(a5)
    80000ce8:	2781                	sext.w	a5,a5
    80000cea:	0017871b          	addiw	a4,a5,1
    80000cee:	0007069b          	sext.w	a3,a4
    80000cf2:	83818713          	addi	a4,gp,-1992 # 80004cd8 <uart0_rcv_isr_count>
    80000cf6:	c314                	sw	a3,0(a4)
    80000cf8:	fec42703          	lw	a4,-20(s0)
    80000cfc:	0ff77713          	zext.b	a4,a4
    80000d00:	00004697          	auipc	a3,0x4
    80000d04:	10868693          	addi	a3,a3,264 # 80004e08 <u0_rcv_char>
    80000d08:	1782                	slli	a5,a5,0x20
    80000d0a:	9381                	srli	a5,a5,0x20
    80000d0c:	97b6                	add	a5,a5,a3
    80000d0e:	00e78023          	sb	a4,0(a5)
    80000d12:	95018793          	addi	a5,gp,-1712 # 80004df0 <uart_instance>
    80000d16:	639c                	ld	a5,0(a5)
    80000d18:	fec42703          	lw	a4,-20(s0)
    80000d1c:	0ff77713          	zext.b	a4,a4
    80000d20:	85ba                	mv	a1,a4
    80000d22:	853e                	mv	a0,a5
    80000d24:	d31ff0ef          	jal	80000a54 <write_uart_character>
    80000d28:	95018793          	addi	a5,gp,-1712 # 80004df0 <uart_instance>
    80000d2c:	639c                	ld	a5,0(a5)
    80000d2e:	00c7c783          	lbu	a5,12(a5)
    80000d32:	2781                	sext.w	a5,a5
    80000d34:	8b91                	andi	a5,a5,4
    80000d36:	2781                	sext.w	a5,a5
    80000d38:	ffd9                	bnez	a5,80000cd6 <uart0_isr+0xca>
    80000d3a:	000407b7          	lui	a5,0x40
    80000d3e:	10878513          	addi	a0,a5,264 # 40108 <_tbss_end+0x40108>
    80000d42:	2af000ef          	jal	800017f0 <read_word>
    80000d46:	87aa                	mv	a5,a0
    80000d48:	9bbd                	andi	a5,a5,-17
    80000d4a:	85be                	mv	a1,a5
    80000d4c:	000407b7          	lui	a5,0x40
    80000d50:	10878513          	addi	a0,a5,264 # 40108 <_tbss_end+0x40108>
    80000d54:	2d5000ef          	jal	80001828 <write_word>
    80000d58:	a09d                	j	80000dbe <uart0_isr+0x1b2>
    80000d5a:	95018793          	addi	a5,gp,-1712 # 80004df0 <uart_instance>
    80000d5e:	639c                	ld	a5,0(a5)
    80000d60:	00c7c783          	lbu	a5,12(a5)
    80000d64:	2781                	sext.w	a5,a5
    80000d66:	8b91                	andi	a5,a5,4
    80000d68:	2781                	sext.w	a5,a5
    80000d6a:	cbb1                	beqz	a5,80000dbe <uart0_isr+0x1b2>
    80000d6c:	95018793          	addi	a5,gp,-1712 # 80004df0 <uart_instance>
    80000d70:	639c                	ld	a5,0(a5)
    80000d72:	479c                	lw	a5,8(a5)
    80000d74:	fef42623          	sw	a5,-20(s0)
    80000d78:	83818793          	addi	a5,gp,-1992 # 80004cd8 <uart0_rcv_isr_count>
    80000d7c:	439c                	lw	a5,0(a5)
    80000d7e:	2781                	sext.w	a5,a5
    80000d80:	0017871b          	addiw	a4,a5,1
    80000d84:	0007069b          	sext.w	a3,a4
    80000d88:	83818713          	addi	a4,gp,-1992 # 80004cd8 <uart0_rcv_isr_count>
    80000d8c:	c314                	sw	a3,0(a4)
    80000d8e:	fec42703          	lw	a4,-20(s0)
    80000d92:	0ff77713          	zext.b	a4,a4
    80000d96:	00004697          	auipc	a3,0x4
    80000d9a:	07268693          	addi	a3,a3,114 # 80004e08 <u0_rcv_char>
    80000d9e:	1782                	slli	a5,a5,0x20
    80000da0:	9381                	srli	a5,a5,0x20
    80000da2:	97b6                	add	a5,a5,a3
    80000da4:	00e78023          	sb	a4,0(a5)
    80000da8:	95018793          	addi	a5,gp,-1712 # 80004df0 <uart_instance>
    80000dac:	639c                	ld	a5,0(a5)
    80000dae:	fec42703          	lw	a4,-20(s0)
    80000db2:	0ff77713          	zext.b	a4,a4
    80000db6:	85ba                	mv	a1,a4
    80000db8:	853e                	mv	a0,a5
    80000dba:	c9bff0ef          	jal	80000a54 <write_uart_character>
    80000dbe:	4781                	li	a5,0
    80000dc0:	853e                	mv	a0,a5
    80000dc2:	60e2                	ld	ra,24(sp)
    80000dc4:	6442                	ld	s0,16(sp)
    80000dc6:	6105                	addi	sp,sp,32
    80000dc8:	8082                	ret

0000000080000dca <uart1_isr>:
    80000dca:	1101                	addi	sp,sp,-32
    80000dcc:	ec06                	sd	ra,24(sp)
    80000dce:	e822                	sd	s0,16(sp)
    80000dd0:	1000                	addi	s0,sp,32
    80000dd2:	fe042623          	sw	zero,-20(s0)
    80000dd6:	95018793          	addi	a5,gp,-1712 # 80004df0 <uart_instance>
    80000dda:	679c                	ld	a5,8(a5)
    80000ddc:	00c7c783          	lbu	a5,12(a5)
    80000de0:	2781                	sext.w	a5,a5
    80000de2:	1007f793          	andi	a5,a5,256
    80000de6:	2781                	sext.w	a5,a5
    80000de8:	c7ad                	beqz	a5,80000e52 <uart1_isr+0x88>
    80000dea:	a891                	j	80000e3e <uart1_isr+0x74>
    80000dec:	95018793          	addi	a5,gp,-1712 # 80004df0 <uart_instance>
    80000df0:	679c                	ld	a5,8(a5)
    80000df2:	479c                	lw	a5,8(a5)
    80000df4:	fef42623          	sw	a5,-20(s0)
    80000df8:	84018793          	addi	a5,gp,-1984 # 80004ce0 <uart1_rcv_isr_count>
    80000dfc:	439c                	lw	a5,0(a5)
    80000dfe:	2781                	sext.w	a5,a5
    80000e00:	0017871b          	addiw	a4,a5,1
    80000e04:	0007069b          	sext.w	a3,a4
    80000e08:	84018713          	addi	a4,gp,-1984 # 80004ce0 <uart1_rcv_isr_count>
    80000e0c:	c314                	sw	a3,0(a4)
    80000e0e:	fec42703          	lw	a4,-20(s0)
    80000e12:	0ff77713          	zext.b	a4,a4
    80000e16:	00006697          	auipc	a3,0x6
    80000e1a:	70268693          	addi	a3,a3,1794 # 80007518 <u1_rcv_char>
    80000e1e:	1782                	slli	a5,a5,0x20
    80000e20:	9381                	srli	a5,a5,0x20
    80000e22:	97b6                	add	a5,a5,a3
    80000e24:	00e78023          	sb	a4,0(a5)
    80000e28:	95018793          	addi	a5,gp,-1712 # 80004df0 <uart_instance>
    80000e2c:	679c                	ld	a5,8(a5)
    80000e2e:	fec42703          	lw	a4,-20(s0)
    80000e32:	0ff77713          	zext.b	a4,a4
    80000e36:	85ba                	mv	a1,a4
    80000e38:	853e                	mv	a0,a5
    80000e3a:	c1bff0ef          	jal	80000a54 <write_uart_character>
    80000e3e:	95018793          	addi	a5,gp,-1712 # 80004df0 <uart_instance>
    80000e42:	679c                	ld	a5,8(a5)
    80000e44:	00c7c783          	lbu	a5,12(a5)
    80000e48:	2781                	sext.w	a5,a5
    80000e4a:	8b91                	andi	a5,a5,4
    80000e4c:	2781                	sext.w	a5,a5
    80000e4e:	ffd9                	bnez	a5,80000dec <uart1_isr+0x22>
    80000e50:	a235                	j	80000f7c <uart1_isr+0x1b2>
    80000e52:	95018793          	addi	a5,gp,-1712 # 80004df0 <uart_instance>
    80000e56:	679c                	ld	a5,8(a5)
    80000e58:	00c7c783          	lbu	a5,12(a5)
    80000e5c:	2781                	sext.w	a5,a5
    80000e5e:	8ba1                	andi	a5,a5,8
    80000e60:	2781                	sext.w	a5,a5
    80000e62:	cbdd                	beqz	a5,80000f18 <uart1_isr+0x14e>
    80000e64:	45c1                	li	a1,16
    80000e66:	000407b7          	lui	a5,0x40
    80000e6a:	10078513          	addi	a0,a5,256 # 40100 <_tbss_end+0x40100>
    80000e6e:	1bb000ef          	jal	80001828 <write_word>
    80000e72:	000407b7          	lui	a5,0x40
    80000e76:	10878513          	addi	a0,a5,264 # 40108 <_tbss_end+0x40108>
    80000e7a:	177000ef          	jal	800017f0 <read_word>
    80000e7e:	87aa                	mv	a5,a0
    80000e80:	0107e793          	ori	a5,a5,16
    80000e84:	85be                	mv	a1,a5
    80000e86:	000407b7          	lui	a5,0x40
    80000e8a:	10878513          	addi	a0,a5,264 # 40108 <_tbss_end+0x40108>
    80000e8e:	19b000ef          	jal	80001828 <write_word>
    80000e92:	a891                	j	80000ee6 <uart1_isr+0x11c>
    80000e94:	95018793          	addi	a5,gp,-1712 # 80004df0 <uart_instance>
    80000e98:	679c                	ld	a5,8(a5)
    80000e9a:	479c                	lw	a5,8(a5)
    80000e9c:	fef42623          	sw	a5,-20(s0)
    80000ea0:	84018793          	addi	a5,gp,-1984 # 80004ce0 <uart1_rcv_isr_count>
    80000ea4:	439c                	lw	a5,0(a5)
    80000ea6:	2781                	sext.w	a5,a5
    80000ea8:	0017871b          	addiw	a4,a5,1
    80000eac:	0007069b          	sext.w	a3,a4
    80000eb0:	84018713          	addi	a4,gp,-1984 # 80004ce0 <uart1_rcv_isr_count>
    80000eb4:	c314                	sw	a3,0(a4)
    80000eb6:	fec42703          	lw	a4,-20(s0)
    80000eba:	0ff77713          	zext.b	a4,a4
    80000ebe:	00006697          	auipc	a3,0x6
    80000ec2:	65a68693          	addi	a3,a3,1626 # 80007518 <u1_rcv_char>
    80000ec6:	1782                	slli	a5,a5,0x20
    80000ec8:	9381                	srli	a5,a5,0x20
    80000eca:	97b6                	add	a5,a5,a3
    80000ecc:	00e78023          	sb	a4,0(a5)
    80000ed0:	95018793          	addi	a5,gp,-1712 # 80004df0 <uart_instance>
    80000ed4:	679c                	ld	a5,8(a5)
    80000ed6:	fec42703          	lw	a4,-20(s0)
    80000eda:	0ff77713          	zext.b	a4,a4
    80000ede:	85ba                	mv	a1,a4
    80000ee0:	853e                	mv	a0,a5
    80000ee2:	b73ff0ef          	jal	80000a54 <write_uart_character>
    80000ee6:	95018793          	addi	a5,gp,-1712 # 80004df0 <uart_instance>
    80000eea:	679c                	ld	a5,8(a5)
    80000eec:	00c7c783          	lbu	a5,12(a5)
    80000ef0:	2781                	sext.w	a5,a5
    80000ef2:	8b91                	andi	a5,a5,4
    80000ef4:	2781                	sext.w	a5,a5
    80000ef6:	ffd9                	bnez	a5,80000e94 <uart1_isr+0xca>
    80000ef8:	000407b7          	lui	a5,0x40
    80000efc:	10878513          	addi	a0,a5,264 # 40108 <_tbss_end+0x40108>
    80000f00:	0f1000ef          	jal	800017f0 <read_word>
    80000f04:	87aa                	mv	a5,a0
    80000f06:	9bbd                	andi	a5,a5,-17
    80000f08:	85be                	mv	a1,a5
    80000f0a:	000407b7          	lui	a5,0x40
    80000f0e:	10878513          	addi	a0,a5,264 # 40108 <_tbss_end+0x40108>
    80000f12:	117000ef          	jal	80001828 <write_word>
    80000f16:	a09d                	j	80000f7c <uart1_isr+0x1b2>
    80000f18:	95018793          	addi	a5,gp,-1712 # 80004df0 <uart_instance>
    80000f1c:	679c                	ld	a5,8(a5)
    80000f1e:	00c7c783          	lbu	a5,12(a5)
    80000f22:	2781                	sext.w	a5,a5
    80000f24:	8b91                	andi	a5,a5,4
    80000f26:	2781                	sext.w	a5,a5
    80000f28:	cbb1                	beqz	a5,80000f7c <uart1_isr+0x1b2>
    80000f2a:	95018793          	addi	a5,gp,-1712 # 80004df0 <uart_instance>
    80000f2e:	679c                	ld	a5,8(a5)
    80000f30:	479c                	lw	a5,8(a5)
    80000f32:	fef42623          	sw	a5,-20(s0)
    80000f36:	84018793          	addi	a5,gp,-1984 # 80004ce0 <uart1_rcv_isr_count>
    80000f3a:	439c                	lw	a5,0(a5)
    80000f3c:	2781                	sext.w	a5,a5
    80000f3e:	0017871b          	addiw	a4,a5,1
    80000f42:	0007069b          	sext.w	a3,a4
    80000f46:	84018713          	addi	a4,gp,-1984 # 80004ce0 <uart1_rcv_isr_count>
    80000f4a:	c314                	sw	a3,0(a4)
    80000f4c:	fec42703          	lw	a4,-20(s0)
    80000f50:	0ff77713          	zext.b	a4,a4
    80000f54:	00006697          	auipc	a3,0x6
    80000f58:	5c468693          	addi	a3,a3,1476 # 80007518 <u1_rcv_char>
    80000f5c:	1782                	slli	a5,a5,0x20
    80000f5e:	9381                	srli	a5,a5,0x20
    80000f60:	97b6                	add	a5,a5,a3
    80000f62:	00e78023          	sb	a4,0(a5)
    80000f66:	95018793          	addi	a5,gp,-1712 # 80004df0 <uart_instance>
    80000f6a:	679c                	ld	a5,8(a5)
    80000f6c:	fec42703          	lw	a4,-20(s0)
    80000f70:	0ff77713          	zext.b	a4,a4
    80000f74:	85ba                	mv	a1,a4
    80000f76:	853e                	mv	a0,a5
    80000f78:	addff0ef          	jal	80000a54 <write_uart_character>
    80000f7c:	4781                	li	a5,0
    80000f7e:	853e                	mv	a0,a5
    80000f80:	60e2                	ld	ra,24(sp)
    80000f82:	6442                	ld	s0,16(sp)
    80000f84:	6105                	addi	sp,sp,32
    80000f86:	8082                	ret

0000000080000f88 <uart2_isr>:
    80000f88:	1101                	addi	sp,sp,-32
    80000f8a:	ec06                	sd	ra,24(sp)
    80000f8c:	e822                	sd	s0,16(sp)
    80000f8e:	1000                	addi	s0,sp,32
    80000f90:	fe042623          	sw	zero,-20(s0)
    80000f94:	95018793          	addi	a5,gp,-1712 # 80004df0 <uart_instance>
    80000f98:	6b9c                	ld	a5,16(a5)
    80000f9a:	00c7c783          	lbu	a5,12(a5)
    80000f9e:	2781                	sext.w	a5,a5
    80000fa0:	1007f793          	andi	a5,a5,256
    80000fa4:	2781                	sext.w	a5,a5
    80000fa6:	c7ad                	beqz	a5,80001010 <uart2_isr+0x88>
    80000fa8:	a891                	j	80000ffc <uart2_isr+0x74>
    80000faa:	95018793          	addi	a5,gp,-1712 # 80004df0 <uart_instance>
    80000fae:	6b9c                	ld	a5,16(a5)
    80000fb0:	479c                	lw	a5,8(a5)
    80000fb2:	fef42623          	sw	a5,-20(s0)
    80000fb6:	84818793          	addi	a5,gp,-1976 # 80004ce8 <uart2_rcv_isr_count>
    80000fba:	439c                	lw	a5,0(a5)
    80000fbc:	2781                	sext.w	a5,a5
    80000fbe:	0017871b          	addiw	a4,a5,1
    80000fc2:	0007069b          	sext.w	a3,a4
    80000fc6:	84818713          	addi	a4,gp,-1976 # 80004ce8 <uart2_rcv_isr_count>
    80000fca:	c314                	sw	a3,0(a4)
    80000fcc:	fec42703          	lw	a4,-20(s0)
    80000fd0:	0ff77713          	zext.b	a4,a4
    80000fd4:	00009697          	auipc	a3,0x9
    80000fd8:	c5468693          	addi	a3,a3,-940 # 80009c28 <u2_rcv_char>
    80000fdc:	1782                	slli	a5,a5,0x20
    80000fde:	9381                	srli	a5,a5,0x20
    80000fe0:	97b6                	add	a5,a5,a3
    80000fe2:	00e78023          	sb	a4,0(a5)
    80000fe6:	95018793          	addi	a5,gp,-1712 # 80004df0 <uart_instance>
    80000fea:	6b9c                	ld	a5,16(a5)
    80000fec:	fec42703          	lw	a4,-20(s0)
    80000ff0:	0ff77713          	zext.b	a4,a4
    80000ff4:	85ba                	mv	a1,a4
    80000ff6:	853e                	mv	a0,a5
    80000ff8:	a5dff0ef          	jal	80000a54 <write_uart_character>
    80000ffc:	95018793          	addi	a5,gp,-1712 # 80004df0 <uart_instance>
    80001000:	6b9c                	ld	a5,16(a5)
    80001002:	00c7c783          	lbu	a5,12(a5)
    80001006:	2781                	sext.w	a5,a5
    80001008:	8b91                	andi	a5,a5,4
    8000100a:	2781                	sext.w	a5,a5
    8000100c:	ffd9                	bnez	a5,80000faa <uart2_isr+0x22>
    8000100e:	a235                	j	8000113a <uart2_isr+0x1b2>
    80001010:	95018793          	addi	a5,gp,-1712 # 80004df0 <uart_instance>
    80001014:	6b9c                	ld	a5,16(a5)
    80001016:	00c7c783          	lbu	a5,12(a5)
    8000101a:	2781                	sext.w	a5,a5
    8000101c:	8ba1                	andi	a5,a5,8
    8000101e:	2781                	sext.w	a5,a5
    80001020:	cbdd                	beqz	a5,800010d6 <uart2_isr+0x14e>
    80001022:	45c1                	li	a1,16
    80001024:	000407b7          	lui	a5,0x40
    80001028:	10078513          	addi	a0,a5,256 # 40100 <_tbss_end+0x40100>
    8000102c:	7fc000ef          	jal	80001828 <write_word>
    80001030:	000407b7          	lui	a5,0x40
    80001034:	10878513          	addi	a0,a5,264 # 40108 <_tbss_end+0x40108>
    80001038:	7b8000ef          	jal	800017f0 <read_word>
    8000103c:	87aa                	mv	a5,a0
    8000103e:	0107e793          	ori	a5,a5,16
    80001042:	85be                	mv	a1,a5
    80001044:	000407b7          	lui	a5,0x40
    80001048:	10878513          	addi	a0,a5,264 # 40108 <_tbss_end+0x40108>
    8000104c:	7dc000ef          	jal	80001828 <write_word>
    80001050:	a891                	j	800010a4 <uart2_isr+0x11c>
    80001052:	95018793          	addi	a5,gp,-1712 # 80004df0 <uart_instance>
    80001056:	6b9c                	ld	a5,16(a5)
    80001058:	479c                	lw	a5,8(a5)
    8000105a:	fef42623          	sw	a5,-20(s0)
    8000105e:	84818793          	addi	a5,gp,-1976 # 80004ce8 <uart2_rcv_isr_count>
    80001062:	439c                	lw	a5,0(a5)
    80001064:	2781                	sext.w	a5,a5
    80001066:	0017871b          	addiw	a4,a5,1
    8000106a:	0007069b          	sext.w	a3,a4
    8000106e:	84818713          	addi	a4,gp,-1976 # 80004ce8 <uart2_rcv_isr_count>
    80001072:	c314                	sw	a3,0(a4)
    80001074:	fec42703          	lw	a4,-20(s0)
    80001078:	0ff77713          	zext.b	a4,a4
    8000107c:	00009697          	auipc	a3,0x9
    80001080:	bac68693          	addi	a3,a3,-1108 # 80009c28 <u2_rcv_char>
    80001084:	1782                	slli	a5,a5,0x20
    80001086:	9381                	srli	a5,a5,0x20
    80001088:	97b6                	add	a5,a5,a3
    8000108a:	00e78023          	sb	a4,0(a5)
    8000108e:	95018793          	addi	a5,gp,-1712 # 80004df0 <uart_instance>
    80001092:	6b9c                	ld	a5,16(a5)
    80001094:	fec42703          	lw	a4,-20(s0)
    80001098:	0ff77713          	zext.b	a4,a4
    8000109c:	85ba                	mv	a1,a4
    8000109e:	853e                	mv	a0,a5
    800010a0:	9b5ff0ef          	jal	80000a54 <write_uart_character>
    800010a4:	95018793          	addi	a5,gp,-1712 # 80004df0 <uart_instance>
    800010a8:	6b9c                	ld	a5,16(a5)
    800010aa:	00c7c783          	lbu	a5,12(a5)
    800010ae:	2781                	sext.w	a5,a5
    800010b0:	8b91                	andi	a5,a5,4
    800010b2:	2781                	sext.w	a5,a5
    800010b4:	ffd9                	bnez	a5,80001052 <uart2_isr+0xca>
    800010b6:	000407b7          	lui	a5,0x40
    800010ba:	10878513          	addi	a0,a5,264 # 40108 <_tbss_end+0x40108>
    800010be:	732000ef          	jal	800017f0 <read_word>
    800010c2:	87aa                	mv	a5,a0
    800010c4:	9bbd                	andi	a5,a5,-17
    800010c6:	85be                	mv	a1,a5
    800010c8:	000407b7          	lui	a5,0x40
    800010cc:	10878513          	addi	a0,a5,264 # 40108 <_tbss_end+0x40108>
    800010d0:	758000ef          	jal	80001828 <write_word>
    800010d4:	a09d                	j	8000113a <uart2_isr+0x1b2>
    800010d6:	95018793          	addi	a5,gp,-1712 # 80004df0 <uart_instance>
    800010da:	6b9c                	ld	a5,16(a5)
    800010dc:	00c7c783          	lbu	a5,12(a5)
    800010e0:	2781                	sext.w	a5,a5
    800010e2:	8b91                	andi	a5,a5,4
    800010e4:	2781                	sext.w	a5,a5
    800010e6:	cbb1                	beqz	a5,8000113a <uart2_isr+0x1b2>
    800010e8:	95018793          	addi	a5,gp,-1712 # 80004df0 <uart_instance>
    800010ec:	6b9c                	ld	a5,16(a5)
    800010ee:	479c                	lw	a5,8(a5)
    800010f0:	fef42623          	sw	a5,-20(s0)
    800010f4:	84818793          	addi	a5,gp,-1976 # 80004ce8 <uart2_rcv_isr_count>
    800010f8:	439c                	lw	a5,0(a5)
    800010fa:	2781                	sext.w	a5,a5
    800010fc:	0017871b          	addiw	a4,a5,1
    80001100:	0007069b          	sext.w	a3,a4
    80001104:	84818713          	addi	a4,gp,-1976 # 80004ce8 <uart2_rcv_isr_count>
    80001108:	c314                	sw	a3,0(a4)
    8000110a:	fec42703          	lw	a4,-20(s0)
    8000110e:	0ff77713          	zext.b	a4,a4
    80001112:	00009697          	auipc	a3,0x9
    80001116:	b1668693          	addi	a3,a3,-1258 # 80009c28 <u2_rcv_char>
    8000111a:	1782                	slli	a5,a5,0x20
    8000111c:	9381                	srli	a5,a5,0x20
    8000111e:	97b6                	add	a5,a5,a3
    80001120:	00e78023          	sb	a4,0(a5)
    80001124:	95018793          	addi	a5,gp,-1712 # 80004df0 <uart_instance>
    80001128:	6b9c                	ld	a5,16(a5)
    8000112a:	fec42703          	lw	a4,-20(s0)
    8000112e:	0ff77713          	zext.b	a4,a4
    80001132:	85ba                	mv	a1,a4
    80001134:	853e                	mv	a0,a5
    80001136:	91fff0ef          	jal	80000a54 <write_uart_character>
    8000113a:	4781                	li	a5,0
    8000113c:	853e                	mv	a0,a5
    8000113e:	60e2                	ld	ra,24(sp)
    80001140:	6442                	ld	s0,16(sp)
    80001142:	6105                	addi	sp,sp,32
    80001144:	8082                	ret

0000000080001146 <section_init>:
    80001146:	1141                	addi	sp,sp,-16
    80001148:	e422                	sd	s0,8(sp)
    8000114a:	0800                	addi	s0,sp,16
    8000114c:	0001                	nop
    8000114e:	6422                	ld	s0,8(sp)
    80001150:	0141                	addi	sp,sp,16
    80001152:	8082                	ret

0000000080001154 <trap_init>:
    80001154:	1141                	addi	sp,sp,-16
    80001156:	e406                	sd	ra,8(sp)
    80001158:	e022                	sd	s0,0(sp)
    8000115a:	0800                	addi	s0,sp,16
    8000115c:	00003517          	auipc	a0,0x3
    80001160:	cc450513          	addi	a0,a0,-828 # 80003e20 <__rodata_start+0x178>
    80001164:	96eff0ef          	jal	800002d2 <log_trace>
    80001168:	8d018793          	addi	a5,gp,-1840 # 80004d70 <mcause_interrupt_table>
    8000116c:	fffff717          	auipc	a4,0xfffff
    80001170:	06c70713          	addi	a4,a4,108 # 800001d8 <default_handler>
    80001174:	e398                	sd	a4,0(a5)
    80001176:	8d018793          	addi	a5,gp,-1840 # 80004d70 <mcause_interrupt_table>
    8000117a:	fffff717          	auipc	a4,0xfffff
    8000117e:	05e70713          	addi	a4,a4,94 # 800001d8 <default_handler>
    80001182:	e798                	sd	a4,8(a5)
    80001184:	8d018793          	addi	a5,gp,-1840 # 80004d70 <mcause_interrupt_table>
    80001188:	fffff717          	auipc	a4,0xfffff
    8000118c:	05070713          	addi	a4,a4,80 # 800001d8 <default_handler>
    80001190:	eb98                	sd	a4,16(a5)
    80001192:	8d018793          	addi	a5,gp,-1840 # 80004d70 <mcause_interrupt_table>
    80001196:	fffff717          	auipc	a4,0xfffff
    8000119a:	04270713          	addi	a4,a4,66 # 800001d8 <default_handler>
    8000119e:	ef98                	sd	a4,24(a5)
    800011a0:	8d018793          	addi	a5,gp,-1840 # 80004d70 <mcause_interrupt_table>
    800011a4:	fffff717          	auipc	a4,0xfffff
    800011a8:	03470713          	addi	a4,a4,52 # 800001d8 <default_handler>
    800011ac:	f398                	sd	a4,32(a5)
    800011ae:	8d018793          	addi	a5,gp,-1840 # 80004d70 <mcause_interrupt_table>
    800011b2:	fffff717          	auipc	a4,0xfffff
    800011b6:	02670713          	addi	a4,a4,38 # 800001d8 <default_handler>
    800011ba:	f798                	sd	a4,40(a5)
    800011bc:	8d018793          	addi	a5,gp,-1840 # 80004d70 <mcause_interrupt_table>
    800011c0:	fffff717          	auipc	a4,0xfffff
    800011c4:	01870713          	addi	a4,a4,24 # 800001d8 <default_handler>
    800011c8:	fb98                	sd	a4,48(a5)
    800011ca:	8d018793          	addi	a5,gp,-1840 # 80004d70 <mcause_interrupt_table>
    800011ce:	00000717          	auipc	a4,0x0
    800011d2:	76c70713          	addi	a4,a4,1900 # 8000193a <mach_clint_handler>
    800011d6:	ff98                	sd	a4,56(a5)
    800011d8:	8d018793          	addi	a5,gp,-1840 # 80004d70 <mcause_interrupt_table>
    800011dc:	fffff717          	auipc	a4,0xfffff
    800011e0:	ffc70713          	addi	a4,a4,-4 # 800001d8 <default_handler>
    800011e4:	e3b8                	sd	a4,64(a5)
    800011e6:	8d018793          	addi	a5,gp,-1840 # 80004d70 <mcause_interrupt_table>
    800011ea:	fffff717          	auipc	a4,0xfffff
    800011ee:	fee70713          	addi	a4,a4,-18 # 800001d8 <default_handler>
    800011f2:	e7b8                	sd	a4,72(a5)
    800011f4:	8d018793          	addi	a5,gp,-1840 # 80004d70 <mcause_interrupt_table>
    800011f8:	fffff717          	auipc	a4,0xfffff
    800011fc:	fe070713          	addi	a4,a4,-32 # 800001d8 <default_handler>
    80001200:	ebb8                	sd	a4,80(a5)
    80001202:	8d018793          	addi	a5,gp,-1840 # 80004d70 <mcause_interrupt_table>
    80001206:	00001717          	auipc	a4,0x1
    8000120a:	8e470713          	addi	a4,a4,-1820 # 80001aea <mach_plic_handler>
    8000120e:	efb8                	sd	a4,88(a5)
    80001210:	8d018793          	addi	a5,gp,-1840 # 80004d70 <mcause_interrupt_table>
    80001214:	fffff717          	auipc	a4,0xfffff
    80001218:	fc470713          	addi	a4,a4,-60 # 800001d8 <default_handler>
    8000121c:	f3b8                	sd	a4,96(a5)
    8000121e:	8d018793          	addi	a5,gp,-1840 # 80004d70 <mcause_interrupt_table>
    80001222:	fffff717          	auipc	a4,0xfffff
    80001226:	fb670713          	addi	a4,a4,-74 # 800001d8 <default_handler>
    8000122a:	f7b8                	sd	a4,104(a5)
    8000122c:	8d018793          	addi	a5,gp,-1840 # 80004d70 <mcause_interrupt_table>
    80001230:	fffff717          	auipc	a4,0xfffff
    80001234:	fa870713          	addi	a4,a4,-88 # 800001d8 <default_handler>
    80001238:	fbb8                	sd	a4,112(a5)
    8000123a:	8d018793          	addi	a5,gp,-1840 # 80004d70 <mcause_interrupt_table>
    8000123e:	fffff717          	auipc	a4,0xfffff
    80001242:	f9a70713          	addi	a4,a4,-102 # 800001d8 <default_handler>
    80001246:	ffb8                	sd	a4,120(a5)
    80001248:	00004797          	auipc	a5,0x4
    8000124c:	aa878793          	addi	a5,a5,-1368 # 80004cf0 <mcause_trap_table>
    80001250:	fffff717          	auipc	a4,0xfffff
    80001254:	f8870713          	addi	a4,a4,-120 # 800001d8 <default_handler>
    80001258:	e398                	sd	a4,0(a5)
    8000125a:	00004797          	auipc	a5,0x4
    8000125e:	a9678793          	addi	a5,a5,-1386 # 80004cf0 <mcause_trap_table>
    80001262:	fffff717          	auipc	a4,0xfffff
    80001266:	f7670713          	addi	a4,a4,-138 # 800001d8 <default_handler>
    8000126a:	e798                	sd	a4,8(a5)
    8000126c:	00004797          	auipc	a5,0x4
    80001270:	a8478793          	addi	a5,a5,-1404 # 80004cf0 <mcause_trap_table>
    80001274:	fffff717          	auipc	a4,0xfffff
    80001278:	f6470713          	addi	a4,a4,-156 # 800001d8 <default_handler>
    8000127c:	eb98                	sd	a4,16(a5)
    8000127e:	00004797          	auipc	a5,0x4
    80001282:	a7278793          	addi	a5,a5,-1422 # 80004cf0 <mcause_trap_table>
    80001286:	fffff717          	auipc	a4,0xfffff
    8000128a:	f5270713          	addi	a4,a4,-174 # 800001d8 <default_handler>
    8000128e:	ef98                	sd	a4,24(a5)
    80001290:	00004797          	auipc	a5,0x4
    80001294:	a6078793          	addi	a5,a5,-1440 # 80004cf0 <mcause_trap_table>
    80001298:	fffff717          	auipc	a4,0xfffff
    8000129c:	f4070713          	addi	a4,a4,-192 # 800001d8 <default_handler>
    800012a0:	f398                	sd	a4,32(a5)
    800012a2:	00004797          	auipc	a5,0x4
    800012a6:	a4e78793          	addi	a5,a5,-1458 # 80004cf0 <mcause_trap_table>
    800012aa:	fffff717          	auipc	a4,0xfffff
    800012ae:	f2e70713          	addi	a4,a4,-210 # 800001d8 <default_handler>
    800012b2:	f798                	sd	a4,40(a5)
    800012b4:	00004797          	auipc	a5,0x4
    800012b8:	a3c78793          	addi	a5,a5,-1476 # 80004cf0 <mcause_trap_table>
    800012bc:	fffff717          	auipc	a4,0xfffff
    800012c0:	f1c70713          	addi	a4,a4,-228 # 800001d8 <default_handler>
    800012c4:	fb98                	sd	a4,48(a5)
    800012c6:	00004797          	auipc	a5,0x4
    800012ca:	a2a78793          	addi	a5,a5,-1494 # 80004cf0 <mcause_trap_table>
    800012ce:	fffff717          	auipc	a4,0xfffff
    800012d2:	f0a70713          	addi	a4,a4,-246 # 800001d8 <default_handler>
    800012d6:	ff98                	sd	a4,56(a5)
    800012d8:	00004797          	auipc	a5,0x4
    800012dc:	a1878793          	addi	a5,a5,-1512 # 80004cf0 <mcause_trap_table>
    800012e0:	fffff717          	auipc	a4,0xfffff
    800012e4:	ef870713          	addi	a4,a4,-264 # 800001d8 <default_handler>
    800012e8:	e3b8                	sd	a4,64(a5)
    800012ea:	00004797          	auipc	a5,0x4
    800012ee:	a0678793          	addi	a5,a5,-1530 # 80004cf0 <mcause_trap_table>
    800012f2:	fffff717          	auipc	a4,0xfffff
    800012f6:	ee670713          	addi	a4,a4,-282 # 800001d8 <default_handler>
    800012fa:	e7b8                	sd	a4,72(a5)
    800012fc:	00004797          	auipc	a5,0x4
    80001300:	9f478793          	addi	a5,a5,-1548 # 80004cf0 <mcause_trap_table>
    80001304:	fffff717          	auipc	a4,0xfffff
    80001308:	ed470713          	addi	a4,a4,-300 # 800001d8 <default_handler>
    8000130c:	ebb8                	sd	a4,80(a5)
    8000130e:	00004797          	auipc	a5,0x4
    80001312:	9e278793          	addi	a5,a5,-1566 # 80004cf0 <mcause_trap_table>
    80001316:	fffff717          	auipc	a4,0xfffff
    8000131a:	ec270713          	addi	a4,a4,-318 # 800001d8 <default_handler>
    8000131e:	efb8                	sd	a4,88(a5)
    80001320:	00004797          	auipc	a5,0x4
    80001324:	9d078793          	addi	a5,a5,-1584 # 80004cf0 <mcause_trap_table>
    80001328:	fffff717          	auipc	a4,0xfffff
    8000132c:	eb070713          	addi	a4,a4,-336 # 800001d8 <default_handler>
    80001330:	f3b8                	sd	a4,96(a5)
    80001332:	00004797          	auipc	a5,0x4
    80001336:	9be78793          	addi	a5,a5,-1602 # 80004cf0 <mcause_trap_table>
    8000133a:	fffff717          	auipc	a4,0xfffff
    8000133e:	e9e70713          	addi	a4,a4,-354 # 800001d8 <default_handler>
    80001342:	f7b8                	sd	a4,104(a5)
    80001344:	00004797          	auipc	a5,0x4
    80001348:	9ac78793          	addi	a5,a5,-1620 # 80004cf0 <mcause_trap_table>
    8000134c:	fffff717          	auipc	a4,0xfffff
    80001350:	e8c70713          	addi	a4,a4,-372 # 800001d8 <default_handler>
    80001354:	fbb8                	sd	a4,112(a5)
    80001356:	00004797          	auipc	a5,0x4
    8000135a:	99a78793          	addi	a5,a5,-1638 # 80004cf0 <mcause_trap_table>
    8000135e:	fffff717          	auipc	a4,0xfffff
    80001362:	e7a70713          	addi	a4,a4,-390 # 800001d8 <default_handler>
    80001366:	ffb8                	sd	a4,120(a5)
    80001368:	00003517          	auipc	a0,0x3
    8000136c:	ad050513          	addi	a0,a0,-1328 # 80003e38 <__rodata_start+0x190>
    80001370:	f63fe0ef          	jal	800002d2 <log_trace>
    80001374:	0001                	nop
    80001376:	60a2                	ld	ra,8(sp)
    80001378:	6402                	ld	s0,0(sp)
    8000137a:	0141                	addi	sp,sp,16
    8000137c:	8082                	ret

000000008000137e <init>:
    8000137e:	1141                	addi	sp,sp,-16
    80001380:	e406                	sd	ra,8(sp)
    80001382:	e022                	sd	s0,0(sp)
    80001384:	0800                	addi	s0,sp,16
    80001386:	d8eff0ef          	jal	80000914 <uart_init>
    8000138a:	00003517          	auipc	a0,0x3
    8000138e:	ac650513          	addi	a0,a0,-1338 # 80003e50 <__rodata_start+0x1a8>
    80001392:	f41fe0ef          	jal	800002d2 <log_trace>
    80001396:	dbfff0ef          	jal	80001154 <trap_init>
    8000139a:	0f9010ef          	jal	80002c92 <main>
    8000139e:	00003517          	auipc	a0,0x3
    800013a2:	ac250513          	addi	a0,a0,-1342 # 80003e60 <__rodata_start+0x1b8>
    800013a6:	f2dfe0ef          	jal	800002d2 <log_trace>
    800013aa:	0001                	nop
    800013ac:	60a2                	ld	ra,8(sp)
    800013ae:	6402                	ld	s0,0(sp)
    800013b0:	0141                	addi	sp,sp,16
    800013b2:	8082                	ret

00000000800013b4 <waitfor>:
    800013b4:	7179                	addi	sp,sp,-48
    800013b6:	f422                	sd	s0,40(sp)
    800013b8:	1800                	addi	s0,sp,48
    800013ba:	87aa                	mv	a5,a0
    800013bc:	fcf42e23          	sw	a5,-36(s0)
    800013c0:	fe042623          	sw	zero,-20(s0)
    800013c4:	0001                	nop
    800013c6:	fec42783          	lw	a5,-20(s0)
    800013ca:	0017871b          	addiw	a4,a5,1
    800013ce:	fee42623          	sw	a4,-20(s0)
    800013d2:	fdc42703          	lw	a4,-36(s0)
    800013d6:	2701                	sext.w	a4,a4
    800013d8:	fee7e7e3          	bltu	a5,a4,800013c6 <waitfor+0x12>
    800013dc:	0001                	nop
    800013de:	0001                	nop
    800013e0:	7422                	ld	s0,40(sp)
    800013e2:	6145                	addi	sp,sp,48
    800013e4:	8082                	ret

00000000800013e6 <delay>:
    800013e6:	7179                	addi	sp,sp,-48
    800013e8:	f422                	sd	s0,40(sp)
    800013ea:	1800                	addi	s0,sp,48
    800013ec:	fca43c23          	sd	a0,-40(s0)
    800013f0:	fd843703          	ld	a4,-40(s0)
    800013f4:	3e800793          	li	a5,1000
    800013f8:	02f707b3          	mul	a5,a4,a5
    800013fc:	fef43423          	sd	a5,-24(s0)
    80001400:	a829                	j	8000141a <delay+0x34>
    80001402:	3e800793          	li	a5,1000
    80001406:	fef43023          	sd	a5,-32(s0)
    8000140a:	0001                	nop
    8000140c:	fe043783          	ld	a5,-32(s0)
    80001410:	fff78713          	addi	a4,a5,-1
    80001414:	fee43023          	sd	a4,-32(s0)
    80001418:	fbf5                	bnez	a5,8000140c <delay+0x26>
    8000141a:	fe843783          	ld	a5,-24(s0)
    8000141e:	fff78713          	addi	a4,a5,-1
    80001422:	fee43423          	sd	a4,-24(s0)
    80001426:	fff1                	bnez	a5,80001402 <delay+0x1c>
    80001428:	0001                	nop
    8000142a:	0001                	nop
    8000142c:	7422                	ld	s0,40(sp)
    8000142e:	6145                	addi	sp,sp,48
    80001430:	8082                	ret

0000000080001432 <pow_10>:
    80001432:	7179                	addi	sp,sp,-48
    80001434:	f406                	sd	ra,40(sp)
    80001436:	f022                	sd	s0,32(sp)
    80001438:	1800                	addi	s0,sp,48
    8000143a:	87aa                	mv	a5,a0
    8000143c:	fcf42e23          	sw	a5,-36(s0)
    80001440:	4785                	li	a5,1
    80001442:	fef42623          	sw	a5,-20(s0)
    80001446:	fe042423          	sw	zero,-24(s0)
    8000144a:	a00d                	j	8000146c <pow_10+0x3a>
    8000144c:	fec42783          	lw	a5,-20(s0)
    80001450:	873e                	mv	a4,a5
    80001452:	87ba                	mv	a5,a4
    80001454:	0027979b          	slliw	a5,a5,0x2
    80001458:	9fb9                	addw	a5,a5,a4
    8000145a:	0017979b          	slliw	a5,a5,0x1
    8000145e:	fef42623          	sw	a5,-20(s0)
    80001462:	fe842783          	lw	a5,-24(s0)
    80001466:	2785                	addiw	a5,a5,1
    80001468:	fef42423          	sw	a5,-24(s0)
    8000146c:	fe842783          	lw	a5,-24(s0)
    80001470:	873e                	mv	a4,a5
    80001472:	fdc42783          	lw	a5,-36(s0)
    80001476:	2701                	sext.w	a4,a4
    80001478:	2781                	sext.w	a5,a5
    8000147a:	fcf769e3          	bltu	a4,a5,8000144c <pow_10+0x1a>
    8000147e:	fec42783          	lw	a5,-20(s0)
    80001482:	853e                	mv	a0,a5
    80001484:	544020ef          	jal	800039c8 <__floatunsisf>
    80001488:	87aa                	mv	a5,a0
    8000148a:	853e                	mv	a0,a5
    8000148c:	70a2                	ld	ra,40(sp)
    8000148e:	7402                	ld	s0,32(sp)
    80001490:	6145                	addi	sp,sp,48
    80001492:	8082                	ret

0000000080001494 <reverse>:
    80001494:	7179                	addi	sp,sp,-48
    80001496:	f422                	sd	s0,40(sp)
    80001498:	1800                	addi	s0,sp,48
    8000149a:	fca43c23          	sd	a0,-40(s0)
    8000149e:	87ae                	mv	a5,a1
    800014a0:	fcf42a23          	sw	a5,-44(s0)
    800014a4:	fe042623          	sw	zero,-20(s0)
    800014a8:	fd442783          	lw	a5,-44(s0)
    800014ac:	37fd                	addiw	a5,a5,-1
    800014ae:	fef42423          	sw	a5,-24(s0)
    800014b2:	a899                	j	80001508 <reverse+0x74>
    800014b4:	fec42783          	lw	a5,-20(s0)
    800014b8:	fd843703          	ld	a4,-40(s0)
    800014bc:	97ba                	add	a5,a5,a4
    800014be:	0007c783          	lbu	a5,0(a5)
    800014c2:	fef403a3          	sb	a5,-25(s0)
    800014c6:	fe842783          	lw	a5,-24(s0)
    800014ca:	fd843703          	ld	a4,-40(s0)
    800014ce:	973e                	add	a4,a4,a5
    800014d0:	fec42783          	lw	a5,-20(s0)
    800014d4:	fd843683          	ld	a3,-40(s0)
    800014d8:	97b6                	add	a5,a5,a3
    800014da:	00074703          	lbu	a4,0(a4)
    800014de:	00e78023          	sb	a4,0(a5)
    800014e2:	fe842783          	lw	a5,-24(s0)
    800014e6:	fd843703          	ld	a4,-40(s0)
    800014ea:	97ba                	add	a5,a5,a4
    800014ec:	fe744703          	lbu	a4,-25(s0)
    800014f0:	00e78023          	sb	a4,0(a5)
    800014f4:	fec42783          	lw	a5,-20(s0)
    800014f8:	2785                	addiw	a5,a5,1
    800014fa:	fef42623          	sw	a5,-20(s0)
    800014fe:	fe842783          	lw	a5,-24(s0)
    80001502:	37fd                	addiw	a5,a5,-1
    80001504:	fef42423          	sw	a5,-24(s0)
    80001508:	fec42783          	lw	a5,-20(s0)
    8000150c:	873e                	mv	a4,a5
    8000150e:	fe842783          	lw	a5,-24(s0)
    80001512:	2701                	sext.w	a4,a4
    80001514:	2781                	sext.w	a5,a5
    80001516:	f8f74fe3          	blt	a4,a5,800014b4 <reverse+0x20>
    8000151a:	0001                	nop
    8000151c:	0001                	nop
    8000151e:	7422                	ld	s0,40(sp)
    80001520:	6145                	addi	sp,sp,48
    80001522:	8082                	ret

0000000080001524 <int_to_string>:
    80001524:	7179                	addi	sp,sp,-48
    80001526:	f406                	sd	ra,40(sp)
    80001528:	f022                	sd	s0,32(sp)
    8000152a:	1800                	addi	s0,sp,48
    8000152c:	87aa                	mv	a5,a0
    8000152e:	fcb43823          	sd	a1,-48(s0)
    80001532:	8732                	mv	a4,a2
    80001534:	fcf42e23          	sw	a5,-36(s0)
    80001538:	87ba                	mv	a5,a4
    8000153a:	fcf42c23          	sw	a5,-40(s0)
    8000153e:	fe042623          	sw	zero,-20(s0)
    80001542:	a091                	j	80001586 <int_to_string+0x62>
    80001544:	fdc42783          	lw	a5,-36(s0)
    80001548:	873e                	mv	a4,a5
    8000154a:	47a9                	li	a5,10
    8000154c:	02f767bb          	remw	a5,a4,a5
    80001550:	2781                	sext.w	a5,a5
    80001552:	0ff7f713          	zext.b	a4,a5
    80001556:	fec46783          	lwu	a5,-20(s0)
    8000155a:	fd043683          	ld	a3,-48(s0)
    8000155e:	97b6                	add	a5,a5,a3
    80001560:	0307071b          	addiw	a4,a4,48
    80001564:	0ff77713          	zext.b	a4,a4
    80001568:	00e78023          	sb	a4,0(a5)
    8000156c:	fec42783          	lw	a5,-20(s0)
    80001570:	2785                	addiw	a5,a5,1
    80001572:	fef42623          	sw	a5,-20(s0)
    80001576:	fdc42783          	lw	a5,-36(s0)
    8000157a:	873e                	mv	a4,a5
    8000157c:	47a9                	li	a5,10
    8000157e:	02f747bb          	divw	a5,a4,a5
    80001582:	fcf42e23          	sw	a5,-36(s0)
    80001586:	fdc42783          	lw	a5,-36(s0)
    8000158a:	2781                	sext.w	a5,a5
    8000158c:	ffc5                	bnez	a5,80001544 <int_to_string+0x20>
    8000158e:	a839                	j	800015ac <int_to_string+0x88>
    80001590:	fec46783          	lwu	a5,-20(s0)
    80001594:	fd043703          	ld	a4,-48(s0)
    80001598:	97ba                	add	a5,a5,a4
    8000159a:	03000713          	li	a4,48
    8000159e:	00e78023          	sb	a4,0(a5)
    800015a2:	fec42783          	lw	a5,-20(s0)
    800015a6:	2785                	addiw	a5,a5,1
    800015a8:	fef42623          	sw	a5,-20(s0)
    800015ac:	fec42783          	lw	a5,-20(s0)
    800015b0:	873e                	mv	a4,a5
    800015b2:	fd842783          	lw	a5,-40(s0)
    800015b6:	2701                	sext.w	a4,a4
    800015b8:	2781                	sext.w	a5,a5
    800015ba:	fcf76be3          	bltu	a4,a5,80001590 <int_to_string+0x6c>
    800015be:	fec42783          	lw	a5,-20(s0)
    800015c2:	85be                	mv	a1,a5
    800015c4:	fd043503          	ld	a0,-48(s0)
    800015c8:	ecdff0ef          	jal	80001494 <reverse>
    800015cc:	fec46783          	lwu	a5,-20(s0)
    800015d0:	fd043703          	ld	a4,-48(s0)
    800015d4:	97ba                	add	a5,a5,a4
    800015d6:	00078023          	sb	zero,0(a5)
    800015da:	fec42783          	lw	a5,-20(s0)
    800015de:	853e                	mv	a0,a5
    800015e0:	70a2                	ld	ra,40(sp)
    800015e2:	7402                	ld	s0,32(sp)
    800015e4:	6145                	addi	sp,sp,48
    800015e6:	8082                	ret

00000000800015e8 <ftoa>:
    800015e8:	715d                	addi	sp,sp,-80
    800015ea:	e486                	sd	ra,72(sp)
    800015ec:	e0a2                	sd	s0,64(sp)
    800015ee:	0880                	addi	s0,sp,80
    800015f0:	faa42e23          	sw	a0,-68(s0)
    800015f4:	fab43823          	sd	a1,-80(s0)
    800015f8:	87b2                	mv	a5,a2
    800015fa:	faf42c23          	sw	a5,-72(s0)
    800015fe:	fe042623          	sw	zero,-20(s0)
    80001602:	fc043023          	sd	zero,-64(s0)
    80001606:	fc043423          	sd	zero,-56(s0)
    8000160a:	fc043823          	sd	zero,-48(s0)
    8000160e:	fc042c23          	sw	zero,-40(s0)
    80001612:	fc041e23          	sh	zero,-36(s0)
    80001616:	fbc42503          	lw	a0,-68(s0)
    8000161a:	460020ef          	jal	80003a7a <__extendsfdf2>
    8000161e:	872a                	mv	a4,a0
    80001620:	00003797          	auipc	a5,0x3
    80001624:	86878793          	addi	a5,a5,-1944 # 80003e88 <__rodata_start+0x1e0>
    80001628:	638c                	ld	a1,0(a5)
    8000162a:	853a                	mv	a0,a4
    8000162c:	0ef010ef          	jal	80002f1a <__adddf3>
    80001630:	87aa                	mv	a5,a0
    80001632:	853e                	mv	a0,a5
    80001634:	4b2020ef          	jal	80003ae6 <__truncdfsf2>
    80001638:	87aa                	mv	a5,a0
    8000163a:	faf42e23          	sw	a5,-68(s0)
    8000163e:	fbc42503          	lw	a0,-68(s0)
    80001642:	250020ef          	jal	80003892 <__fixsfsi>
    80001646:	87aa                	mv	a5,a0
    80001648:	fef42423          	sw	a5,-24(s0)
    8000164c:	fe842783          	lw	a5,-24(s0)
    80001650:	853e                	mv	a0,a5
    80001652:	2aa020ef          	jal	800038fc <__floatsisf>
    80001656:	87aa                	mv	a5,a0
    80001658:	85be                	mv	a1,a5
    8000165a:	fbc42503          	lw	a0,-68(s0)
    8000165e:	6ef010ef          	jal	8000354c <__subsf3>
    80001662:	87aa                	mv	a5,a0
    80001664:	fef42223          	sw	a5,-28(s0)
    80001668:	fe042023          	sw	zero,-32(s0)
    8000166c:	00000593          	li	a1,0
    80001670:	fbc42503          	lw	a0,-68(s0)
    80001674:	44f010ef          	jal	800032c2 <__lesf2>
    80001678:	87aa                	mv	a5,a0
    8000167a:	0007de63          	bgez	a5,80001696 <ftoa+0xae>
    8000167e:	fe042783          	lw	a5,-32(s0)
    80001682:	fb043703          	ld	a4,-80(s0)
    80001686:	97ba                	add	a5,a5,a4
    80001688:	02d00713          	li	a4,45
    8000168c:	00e78023          	sb	a4,0(a5)
    80001690:	4785                	li	a5,1
    80001692:	fef42023          	sw	a5,-32(s0)
    80001696:	fe842783          	lw	a5,-24(s0)
    8000169a:	2781                	sext.w	a5,a5
    8000169c:	e385                	bnez	a5,800016bc <ftoa+0xd4>
    8000169e:	fe042783          	lw	a5,-32(s0)
    800016a2:	fb043703          	ld	a4,-80(s0)
    800016a6:	97ba                	add	a5,a5,a4
    800016a8:	03000713          	li	a4,48
    800016ac:	00e78023          	sb	a4,0(a5)
    800016b0:	fe042783          	lw	a5,-32(s0)
    800016b4:	2785                	addiw	a5,a5,1
    800016b6:	fef42023          	sw	a5,-32(s0)
    800016ba:	a099                	j	80001700 <ftoa+0x118>
    800016bc:	fe842783          	lw	a5,-24(s0)
    800016c0:	2781                	sext.w	a5,a5
    800016c2:	0007d863          	bgez	a5,800016d2 <ftoa+0xea>
    800016c6:	fe842783          	lw	a5,-24(s0)
    800016ca:	40f007bb          	negw	a5,a5
    800016ce:	fef42423          	sw	a5,-24(s0)
    800016d2:	fc040713          	addi	a4,s0,-64
    800016d6:	fe842783          	lw	a5,-24(s0)
    800016da:	4601                	li	a2,0
    800016dc:	85ba                	mv	a1,a4
    800016de:	853e                	mv	a0,a5
    800016e0:	e45ff0ef          	jal	80001524 <int_to_string>
    800016e4:	87aa                	mv	a5,a0
    800016e6:	fef42623          	sw	a5,-20(s0)
    800016ea:	fe042783          	lw	a5,-32(s0)
    800016ee:	fb043703          	ld	a4,-80(s0)
    800016f2:	97ba                	add	a5,a5,a4
    800016f4:	fc040713          	addi	a4,s0,-64
    800016f8:	85ba                	mv	a1,a4
    800016fa:	853e                	mv	a0,a5
    800016fc:	4fe020ef          	jal	80003bfa <strcpy>
    80001700:	fec42783          	lw	a5,-20(s0)
    80001704:	873e                	mv	a4,a5
    80001706:	fe042783          	lw	a5,-32(s0)
    8000170a:	9fb9                	addw	a5,a5,a4
    8000170c:	fef42623          	sw	a5,-20(s0)
    80001710:	fb842783          	lw	a5,-72(s0)
    80001714:	2781                	sext.w	a5,a5
    80001716:	c7c1                	beqz	a5,8000179e <ftoa+0x1b6>
    80001718:	fec42783          	lw	a5,-20(s0)
    8000171c:	fb043703          	ld	a4,-80(s0)
    80001720:	97ba                	add	a5,a5,a4
    80001722:	02e00713          	li	a4,46
    80001726:	00e78023          	sb	a4,0(a5)
    8000172a:	00000593          	li	a1,0
    8000172e:	fe442503          	lw	a0,-28(s0)
    80001732:	391010ef          	jal	800032c2 <__lesf2>
    80001736:	87aa                	mv	a5,a0
    80001738:	0007db63          	bgez	a5,8000174e <ftoa+0x166>
    8000173c:	fe442783          	lw	a5,-28(s0)
    80001740:	873e                	mv	a4,a5
    80001742:	800007b7          	lui	a5,0x80000
    80001746:	8fb9                	xor	a5,a5,a4
    80001748:	fef42223          	sw	a5,-28(s0)
    8000174c:	a039                	j	8000175a <ftoa+0x172>
    8000174e:	00000593          	li	a1,0
    80001752:	fe442503          	lw	a0,-28(s0)
    80001756:	2ff010ef          	jal	80003254 <__eqsf2>
    8000175a:	fb842783          	lw	a5,-72(s0)
    8000175e:	853e                	mv	a0,a5
    80001760:	cd3ff0ef          	jal	80001432 <pow_10>
    80001764:	87aa                	mv	a5,a0
    80001766:	85be                	mv	a1,a5
    80001768:	fe442503          	lw	a0,-28(s0)
    8000176c:	3d7010ef          	jal	80003342 <__mulsf3>
    80001770:	87aa                	mv	a5,a0
    80001772:	fef42223          	sw	a5,-28(s0)
    80001776:	fe442503          	lw	a0,-28(s0)
    8000177a:	118020ef          	jal	80003892 <__fixsfsi>
    8000177e:	87aa                	mv	a5,a0
    80001780:	0007869b          	sext.w	a3,a5
    80001784:	fec42783          	lw	a5,-20(s0)
    80001788:	0785                	addi	a5,a5,1 # ffffffff80000001 <__stack_pointer$+0xfffffffef8000401>
    8000178a:	fb043703          	ld	a4,-80(s0)
    8000178e:	97ba                	add	a5,a5,a4
    80001790:	fb842703          	lw	a4,-72(s0)
    80001794:	863a                	mv	a2,a4
    80001796:	85be                	mv	a1,a5
    80001798:	8536                	mv	a0,a3
    8000179a:	d8bff0ef          	jal	80001524 <int_to_string>
    8000179e:	0001                	nop
    800017a0:	60a6                	ld	ra,72(sp)
    800017a2:	6406                	ld	s0,64(sp)
    800017a4:	6161                	addi	sp,sp,80
    800017a6:	8082                	ret

00000000800017a8 <delay_loop>:
    800017a8:	7179                	addi	sp,sp,-48
    800017aa:	f422                	sd	s0,40(sp)
    800017ac:	1800                	addi	s0,sp,48
    800017ae:	fca43c23          	sd	a0,-40(s0)
    800017b2:	fcb43823          	sd	a1,-48(s0)
    800017b6:	fd043783          	ld	a5,-48(s0)
    800017ba:	fef43423          	sd	a5,-24(s0)
    800017be:	a829                	j	800017d8 <delay_loop+0x30>
    800017c0:	fd043783          	ld	a5,-48(s0)
    800017c4:	fef43423          	sd	a5,-24(s0)
    800017c8:	0001                	nop
    800017ca:	fe843783          	ld	a5,-24(s0)
    800017ce:	fff78713          	addi	a4,a5,-1
    800017d2:	fee43423          	sd	a4,-24(s0)
    800017d6:	fbf5                	bnez	a5,800017ca <delay_loop+0x22>
    800017d8:	fd843783          	ld	a5,-40(s0)
    800017dc:	fff78713          	addi	a4,a5,-1
    800017e0:	fce43c23          	sd	a4,-40(s0)
    800017e4:	fff1                	bnez	a5,800017c0 <delay_loop+0x18>
    800017e6:	0001                	nop
    800017e8:	0001                	nop
    800017ea:	7422                	ld	s0,40(sp)
    800017ec:	6145                	addi	sp,sp,48
    800017ee:	8082                	ret

00000000800017f0 <read_word>:
    800017f0:	1101                	addi	sp,sp,-32
    800017f2:	ec06                	sd	ra,24(sp)
    800017f4:	e822                	sd	s0,16(sp)
    800017f6:	1000                	addi	s0,sp,32
    800017f8:	fea43423          	sd	a0,-24(s0)
    800017fc:	fe843783          	ld	a5,-24(s0)
    80001800:	439c                	lw	a5,0(a5)
    80001802:	863e                	mv	a2,a5
    80001804:	fe843583          	ld	a1,-24(s0)
    80001808:	00002517          	auipc	a0,0x2
    8000180c:	66850513          	addi	a0,a0,1640 # 80003e70 <__rodata_start+0x1c8>
    80001810:	b31fe0ef          	jal	80000340 <log_debug>
    80001814:	fe843783          	ld	a5,-24(s0)
    80001818:	439c                	lw	a5,0(a5)
    8000181a:	1782                	slli	a5,a5,0x20
    8000181c:	9381                	srli	a5,a5,0x20
    8000181e:	853e                	mv	a0,a5
    80001820:	60e2                	ld	ra,24(sp)
    80001822:	6442                	ld	s0,16(sp)
    80001824:	6105                	addi	sp,sp,32
    80001826:	8082                	ret

0000000080001828 <write_word>:
    80001828:	1101                	addi	sp,sp,-32
    8000182a:	ec06                	sd	ra,24(sp)
    8000182c:	e822                	sd	s0,16(sp)
    8000182e:	1000                	addi	s0,sp,32
    80001830:	fea43423          	sd	a0,-24(s0)
    80001834:	feb43023          	sd	a1,-32(s0)
    80001838:	fe043783          	ld	a5,-32(s0)
    8000183c:	0007871b          	sext.w	a4,a5
    80001840:	fe843783          	ld	a5,-24(s0)
    80001844:	c398                	sw	a4,0(a5)
    80001846:	fe843783          	ld	a5,-24(s0)
    8000184a:	439c                	lw	a5,0(a5)
    8000184c:	863e                	mv	a2,a5
    8000184e:	fe843583          	ld	a1,-24(s0)
    80001852:	00002517          	auipc	a0,0x2
    80001856:	61e50513          	addi	a0,a0,1566 # 80003e70 <__rodata_start+0x1c8>
    8000185a:	ae7fe0ef          	jal	80000340 <log_debug>
    8000185e:	0001                	nop
    80001860:	60e2                	ld	ra,24(sp)
    80001862:	6442                	ld	s0,16(sp)
    80001864:	6105                	addi	sp,sp,32
    80001866:	8082                	ret

0000000080001868 <mtime_low>:
    80001868:	1141                	addi	sp,sp,-16
    8000186a:	e422                	sd	s0,8(sp)
    8000186c:	0800                	addi	s0,sp,16
    8000186e:	0200c7b7          	lui	a5,0x200c
    80001872:	17e1                	addi	a5,a5,-8 # 200bff8 <_tbss_end+0x200bff8>
    80001874:	439c                	lw	a5,0(a5)
    80001876:	853e                	mv	a0,a5
    80001878:	6422                	ld	s0,8(sp)
    8000187a:	0141                	addi	sp,sp,16
    8000187c:	8082                	ret

000000008000187e <mtime_high>:
    8000187e:	1141                	addi	sp,sp,-16
    80001880:	e422                	sd	s0,8(sp)
    80001882:	0800                	addi	s0,sp,16
    80001884:	0200c7b7          	lui	a5,0x200c
    80001888:	17f1                	addi	a5,a5,-4 # 200bffc <_tbss_end+0x200bffc>
    8000188a:	439c                	lw	a5,0(a5)
    8000188c:	2781                	sext.w	a5,a5
    8000188e:	853e                	mv	a0,a5
    80001890:	6422                	ld	s0,8(sp)
    80001892:	0141                	addi	sp,sp,16
    80001894:	8082                	ret

0000000080001896 <get_timer_value>:
    80001896:	1101                	addi	sp,sp,-32
    80001898:	ec06                	sd	ra,24(sp)
    8000189a:	e822                	sd	s0,16(sp)
    8000189c:	e426                	sd	s1,8(sp)
    8000189e:	1000                	addi	s0,sp,32
    800018a0:	fdfff0ef          	jal	8000187e <mtime_high>
    800018a4:	87aa                	mv	a5,a0
    800018a6:	2781                	sext.w	a5,a5
    800018a8:	1782                	slli	a5,a5,0x20
    800018aa:	9381                	srli	a5,a5,0x20
    800018ac:	02079493          	slli	s1,a5,0x20
    800018b0:	fb9ff0ef          	jal	80001868 <mtime_low>
    800018b4:	87aa                	mv	a5,a0
    800018b6:	2781                	sext.w	a5,a5
    800018b8:	1782                	slli	a5,a5,0x20
    800018ba:	9381                	srli	a5,a5,0x20
    800018bc:	8fc5                	or	a5,a5,s1
    800018be:	853e                	mv	a0,a5
    800018c0:	60e2                	ld	ra,24(sp)
    800018c2:	6442                	ld	s0,16(sp)
    800018c4:	64a2                	ld	s1,8(sp)
    800018c6:	6105                	addi	sp,sp,32
    800018c8:	8082                	ret

00000000800018ca <configure_counter>:
    800018ca:	1101                	addi	sp,sp,-32
    800018cc:	ec06                	sd	ra,24(sp)
    800018ce:	e822                	sd	s0,16(sp)
    800018d0:	1000                	addi	s0,sp,32
    800018d2:	fea43423          	sd	a0,-24(s0)
    800018d6:	00002517          	auipc	a0,0x2
    800018da:	5ba50513          	addi	a0,a0,1466 # 80003e90 <__rodata_start+0x1e8>
    800018de:	9f5fe0ef          	jal	800002d2 <log_trace>
    800018e2:	82018793          	addi	a5,gp,-2016 # 80004cc0 <mtime>
    800018e6:	639c                	ld	a5,0(a5)
    800018e8:	6394                	ld	a3,0(a5)
    800018ea:	82818793          	addi	a5,gp,-2008 # 80004cc8 <mtimecmp>
    800018ee:	639c                	ld	a5,0(a5)
    800018f0:	fe843703          	ld	a4,-24(s0)
    800018f4:	9736                	add	a4,a4,a3
    800018f6:	e398                	sd	a4,0(a5)
    800018f8:	82818793          	addi	a5,gp,-2008 # 80004cc8 <mtimecmp>
    800018fc:	639c                	ld	a5,0(a5)
    800018fe:	639c                	ld	a5,0(a5)
    80001900:	85be                	mv	a1,a5
    80001902:	00002517          	auipc	a0,0x2
    80001906:	5ae50513          	addi	a0,a0,1454 # 80003eb0 <__rodata_start+0x208>
    8000190a:	a37fe0ef          	jal	80000340 <log_debug>
    8000190e:	82018793          	addi	a5,gp,-2016 # 80004cc0 <mtime>
    80001912:	639c                	ld	a5,0(a5)
    80001914:	639c                	ld	a5,0(a5)
    80001916:	85be                	mv	a1,a5
    80001918:	00002517          	auipc	a0,0x2
    8000191c:	5b050513          	addi	a0,a0,1456 # 80003ec8 <__rodata_start+0x220>
    80001920:	a21fe0ef          	jal	80000340 <log_debug>
    80001924:	00002517          	auipc	a0,0x2
    80001928:	5bc50513          	addi	a0,a0,1468 # 80003ee0 <__rodata_start+0x238>
    8000192c:	9a7fe0ef          	jal	800002d2 <log_trace>
    80001930:	0001                	nop
    80001932:	60e2                	ld	ra,24(sp)
    80001934:	6442                	ld	s0,16(sp)
    80001936:	6105                	addi	sp,sp,32
    80001938:	8082                	ret

000000008000193a <mach_clint_handler>:
    8000193a:	1101                	addi	sp,sp,-32
    8000193c:	ec06                	sd	ra,24(sp)
    8000193e:	e822                	sd	s0,16(sp)
    80001940:	1000                	addi	s0,sp,32
    80001942:	fea43423          	sd	a0,-24(s0)
    80001946:	feb43023          	sd	a1,-32(s0)
    8000194a:	00002517          	auipc	a0,0x2
    8000194e:	5b650513          	addi	a0,a0,1462 # 80003f00 <__rodata_start+0x258>
    80001952:	981fe0ef          	jal	800002d2 <log_trace>
    80001956:	00002517          	auipc	a0,0x2
    8000195a:	5ca50513          	addi	a0,a0,1482 # 80003f20 <__rodata_start+0x278>
    8000195e:	f6bfe0ef          	jal	800008c8 <printf>
    80001962:	000307b7          	lui	a5,0x30
    80001966:	af078513          	addi	a0,a5,-1296 # 2faf0 <_tbss_end+0x2faf0>
    8000196a:	f61ff0ef          	jal	800018ca <configure_counter>
    8000196e:	00002517          	auipc	a0,0x2
    80001972:	5ca50513          	addi	a0,a0,1482 # 80003f38 <__rodata_start+0x290>
    80001976:	981fe0ef          	jal	800002f6 <log_info>
    8000197a:	00002517          	auipc	a0,0x2
    8000197e:	5de50513          	addi	a0,a0,1502 # 80003f58 <__rodata_start+0x2b0>
    80001982:	951fe0ef          	jal	800002d2 <log_trace>
    80001986:	0001                	nop
    80001988:	60e2                	ld	ra,24(sp)
    8000198a:	6442                	ld	s0,16(sp)
    8000198c:	6105                	addi	sp,sp,32
    8000198e:	8082                	ret

0000000080001990 <interrupt_complete>:
    80001990:	7179                	addi	sp,sp,-48
    80001992:	f406                	sd	ra,40(sp)
    80001994:	f022                	sd	s0,32(sp)
    80001996:	1800                	addi	s0,sp,48
    80001998:	87aa                	mv	a5,a0
    8000199a:	fcf42e23          	sw	a5,-36(s0)
    8000199e:	00002517          	auipc	a0,0x2
    800019a2:	5da50513          	addi	a0,a0,1498 # 80003f78 <__rodata_start+0x2d0>
    800019a6:	92dfe0ef          	jal	800002d2 <log_trace>
    800019aa:	0c0107b7          	lui	a5,0xc010
    800019ae:	07c1                	addi	a5,a5,16 # c010010 <_free_space+0x401c9e8>
    800019b0:	fef43423          	sd	a5,-24(s0)
    800019b4:	fe843783          	ld	a5,-24(s0)
    800019b8:	fdc42703          	lw	a4,-36(s0)
    800019bc:	c398                	sw	a4,0(a5)
    800019be:	0000b717          	auipc	a4,0xb
    800019c2:	a5a70713          	addi	a4,a4,-1446 # 8000c418 <hart0_interrupt_matrix>
    800019c6:	fdc46783          	lwu	a5,-36(s0)
    800019ca:	0792                	slli	a5,a5,0x4
    800019cc:	97ba                	add	a5,a5,a4
    800019ce:	4709                	li	a4,2
    800019d0:	c798                	sw	a4,8(a5)
    800019d2:	0000b717          	auipc	a4,0xb
    800019d6:	a4670713          	addi	a4,a4,-1466 # 8000c418 <hart0_interrupt_matrix>
    800019da:	fdc46783          	lwu	a5,-36(s0)
    800019de:	0792                	slli	a5,a5,0x4
    800019e0:	97ba                	add	a5,a5,a4
    800019e2:	47dc                	lw	a5,12(a5)
    800019e4:	2785                	addiw	a5,a5,1
    800019e6:	0007871b          	sext.w	a4,a5
    800019ea:	0000b697          	auipc	a3,0xb
    800019ee:	a2e68693          	addi	a3,a3,-1490 # 8000c418 <hart0_interrupt_matrix>
    800019f2:	fdc46783          	lwu	a5,-36(s0)
    800019f6:	0792                	slli	a5,a5,0x4
    800019f8:	97b6                	add	a5,a5,a3
    800019fa:	c7d8                	sw	a4,12(a5)
    800019fc:	0000b717          	auipc	a4,0xb
    80001a00:	a1c70713          	addi	a4,a4,-1508 # 8000c418 <hart0_interrupt_matrix>
    80001a04:	fdc46783          	lwu	a5,-36(s0)
    80001a08:	0792                	slli	a5,a5,0x4
    80001a0a:	97ba                	add	a5,a5,a4
    80001a0c:	4798                	lw	a4,8(a5)
    80001a0e:	fdc42783          	lw	a5,-36(s0)
    80001a12:	863a                	mv	a2,a4
    80001a14:	85be                	mv	a1,a5
    80001a16:	00002517          	auipc	a0,0x2
    80001a1a:	58250513          	addi	a0,a0,1410 # 80003f98 <__rodata_start+0x2f0>
    80001a1e:	923fe0ef          	jal	80000340 <log_debug>
    80001a22:	0000b717          	auipc	a4,0xb
    80001a26:	9f670713          	addi	a4,a4,-1546 # 8000c418 <hart0_interrupt_matrix>
    80001a2a:	fdc46783          	lwu	a5,-36(s0)
    80001a2e:	0792                	slli	a5,a5,0x4
    80001a30:	97ba                	add	a5,a5,a4
    80001a32:	438c                	lw	a1,0(a5)
    80001a34:	0000b717          	auipc	a4,0xb
    80001a38:	9e470713          	addi	a4,a4,-1564 # 8000c418 <hart0_interrupt_matrix>
    80001a3c:	fdc46783          	lwu	a5,-36(s0)
    80001a40:	0792                	slli	a5,a5,0x4
    80001a42:	97ba                	add	a5,a5,a4
    80001a44:	4790                	lw	a2,8(a5)
    80001a46:	0000b717          	auipc	a4,0xb
    80001a4a:	9d270713          	addi	a4,a4,-1582 # 8000c418 <hart0_interrupt_matrix>
    80001a4e:	fdc46783          	lwu	a5,-36(s0)
    80001a52:	0792                	slli	a5,a5,0x4
    80001a54:	97ba                	add	a5,a5,a4
    80001a56:	43d4                	lw	a3,4(a5)
    80001a58:	0000b717          	auipc	a4,0xb
    80001a5c:	9c070713          	addi	a4,a4,-1600 # 8000c418 <hart0_interrupt_matrix>
    80001a60:	fdc46783          	lwu	a5,-36(s0)
    80001a64:	0792                	slli	a5,a5,0x4
    80001a66:	97ba                	add	a5,a5,a4
    80001a68:	47dc                	lw	a5,12(a5)
    80001a6a:	873e                	mv	a4,a5
    80001a6c:	00002517          	auipc	a0,0x2
    80001a70:	55450513          	addi	a0,a0,1364 # 80003fc0 <__rodata_start+0x318>
    80001a74:	8cdfe0ef          	jal	80000340 <log_debug>
    80001a78:	00002517          	auipc	a0,0x2
    80001a7c:	5a050513          	addi	a0,a0,1440 # 80004018 <__rodata_start+0x370>
    80001a80:	853fe0ef          	jal	800002d2 <log_trace>
    80001a84:	0001                	nop
    80001a86:	70a2                	ld	ra,40(sp)
    80001a88:	7402                	ld	s0,32(sp)
    80001a8a:	6145                	addi	sp,sp,48
    80001a8c:	8082                	ret

0000000080001a8e <interrupt_claim_request>:
    80001a8e:	1101                	addi	sp,sp,-32
    80001a90:	ec06                	sd	ra,24(sp)
    80001a92:	e822                	sd	s0,16(sp)
    80001a94:	1000                	addi	s0,sp,32
    80001a96:	fe043423          	sd	zero,-24(s0)
    80001a9a:	00002517          	auipc	a0,0x2
    80001a9e:	59e50513          	addi	a0,a0,1438 # 80004038 <__rodata_start+0x390>
    80001aa2:	831fe0ef          	jal	800002d2 <log_trace>
    80001aa6:	0c0107b7          	lui	a5,0xc010
    80001aaa:	07c1                	addi	a5,a5,16 # c010010 <_free_space+0x401c9e8>
    80001aac:	fef43423          	sd	a5,-24(s0)
    80001ab0:	fe843783          	ld	a5,-24(s0)
    80001ab4:	439c                	lw	a5,0(a5)
    80001ab6:	fef42223          	sw	a5,-28(s0)
    80001aba:	fe442783          	lw	a5,-28(s0)
    80001abe:	fe843603          	ld	a2,-24(s0)
    80001ac2:	85be                	mv	a1,a5
    80001ac4:	00002517          	auipc	a0,0x2
    80001ac8:	59c50513          	addi	a0,a0,1436 # 80004060 <__rodata_start+0x3b8>
    80001acc:	875fe0ef          	jal	80000340 <log_debug>
    80001ad0:	00002517          	auipc	a0,0x2
    80001ad4:	5c050513          	addi	a0,a0,1472 # 80004090 <__rodata_start+0x3e8>
    80001ad8:	ffafe0ef          	jal	800002d2 <log_trace>
    80001adc:	fe442783          	lw	a5,-28(s0)
    80001ae0:	853e                	mv	a0,a5
    80001ae2:	60e2                	ld	ra,24(sp)
    80001ae4:	6442                	ld	s0,16(sp)
    80001ae6:	6105                	addi	sp,sp,32
    80001ae8:	8082                	ret

0000000080001aea <mach_plic_handler>:
    80001aea:	7179                	addi	sp,sp,-48
    80001aec:	f406                	sd	ra,40(sp)
    80001aee:	f022                	sd	s0,32(sp)
    80001af0:	1800                	addi	s0,sp,48
    80001af2:	fca43c23          	sd	a0,-40(s0)
    80001af6:	fcb43823          	sd	a1,-48(s0)
    80001afa:	00002517          	auipc	a0,0x2
    80001afe:	5b650513          	addi	a0,a0,1462 # 800040b0 <__rodata_start+0x408>
    80001b02:	fd0fe0ef          	jal	800002d2 <log_trace>
    80001b06:	f89ff0ef          	jal	80001a8e <interrupt_claim_request>
    80001b0a:	87aa                	mv	a5,a0
    80001b0c:	fef42623          	sw	a5,-20(s0)
    80001b10:	fec42783          	lw	a5,-20(s0)
    80001b14:	85be                	mv	a1,a5
    80001b16:	00002517          	auipc	a0,0x2
    80001b1a:	5ba50513          	addi	a0,a0,1466 # 800040d0 <__rodata_start+0x428>
    80001b1e:	823fe0ef          	jal	80000340 <log_debug>
    80001b22:	fec42783          	lw	a5,-20(s0)
    80001b26:	2781                	sext.w	a5,a5
    80001b28:	cb81                	beqz	a5,80001b38 <mach_plic_handler+0x4e>
    80001b2a:	fec42783          	lw	a5,-20(s0)
    80001b2e:	0007871b          	sext.w	a4,a5
    80001b32:	47f1                	li	a5,28
    80001b34:	00e7fb63          	bgeu	a5,a4,80001b4a <mach_plic_handler+0x60>
    80001b38:	fec42783          	lw	a5,-20(s0)
    80001b3c:	85be                	mv	a1,a5
    80001b3e:	00002517          	auipc	a0,0x2
    80001b42:	5b250513          	addi	a0,a0,1458 # 800040f0 <__rodata_start+0x448>
    80001b46:	8b3fe0ef          	jal	800003f8 <log_fatal>
    80001b4a:	0000b717          	auipc	a4,0xb
    80001b4e:	8ce70713          	addi	a4,a4,-1842 # 8000c418 <hart0_interrupt_matrix>
    80001b52:	fec46783          	lwu	a5,-20(s0)
    80001b56:	0792                	slli	a5,a5,0x4
    80001b58:	97ba                	add	a5,a5,a4
    80001b5a:	4705                	li	a4,1
    80001b5c:	c798                	sw	a4,8(a5)
    80001b5e:	0000b717          	auipc	a4,0xb
    80001b62:	8ba70713          	addi	a4,a4,-1862 # 8000c418 <hart0_interrupt_matrix>
    80001b66:	fec46783          	lwu	a5,-20(s0)
    80001b6a:	0792                	slli	a5,a5,0x4
    80001b6c:	97ba                	add	a5,a5,a4
    80001b6e:	4798                	lw	a4,8(a5)
    80001b70:	fec42783          	lw	a5,-20(s0)
    80001b74:	863a                	mv	a2,a4
    80001b76:	85be                	mv	a1,a5
    80001b78:	00002517          	auipc	a0,0x2
    80001b7c:	42050513          	addi	a0,a0,1056 # 80003f98 <__rodata_start+0x2f0>
    80001b80:	fc0fe0ef          	jal	80000340 <log_debug>
    80001b84:	0000a717          	auipc	a4,0xa
    80001b88:	7b470713          	addi	a4,a4,1972 # 8000c338 <isr_table>
    80001b8c:	fec46783          	lwu	a5,-20(s0)
    80001b90:	078e                	slli	a5,a5,0x3
    80001b92:	97ba                	add	a5,a5,a4
    80001b94:	639c                	ld	a5,0(a5)
    80001b96:	fec42703          	lw	a4,-20(s0)
    80001b9a:	853a                	mv	a0,a4
    80001b9c:	9782                	jalr	a5
    80001b9e:	fec42783          	lw	a5,-20(s0)
    80001ba2:	853e                	mv	a0,a5
    80001ba4:	dedff0ef          	jal	80001990 <interrupt_complete>
    80001ba8:	fec42783          	lw	a5,-20(s0)
    80001bac:	85be                	mv	a1,a5
    80001bae:	00002517          	auipc	a0,0x2
    80001bb2:	57a50513          	addi	a0,a0,1402 # 80004128 <__rodata_start+0x480>
    80001bb6:	f8afe0ef          	jal	80000340 <log_debug>
    80001bba:	00002517          	auipc	a0,0x2
    80001bbe:	58e50513          	addi	a0,a0,1422 # 80004148 <__rodata_start+0x4a0>
    80001bc2:	f10fe0ef          	jal	800002d2 <log_trace>
    80001bc6:	0001                	nop
    80001bc8:	70a2                	ld	ra,40(sp)
    80001bca:	7402                	ld	s0,32(sp)
    80001bcc:	6145                	addi	sp,sp,48
    80001bce:	8082                	ret

0000000080001bd0 <isr_default>:
    80001bd0:	1101                	addi	sp,sp,-32
    80001bd2:	ec06                	sd	ra,24(sp)
    80001bd4:	e822                	sd	s0,16(sp)
    80001bd6:	1000                	addi	s0,sp,32
    80001bd8:	87aa                	mv	a5,a0
    80001bda:	fef42623          	sw	a5,-20(s0)
    80001bde:	00002517          	auipc	a0,0x2
    80001be2:	58a50513          	addi	a0,a0,1418 # 80004168 <__rodata_start+0x4c0>
    80001be6:	eecfe0ef          	jal	800002d2 <log_trace>
    80001bea:	fec42783          	lw	a5,-20(s0)
    80001bee:	2781                	sext.w	a5,a5
    80001bf0:	cf95                	beqz	a5,80001c2c <isr_default+0x5c>
    80001bf2:	fec42783          	lw	a5,-20(s0)
    80001bf6:	0007871b          	sext.w	a4,a5
    80001bfa:	4799                	li	a5,6
    80001bfc:	02e7e863          	bltu	a5,a4,80001c2c <isr_default+0x5c>
    80001c00:	4799                	li	a5,6
    80001c02:	fec42703          	lw	a4,-20(s0)
    80001c06:	9f99                	subw	a5,a5,a4
    80001c08:	2781                	sext.w	a5,a5
    80001c0a:	2781                	sext.w	a5,a5
    80001c0c:	853e                	mv	a0,a5
    80001c0e:	752000ef          	jal	80002360 <pwm_check_continuous_mode>
    80001c12:	87aa                	mv	a5,a0
    80001c14:	ef81                	bnez	a5,80001c2c <isr_default+0x5c>
    80001c16:	4799                	li	a5,6
    80001c18:	fec42703          	lw	a4,-20(s0)
    80001c1c:	9f99                	subw	a5,a5,a4
    80001c1e:	2781                	sext.w	a5,a5
    80001c20:	2781                	sext.w	a5,a5
    80001c22:	08000593          	li	a1,128
    80001c26:	853e                	mv	a0,a5
    80001c28:	6b2000ef          	jal	800022da <set_pwm_control_register>
    80001c2c:	fec42783          	lw	a5,-20(s0)
    80001c30:	85be                	mv	a1,a5
    80001c32:	00002517          	auipc	a0,0x2
    80001c36:	54e50513          	addi	a0,a0,1358 # 80004180 <__rodata_start+0x4d8>
    80001c3a:	ebcfe0ef          	jal	800002f6 <log_info>
    80001c3e:	00002517          	auipc	a0,0x2
    80001c42:	56250513          	addi	a0,a0,1378 # 800041a0 <__rodata_start+0x4f8>
    80001c46:	e8cfe0ef          	jal	800002d2 <log_trace>
    80001c4a:	0001                	nop
    80001c4c:	60e2                	ld	ra,24(sp)
    80001c4e:	6442                	ld	s0,16(sp)
    80001c50:	6105                	addi	sp,sp,32
    80001c52:	8082                	ret

0000000080001c54 <interrupt_enable>:
    80001c54:	7139                	addi	sp,sp,-64
    80001c56:	fc06                	sd	ra,56(sp)
    80001c58:	f822                	sd	s0,48(sp)
    80001c5a:	0080                	addi	s0,sp,64
    80001c5c:	87aa                	mv	a5,a0
    80001c5e:	fcf42623          	sw	a5,-52(s0)
    80001c62:	fe0407a3          	sb	zero,-17(s0)
    80001c66:	00002517          	auipc	a0,0x2
    80001c6a:	55250513          	addi	a0,a0,1362 # 800041b8 <__rodata_start+0x510>
    80001c6e:	e64fe0ef          	jal	800002d2 <log_trace>
    80001c72:	fcc42783          	lw	a5,-52(s0)
    80001c76:	85be                	mv	a1,a5
    80001c78:	00002517          	auipc	a0,0x2
    80001c7c:	56050513          	addi	a0,a0,1376 # 800041d8 <__rodata_start+0x530>
    80001c80:	ec0fe0ef          	jal	80000340 <log_debug>
    80001c84:	6609                	lui	a2,0x2
    80001c86:	0c0005b7          	lui	a1,0xc000
    80001c8a:	00002517          	auipc	a0,0x2
    80001c8e:	56650513          	addi	a0,a0,1382 # 800041f0 <__rodata_start+0x548>
    80001c92:	eaefe0ef          	jal	80000340 <log_debug>
    80001c96:	fcc42783          	lw	a5,-52(s0)
    80001c9a:	0037d79b          	srliw	a5,a5,0x3
    80001c9e:	2781                	sext.w	a5,a5
    80001ca0:	02079713          	slli	a4,a5,0x20
    80001ca4:	9301                	srli	a4,a4,0x20
    80001ca6:	0c0027b7          	lui	a5,0xc002
    80001caa:	97ba                	add	a5,a5,a4
    80001cac:	fef43023          	sd	a5,-32(s0)
    80001cb0:	fe043783          	ld	a5,-32(s0)
    80001cb4:	0007c783          	lbu	a5,0(a5) # c002000 <_free_space+0x400e9d8>
    80001cb8:	fef407a3          	sb	a5,-17(s0)
    80001cbc:	fef44783          	lbu	a5,-17(s0)
    80001cc0:	2781                	sext.w	a5,a5
    80001cc2:	863e                	mv	a2,a5
    80001cc4:	fe043583          	ld	a1,-32(s0)
    80001cc8:	00002517          	auipc	a0,0x2
    80001ccc:	56050513          	addi	a0,a0,1376 # 80004228 <__rodata_start+0x580>
    80001cd0:	e70fe0ef          	jal	80000340 <log_debug>
    80001cd4:	fcc42783          	lw	a5,-52(s0)
    80001cd8:	8b9d                	andi	a5,a5,7
    80001cda:	2781                	sext.w	a5,a5
    80001cdc:	4705                	li	a4,1
    80001cde:	00f717bb          	sllw	a5,a4,a5
    80001ce2:	2781                	sext.w	a5,a5
    80001ce4:	0187971b          	slliw	a4,a5,0x18
    80001ce8:	4187571b          	sraiw	a4,a4,0x18
    80001cec:	fef40783          	lb	a5,-17(s0)
    80001cf0:	8fd9                	or	a5,a5,a4
    80001cf2:	0187979b          	slliw	a5,a5,0x18
    80001cf6:	4187d79b          	sraiw	a5,a5,0x18
    80001cfa:	fcf40fa3          	sb	a5,-33(s0)
    80001cfe:	fe043783          	ld	a5,-32(s0)
    80001d02:	fdf44703          	lbu	a4,-33(s0)
    80001d06:	00e78023          	sb	a4,0(a5)
    80001d0a:	fdf44783          	lbu	a5,-33(s0)
    80001d0e:	2781                	sext.w	a5,a5
    80001d10:	85be                	mv	a1,a5
    80001d12:	00002517          	auipc	a0,0x2
    80001d16:	54650513          	addi	a0,a0,1350 # 80004258 <__rodata_start+0x5b0>
    80001d1a:	e26fe0ef          	jal	80000340 <log_debug>
    80001d1e:	00002517          	auipc	a0,0x2
    80001d22:	55a50513          	addi	a0,a0,1370 # 80004278 <__rodata_start+0x5d0>
    80001d26:	dacfe0ef          	jal	800002d2 <log_trace>
    80001d2a:	0001                	nop
    80001d2c:	70e2                	ld	ra,56(sp)
    80001d2e:	7442                	ld	s0,48(sp)
    80001d30:	6121                	addi	sp,sp,64
    80001d32:	8082                	ret

0000000080001d34 <interrupt_disable>:
    80001d34:	7179                	addi	sp,sp,-48
    80001d36:	f406                	sd	ra,40(sp)
    80001d38:	f022                	sd	s0,32(sp)
    80001d3a:	1800                	addi	s0,sp,48
    80001d3c:	87aa                	mv	a5,a0
    80001d3e:	fcf42e23          	sw	a5,-36(s0)
    80001d42:	fe043423          	sd	zero,-24(s0)
    80001d46:	fe0403a3          	sb	zero,-25(s0)
    80001d4a:	00002517          	auipc	a0,0x2
    80001d4e:	54e50513          	addi	a0,a0,1358 # 80004298 <__rodata_start+0x5f0>
    80001d52:	d80fe0ef          	jal	800002d2 <log_trace>
    80001d56:	fdc42783          	lw	a5,-36(s0)
    80001d5a:	85be                	mv	a1,a5
    80001d5c:	00002517          	auipc	a0,0x2
    80001d60:	47c50513          	addi	a0,a0,1148 # 800041d8 <__rodata_start+0x530>
    80001d64:	ddcfe0ef          	jal	80000340 <log_debug>
    80001d68:	fdc42783          	lw	a5,-36(s0)
    80001d6c:	86be                	mv	a3,a5
    80001d6e:	6609                	lui	a2,0x2
    80001d70:	0c0005b7          	lui	a1,0xc000
    80001d74:	00002517          	auipc	a0,0x2
    80001d78:	54450513          	addi	a0,a0,1348 # 800042b8 <__rodata_start+0x610>
    80001d7c:	dc4fe0ef          	jal	80000340 <log_debug>
    80001d80:	fdc42783          	lw	a5,-36(s0)
    80001d84:	0037d79b          	srliw	a5,a5,0x3
    80001d88:	2781                	sext.w	a5,a5
    80001d8a:	02079713          	slli	a4,a5,0x20
    80001d8e:	9301                	srli	a4,a4,0x20
    80001d90:	0c0027b7          	lui	a5,0xc002
    80001d94:	97ba                	add	a5,a5,a4
    80001d96:	fef43423          	sd	a5,-24(s0)
    80001d9a:	fe843783          	ld	a5,-24(s0)
    80001d9e:	0007c783          	lbu	a5,0(a5) # c002000 <_free_space+0x400e9d8>
    80001da2:	fef403a3          	sb	a5,-25(s0)
    80001da6:	fe744783          	lbu	a5,-25(s0)
    80001daa:	2781                	sext.w	a5,a5
    80001dac:	863e                	mv	a2,a5
    80001dae:	fe843583          	ld	a1,-24(s0)
    80001db2:	00002517          	auipc	a0,0x2
    80001db6:	54e50513          	addi	a0,a0,1358 # 80004300 <__rodata_start+0x658>
    80001dba:	d86fe0ef          	jal	80000340 <log_debug>
    80001dbe:	fdc42783          	lw	a5,-36(s0)
    80001dc2:	8b9d                	andi	a5,a5,7
    80001dc4:	2781                	sext.w	a5,a5
    80001dc6:	4705                	li	a4,1
    80001dc8:	00f717bb          	sllw	a5,a4,a5
    80001dcc:	2781                	sext.w	a5,a5
    80001dce:	0187979b          	slliw	a5,a5,0x18
    80001dd2:	4187d79b          	sraiw	a5,a5,0x18
    80001dd6:	fff7c793          	not	a5,a5
    80001dda:	0187971b          	slliw	a4,a5,0x18
    80001dde:	4187571b          	sraiw	a4,a4,0x18
    80001de2:	fe740783          	lb	a5,-25(s0)
    80001de6:	8ff9                	and	a5,a5,a4
    80001de8:	0187979b          	slliw	a5,a5,0x18
    80001dec:	4187d79b          	sraiw	a5,a5,0x18
    80001df0:	fef40323          	sb	a5,-26(s0)
    80001df4:	fe843783          	ld	a5,-24(s0)
    80001df8:	fe644703          	lbu	a4,-26(s0)
    80001dfc:	00e78023          	sb	a4,0(a5)
    80001e00:	0000a717          	auipc	a4,0xa
    80001e04:	61870713          	addi	a4,a4,1560 # 8000c418 <hart0_interrupt_matrix>
    80001e08:	fdc46783          	lwu	a5,-36(s0)
    80001e0c:	0792                	slli	a5,a5,0x4
    80001e0e:	97ba                	add	a5,a5,a4
    80001e10:	0007a423          	sw	zero,8(a5)
    80001e14:	0000a717          	auipc	a4,0xa
    80001e18:	60470713          	addi	a4,a4,1540 # 8000c418 <hart0_interrupt_matrix>
    80001e1c:	fdc46783          	lwu	a5,-36(s0)
    80001e20:	0792                	slli	a5,a5,0x4
    80001e22:	97ba                	add	a5,a5,a4
    80001e24:	4798                	lw	a4,8(a5)
    80001e26:	fdc42783          	lw	a5,-36(s0)
    80001e2a:	863a                	mv	a2,a4
    80001e2c:	85be                	mv	a1,a5
    80001e2e:	00002517          	auipc	a0,0x2
    80001e32:	16a50513          	addi	a0,a0,362 # 80003f98 <__rodata_start+0x2f0>
    80001e36:	d0afe0ef          	jal	80000340 <log_debug>
    80001e3a:	00002517          	auipc	a0,0x2
    80001e3e:	4fe50513          	addi	a0,a0,1278 # 80004338 <__rodata_start+0x690>
    80001e42:	c90fe0ef          	jal	800002d2 <log_trace>
    80001e46:	0001                	nop
    80001e48:	70a2                	ld	ra,40(sp)
    80001e4a:	7402                	ld	s0,32(sp)
    80001e4c:	6145                	addi	sp,sp,48
    80001e4e:	8082                	ret

0000000080001e50 <set_interrupt_threshold>:
    80001e50:	7179                	addi	sp,sp,-48
    80001e52:	f406                	sd	ra,40(sp)
    80001e54:	f022                	sd	s0,32(sp)
    80001e56:	1800                	addi	s0,sp,48
    80001e58:	87aa                	mv	a5,a0
    80001e5a:	fcf42e23          	sw	a5,-36(s0)
    80001e5e:	00002517          	auipc	a0,0x2
    80001e62:	4fa50513          	addi	a0,a0,1274 # 80004358 <__rodata_start+0x6b0>
    80001e66:	c6cfe0ef          	jal	800002d2 <log_trace>
    80001e6a:	fe043423          	sd	zero,-24(s0)
    80001e6e:	0c0107b7          	lui	a5,0xc010
    80001e72:	fef43423          	sd	a5,-24(s0)
    80001e76:	fe843783          	ld	a5,-24(s0)
    80001e7a:	fdc42703          	lw	a4,-36(s0)
    80001e7e:	c398                	sw	a4,0(a5)
    80001e80:	fe843783          	ld	a5,-24(s0)
    80001e84:	439c                	lw	a5,0(a5)
    80001e86:	85be                	mv	a1,a5
    80001e88:	00002517          	auipc	a0,0x2
    80001e8c:	4f850513          	addi	a0,a0,1272 # 80004380 <__rodata_start+0x6d8>
    80001e90:	cb0fe0ef          	jal	80000340 <log_debug>
    80001e94:	00002517          	auipc	a0,0x2
    80001e98:	50c50513          	addi	a0,a0,1292 # 800043a0 <__rodata_start+0x6f8>
    80001e9c:	c36fe0ef          	jal	800002d2 <log_trace>
    80001ea0:	0001                	nop
    80001ea2:	70a2                	ld	ra,40(sp)
    80001ea4:	7402                	ld	s0,32(sp)
    80001ea6:	6145                	addi	sp,sp,48
    80001ea8:	8082                	ret

0000000080001eaa <set_interrupt_priority>:
    80001eaa:	7179                	addi	sp,sp,-48
    80001eac:	f406                	sd	ra,40(sp)
    80001eae:	f022                	sd	s0,32(sp)
    80001eb0:	1800                	addi	s0,sp,48
    80001eb2:	87aa                	mv	a5,a0
    80001eb4:	872e                	mv	a4,a1
    80001eb6:	fcf42e23          	sw	a5,-36(s0)
    80001eba:	87ba                	mv	a5,a4
    80001ebc:	fcf42c23          	sw	a5,-40(s0)
    80001ec0:	fdc42783          	lw	a5,-36(s0)
    80001ec4:	85be                	mv	a1,a5
    80001ec6:	00002517          	auipc	a0,0x2
    80001eca:	4fa50513          	addi	a0,a0,1274 # 800043c0 <__rodata_start+0x718>
    80001ece:	c04fe0ef          	jal	800002d2 <log_trace>
    80001ed2:	fd842783          	lw	a5,-40(s0)
    80001ed6:	0027979b          	slliw	a5,a5,0x2
    80001eda:	2781                	sext.w	a5,a5
    80001edc:	02079713          	slli	a4,a5,0x20
    80001ee0:	9301                	srli	a4,a4,0x20
    80001ee2:	0c0007b7          	lui	a5,0xc000
    80001ee6:	97ba                	add	a5,a5,a4
    80001ee8:	fef43423          	sd	a5,-24(s0)
    80001eec:	fe843583          	ld	a1,-24(s0)
    80001ef0:	00002517          	auipc	a0,0x2
    80001ef4:	4f850513          	addi	a0,a0,1272 # 800043e8 <__rodata_start+0x740>
    80001ef8:	c48fe0ef          	jal	80000340 <log_debug>
    80001efc:	fe843783          	ld	a5,-24(s0)
    80001f00:	439c                	lw	a5,0(a5)
    80001f02:	85be                	mv	a1,a5
    80001f04:	00002517          	auipc	a0,0x2
    80001f08:	50c50513          	addi	a0,a0,1292 # 80004410 <__rodata_start+0x768>
    80001f0c:	c34fe0ef          	jal	80000340 <log_debug>
    80001f10:	fe843783          	ld	a5,-24(s0)
    80001f14:	fdc42703          	lw	a4,-36(s0)
    80001f18:	c398                	sw	a4,0(a5)
    80001f1a:	fe843783          	ld	a5,-24(s0)
    80001f1e:	439c                	lw	a5,0(a5)
    80001f20:	85be                	mv	a1,a5
    80001f22:	00002517          	auipc	a0,0x2
    80001f26:	52650513          	addi	a0,a0,1318 # 80004448 <__rodata_start+0x7a0>
    80001f2a:	c16fe0ef          	jal	80000340 <log_debug>
    80001f2e:	00002517          	auipc	a0,0x2
    80001f32:	54a50513          	addi	a0,a0,1354 # 80004478 <__rodata_start+0x7d0>
    80001f36:	b9cfe0ef          	jal	800002d2 <log_trace>
    80001f3a:	0001                	nop
    80001f3c:	70a2                	ld	ra,40(sp)
    80001f3e:	7402                	ld	s0,32(sp)
    80001f40:	6145                	addi	sp,sp,48
    80001f42:	8082                	ret

0000000080001f44 <configure_interrupt_pin>:
    80001f44:	7179                	addi	sp,sp,-48
    80001f46:	f406                	sd	ra,40(sp)
    80001f48:	f022                	sd	s0,32(sp)
    80001f4a:	1800                	addi	s0,sp,48
    80001f4c:	87aa                	mv	a5,a0
    80001f4e:	fcf42e23          	sw	a5,-36(s0)
    80001f52:	00002517          	auipc	a0,0x2
    80001f56:	54650513          	addi	a0,a0,1350 # 80004498 <__rodata_start+0x7f0>
    80001f5a:	b78fe0ef          	jal	800002d2 <log_trace>
    80001f5e:	000407b7          	lui	a5,0x40
    80001f62:	10078513          	addi	a0,a5,256 # 40100 <_tbss_end+0x40100>
    80001f66:	88bff0ef          	jal	800017f0 <read_word>
    80001f6a:	87aa                	mv	a5,a0
    80001f6c:	fef42623          	sw	a5,-20(s0)
    80001f70:	fec42783          	lw	a5,-20(s0)
    80001f74:	85be                	mv	a1,a5
    80001f76:	00002517          	auipc	a0,0x2
    80001f7a:	54a50513          	addi	a0,a0,1354 # 800044c0 <__rodata_start+0x818>
    80001f7e:	bc2fe0ef          	jal	80000340 <log_debug>
    80001f82:	fdc42783          	lw	a5,-36(s0)
    80001f86:	37e5                	addiw	a5,a5,-7
    80001f88:	2781                	sext.w	a5,a5
    80001f8a:	4705                	li	a4,1
    80001f8c:	00f717bb          	sllw	a5,a4,a5
    80001f90:	2781                	sext.w	a5,a5
    80001f92:	fff7c793          	not	a5,a5
    80001f96:	2781                	sext.w	a5,a5
    80001f98:	2781                	sext.w	a5,a5
    80001f9a:	fec42703          	lw	a4,-20(s0)
    80001f9e:	8ff9                	and	a5,a5,a4
    80001fa0:	2781                	sext.w	a5,a5
    80001fa2:	1782                	slli	a5,a5,0x20
    80001fa4:	9381                	srli	a5,a5,0x20
    80001fa6:	85be                	mv	a1,a5
    80001fa8:	000407b7          	lui	a5,0x40
    80001fac:	10078513          	addi	a0,a5,256 # 40100 <_tbss_end+0x40100>
    80001fb0:	879ff0ef          	jal	80001828 <write_word>
    80001fb4:	000407b7          	lui	a5,0x40
    80001fb8:	10078513          	addi	a0,a5,256 # 40100 <_tbss_end+0x40100>
    80001fbc:	835ff0ef          	jal	800017f0 <read_word>
    80001fc0:	87aa                	mv	a5,a0
    80001fc2:	85be                	mv	a1,a5
    80001fc4:	00002517          	auipc	a0,0x2
    80001fc8:	52450513          	addi	a0,a0,1316 # 800044e8 <__rodata_start+0x840>
    80001fcc:	b74fe0ef          	jal	80000340 <log_debug>
    80001fd0:	00002517          	auipc	a0,0x2
    80001fd4:	54850513          	addi	a0,a0,1352 # 80004518 <__rodata_start+0x870>
    80001fd8:	afafe0ef          	jal	800002d2 <log_trace>
    80001fdc:	0001                	nop
    80001fde:	70a2                	ld	ra,40(sp)
    80001fe0:	7402                	ld	s0,32(sp)
    80001fe2:	6145                	addi	sp,sp,48
    80001fe4:	8082                	ret

0000000080001fe6 <plic_init>:
    80001fe6:	1101                	addi	sp,sp,-32
    80001fe8:	ec06                	sd	ra,24(sp)
    80001fea:	e822                	sd	s0,16(sp)
    80001fec:	1000                	addi	s0,sp,32
    80001fee:	fe042623          	sw	zero,-20(s0)
    80001ff2:	00002517          	auipc	a0,0x2
    80001ff6:	54650513          	addi	a0,a0,1350 # 80004538 <__rodata_start+0x890>
    80001ffa:	ad8fe0ef          	jal	800002d2 <log_trace>
    80001ffe:	8d018793          	addi	a5,gp,-1840 # 80004d70 <mcause_interrupt_table>
    80002002:	00000717          	auipc	a4,0x0
    80002006:	ae870713          	addi	a4,a4,-1304 # 80001aea <mach_plic_handler>
    8000200a:	efb8                	sd	a4,88(a5)
    8000200c:	45ad                	li	a1,11
    8000200e:	00002517          	auipc	a0,0x2
    80002012:	54250513          	addi	a0,a0,1346 # 80004550 <__rodata_start+0x8a8>
    80002016:	b2afe0ef          	jal	80000340 <log_debug>
    8000201a:	0000a797          	auipc	a5,0xa
    8000201e:	3fe78793          	addi	a5,a5,1022 # 8000c418 <hart0_interrupt_matrix>
    80002022:	0007a423          	sw	zero,8(a5)
    80002026:	0000a797          	auipc	a5,0xa
    8000202a:	3f278793          	addi	a5,a5,1010 # 8000c418 <hart0_interrupt_matrix>
    8000202e:	0007a023          	sw	zero,0(a5)
    80002032:	0000a797          	auipc	a5,0xa
    80002036:	3e678793          	addi	a5,a5,998 # 8000c418 <hart0_interrupt_matrix>
    8000203a:	0007a223          	sw	zero,4(a5)
    8000203e:	0000a797          	auipc	a5,0xa
    80002042:	3da78793          	addi	a5,a5,986 # 8000c418 <hart0_interrupt_matrix>
    80002046:	0007a623          	sw	zero,12(a5)
    8000204a:	4785                	li	a5,1
    8000204c:	fef42623          	sw	a5,-20(s0)
    80002050:	a8c5                	j	80002140 <plic_init+0x15a>
    80002052:	0000a717          	auipc	a4,0xa
    80002056:	3c670713          	addi	a4,a4,966 # 8000c418 <hart0_interrupt_matrix>
    8000205a:	fec46783          	lwu	a5,-20(s0)
    8000205e:	0792                	slli	a5,a5,0x4
    80002060:	97ba                	add	a5,a5,a4
    80002062:	0007a423          	sw	zero,8(a5)
    80002066:	0000a717          	auipc	a4,0xa
    8000206a:	3b270713          	addi	a4,a4,946 # 8000c418 <hart0_interrupt_matrix>
    8000206e:	fec46783          	lwu	a5,-20(s0)
    80002072:	0792                	slli	a5,a5,0x4
    80002074:	97ba                	add	a5,a5,a4
    80002076:	fec42703          	lw	a4,-20(s0)
    8000207a:	c398                	sw	a4,0(a5)
    8000207c:	0000a717          	auipc	a4,0xa
    80002080:	39c70713          	addi	a4,a4,924 # 8000c418 <hart0_interrupt_matrix>
    80002084:	fec46783          	lwu	a5,-20(s0)
    80002088:	0792                	slli	a5,a5,0x4
    8000208a:	97ba                	add	a5,a5,a4
    8000208c:	4709                	li	a4,2
    8000208e:	c3d8                	sw	a4,4(a5)
    80002090:	0000a717          	auipc	a4,0xa
    80002094:	38870713          	addi	a4,a4,904 # 8000c418 <hart0_interrupt_matrix>
    80002098:	fec46783          	lwu	a5,-20(s0)
    8000209c:	0792                	slli	a5,a5,0x4
    8000209e:	97ba                	add	a5,a5,a4
    800020a0:	0007a623          	sw	zero,12(a5)
    800020a4:	00002517          	auipc	a0,0x2
    800020a8:	4dc50513          	addi	a0,a0,1244 # 80004580 <__rodata_start+0x8d8>
    800020ac:	a94fe0ef          	jal	80000340 <log_debug>
    800020b0:	fec42783          	lw	a5,-20(s0)
    800020b4:	853e                	mv	a0,a5
    800020b6:	c7fff0ef          	jal	80001d34 <interrupt_disable>
    800020ba:	0000a717          	auipc	a4,0xa
    800020be:	27e70713          	addi	a4,a4,638 # 8000c338 <isr_table>
    800020c2:	fec46783          	lwu	a5,-20(s0)
    800020c6:	078e                	slli	a5,a5,0x3
    800020c8:	97ba                	add	a5,a5,a4
    800020ca:	00000717          	auipc	a4,0x0
    800020ce:	b0670713          	addi	a4,a4,-1274 # 80001bd0 <isr_default>
    800020d2:	e398                	sd	a4,0(a5)
    800020d4:	fec42783          	lw	a5,-20(s0)
    800020d8:	85be                	mv	a1,a5
    800020da:	4509                	li	a0,2
    800020dc:	dcfff0ef          	jal	80001eaa <set_interrupt_priority>
    800020e0:	0000a717          	auipc	a4,0xa
    800020e4:	33870713          	addi	a4,a4,824 # 8000c418 <hart0_interrupt_matrix>
    800020e8:	fec46783          	lwu	a5,-20(s0)
    800020ec:	0792                	slli	a5,a5,0x4
    800020ee:	97ba                	add	a5,a5,a4
    800020f0:	438c                	lw	a1,0(a5)
    800020f2:	0000a717          	auipc	a4,0xa
    800020f6:	32670713          	addi	a4,a4,806 # 8000c418 <hart0_interrupt_matrix>
    800020fa:	fec46783          	lwu	a5,-20(s0)
    800020fe:	0792                	slli	a5,a5,0x4
    80002100:	97ba                	add	a5,a5,a4
    80002102:	4790                	lw	a2,8(a5)
    80002104:	0000a717          	auipc	a4,0xa
    80002108:	31470713          	addi	a4,a4,788 # 8000c418 <hart0_interrupt_matrix>
    8000210c:	fec46783          	lwu	a5,-20(s0)
    80002110:	0792                	slli	a5,a5,0x4
    80002112:	97ba                	add	a5,a5,a4
    80002114:	43d4                	lw	a3,4(a5)
    80002116:	0000a717          	auipc	a4,0xa
    8000211a:	30270713          	addi	a4,a4,770 # 8000c418 <hart0_interrupt_matrix>
    8000211e:	fec46783          	lwu	a5,-20(s0)
    80002122:	0792                	slli	a5,a5,0x4
    80002124:	97ba                	add	a5,a5,a4
    80002126:	47dc                	lw	a5,12(a5)
    80002128:	873e                	mv	a4,a5
    8000212a:	00002517          	auipc	a0,0x2
    8000212e:	48e50513          	addi	a0,a0,1166 # 800045b8 <__rodata_start+0x910>
    80002132:	a0efe0ef          	jal	80000340 <log_debug>
    80002136:	fec42783          	lw	a5,-20(s0)
    8000213a:	2785                	addiw	a5,a5,1
    8000213c:	fef42623          	sw	a5,-20(s0)
    80002140:	fec42783          	lw	a5,-20(s0)
    80002144:	0007871b          	sext.w	a4,a5
    80002148:	47ed                	li	a5,27
    8000214a:	f0e7f4e3          	bgeu	a5,a4,80002052 <plic_init+0x6c>
    8000214e:	4505                	li	a0,1
    80002150:	d01ff0ef          	jal	80001e50 <set_interrupt_threshold>
    80002154:	00002517          	auipc	a0,0x2
    80002158:	4f450513          	addi	a0,a0,1268 # 80004648 <__rodata_start+0x9a0>
    8000215c:	976fe0ef          	jal	800002d2 <log_trace>
    80002160:	0001                	nop
    80002162:	60e2                	ld	ra,24(sp)
    80002164:	6442                	ld	s0,16(sp)
    80002166:	6105                	addi	sp,sp,32
    80002168:	8082                	ret

000000008000216a <configure_interrupt>:
    8000216a:	1101                	addi	sp,sp,-32
    8000216c:	ec06                	sd	ra,24(sp)
    8000216e:	e822                	sd	s0,16(sp)
    80002170:	1000                	addi	s0,sp,32
    80002172:	87aa                	mv	a5,a0
    80002174:	fef42623          	sw	a5,-20(s0)
    80002178:	00002517          	auipc	a0,0x2
    8000217c:	4e850513          	addi	a0,a0,1256 # 80004660 <__rodata_start+0x9b8>
    80002180:	952fe0ef          	jal	800002d2 <log_trace>
    80002184:	fec42783          	lw	a5,-20(s0)
    80002188:	0007871b          	sext.w	a4,a5
    8000218c:	4799                	li	a5,6
    8000218e:	00e7fe63          	bgeu	a5,a4,800021aa <configure_interrupt+0x40>
    80002192:	fec42783          	lw	a5,-20(s0)
    80002196:	0007871b          	sext.w	a4,a5
    8000219a:	47d5                	li	a5,21
    8000219c:	00e7e763          	bltu	a5,a4,800021aa <configure_interrupt+0x40>
    800021a0:	fec42783          	lw	a5,-20(s0)
    800021a4:	853e                	mv	a0,a5
    800021a6:	d9fff0ef          	jal	80001f44 <configure_interrupt_pin>
    800021aa:	fec42783          	lw	a5,-20(s0)
    800021ae:	853e                	mv	a0,a5
    800021b0:	aa5ff0ef          	jal	80001c54 <interrupt_enable>
    800021b4:	00002517          	auipc	a0,0x2
    800021b8:	4cc50513          	addi	a0,a0,1228 # 80004680 <__rodata_start+0x9d8>
    800021bc:	916fe0ef          	jal	800002d2 <log_trace>
    800021c0:	0001                	nop
    800021c2:	60e2                	ld	ra,24(sp)
    800021c4:	6442                	ld	s0,16(sp)
    800021c6:	6105                	addi	sp,sp,32
    800021c8:	8082                	ret

00000000800021ca <set_pwm_period_register>:
    800021ca:	7179                	addi	sp,sp,-48
    800021cc:	f406                	sd	ra,40(sp)
    800021ce:	f022                	sd	s0,32(sp)
    800021d0:	1800                	addi	s0,sp,48
    800021d2:	87aa                	mv	a5,a0
    800021d4:	872e                	mv	a4,a1
    800021d6:	fcf42e23          	sw	a5,-36(s0)
    800021da:	87ba                	mv	a5,a4
    800021dc:	fcf42c23          	sw	a5,-40(s0)
    800021e0:	fd842783          	lw	a5,-40(s0)
    800021e4:	0007871b          	sext.w	a4,a5
    800021e8:	67c1                	lui	a5,0x10
    800021ea:	00f74d63          	blt	a4,a5,80002204 <set_pwm_period_register+0x3a>
    800021ee:	67c1                	lui	a5,0x10
    800021f0:	fff78593          	addi	a1,a5,-1 # ffff <_tbss_end+0xffff>
    800021f4:	00002517          	auipc	a0,0x2
    800021f8:	4ac50513          	addi	a0,a0,1196 # 800046a0 <__rodata_start+0x9f8>
    800021fc:	9b2fe0ef          	jal	800003ae <log_error>
    80002200:	4781                	li	a5,0
    80002202:	a091                	j	80002246 <set_pwm_period_register+0x7c>
    80002204:	fdc42783          	lw	a5,-36(s0)
    80002208:	3007879b          	addiw	a5,a5,768
    8000220c:	2781                	sext.w	a5,a5
    8000220e:	0087979b          	slliw	a5,a5,0x8
    80002212:	2781                	sext.w	a5,a5
    80002214:	fef43423          	sd	a5,-24(s0)
    80002218:	fd842783          	lw	a5,-40(s0)
    8000221c:	0107971b          	slliw	a4,a5,0x10
    80002220:	4107571b          	sraiw	a4,a4,0x10
    80002224:	fe843783          	ld	a5,-24(s0)
    80002228:	00e79023          	sh	a4,0(a5)
    8000222c:	fd842703          	lw	a4,-40(s0)
    80002230:	fdc42783          	lw	a5,-36(s0)
    80002234:	863a                	mv	a2,a4
    80002236:	85be                	mv	a1,a5
    80002238:	00002517          	auipc	a0,0x2
    8000223c:	4a050513          	addi	a0,a0,1184 # 800046d8 <__rodata_start+0xa30>
    80002240:	8b6fe0ef          	jal	800002f6 <log_info>
    80002244:	4785                	li	a5,1
    80002246:	853e                	mv	a0,a5
    80002248:	70a2                	ld	ra,40(sp)
    8000224a:	7402                	ld	s0,32(sp)
    8000224c:	6145                	addi	sp,sp,48
    8000224e:	8082                	ret

0000000080002250 <set_pwm_duty_register>:
    80002250:	7179                	addi	sp,sp,-48
    80002252:	f406                	sd	ra,40(sp)
    80002254:	f022                	sd	s0,32(sp)
    80002256:	1800                	addi	s0,sp,48
    80002258:	87aa                	mv	a5,a0
    8000225a:	872e                	mv	a4,a1
    8000225c:	fcf42e23          	sw	a5,-36(s0)
    80002260:	87ba                	mv	a5,a4
    80002262:	fcf42c23          	sw	a5,-40(s0)
    80002266:	fd842783          	lw	a5,-40(s0)
    8000226a:	0007871b          	sext.w	a4,a5
    8000226e:	67c1                	lui	a5,0x10
    80002270:	00f74d63          	blt	a4,a5,8000228a <set_pwm_duty_register+0x3a>
    80002274:	67c1                	lui	a5,0x10
    80002276:	fff78593          	addi	a1,a5,-1 # ffff <_tbss_end+0xffff>
    8000227a:	00002517          	auipc	a0,0x2
    8000227e:	48e50513          	addi	a0,a0,1166 # 80004708 <__rodata_start+0xa60>
    80002282:	92cfe0ef          	jal	800003ae <log_error>
    80002286:	4781                	li	a5,0
    80002288:	a0a1                	j	800022d0 <set_pwm_duty_register+0x80>
    8000228a:	fdc42783          	lw	a5,-36(s0)
    8000228e:	3007879b          	addiw	a5,a5,768
    80002292:	2781                	sext.w	a5,a5
    80002294:	0087979b          	slliw	a5,a5,0x8
    80002298:	2781                	sext.w	a5,a5
    8000229a:	2791                	addiw	a5,a5,4
    8000229c:	2781                	sext.w	a5,a5
    8000229e:	fef43423          	sd	a5,-24(s0)
    800022a2:	fd842783          	lw	a5,-40(s0)
    800022a6:	0107971b          	slliw	a4,a5,0x10
    800022aa:	4107571b          	sraiw	a4,a4,0x10
    800022ae:	fe843783          	ld	a5,-24(s0)
    800022b2:	00e79023          	sh	a4,0(a5)
    800022b6:	fd842703          	lw	a4,-40(s0)
    800022ba:	fdc42783          	lw	a5,-36(s0)
    800022be:	863a                	mv	a2,a4
    800022c0:	85be                	mv	a1,a5
    800022c2:	00002517          	auipc	a0,0x2
    800022c6:	47650513          	addi	a0,a0,1142 # 80004738 <__rodata_start+0xa90>
    800022ca:	82cfe0ef          	jal	800002f6 <log_info>
    800022ce:	4785                	li	a5,1
    800022d0:	853e                	mv	a0,a5
    800022d2:	70a2                	ld	ra,40(sp)
    800022d4:	7402                	ld	s0,32(sp)
    800022d6:	6145                	addi	sp,sp,48
    800022d8:	8082                	ret

00000000800022da <set_pwm_control_register>:
    800022da:	7179                	addi	sp,sp,-48
    800022dc:	f406                	sd	ra,40(sp)
    800022de:	f022                	sd	s0,32(sp)
    800022e0:	1800                	addi	s0,sp,48
    800022e2:	87aa                	mv	a5,a0
    800022e4:	872e                	mv	a4,a1
    800022e6:	fcf42e23          	sw	a5,-36(s0)
    800022ea:	87ba                	mv	a5,a4
    800022ec:	fcf42c23          	sw	a5,-40(s0)
    800022f0:	fd842783          	lw	a5,-40(s0)
    800022f4:	0007871b          	sext.w	a4,a5
    800022f8:	0ff00793          	li	a5,255
    800022fc:	00e7dc63          	bge	a5,a4,80002314 <set_pwm_control_register+0x3a>
    80002300:	0ff00593          	li	a1,255
    80002304:	00002517          	auipc	a0,0x2
    80002308:	46450513          	addi	a0,a0,1124 # 80004768 <__rodata_start+0xac0>
    8000230c:	8a2fe0ef          	jal	800003ae <log_error>
    80002310:	4781                	li	a5,0
    80002312:	a091                	j	80002356 <set_pwm_control_register+0x7c>
    80002314:	fdc42783          	lw	a5,-36(s0)
    80002318:	3007879b          	addiw	a5,a5,768
    8000231c:	2781                	sext.w	a5,a5
    8000231e:	0087979b          	slliw	a5,a5,0x8
    80002322:	2781                	sext.w	a5,a5
    80002324:	27a1                	addiw	a5,a5,8
    80002326:	2781                	sext.w	a5,a5
    80002328:	fef43423          	sd	a5,-24(s0)
    8000232c:	fd842783          	lw	a5,-40(s0)
    80002330:	0ff7f713          	zext.b	a4,a5
    80002334:	fe843783          	ld	a5,-24(s0)
    80002338:	00e78023          	sb	a4,0(a5)
    8000233c:	fd842703          	lw	a4,-40(s0)
    80002340:	fdc42783          	lw	a5,-36(s0)
    80002344:	863a                	mv	a2,a4
    80002346:	85be                	mv	a1,a5
    80002348:	00002517          	auipc	a0,0x2
    8000234c:	45850513          	addi	a0,a0,1112 # 800047a0 <__rodata_start+0xaf8>
    80002350:	fa7fd0ef          	jal	800002f6 <log_info>
    80002354:	4785                	li	a5,1
    80002356:	853e                	mv	a0,a5
    80002358:	70a2                	ld	ra,40(sp)
    8000235a:	7402                	ld	s0,32(sp)
    8000235c:	6145                	addi	sp,sp,48
    8000235e:	8082                	ret

0000000080002360 <pwm_check_continuous_mode>:
    80002360:	7179                	addi	sp,sp,-48
    80002362:	f406                	sd	ra,40(sp)
    80002364:	f022                	sd	s0,32(sp)
    80002366:	1800                	addi	s0,sp,48
    80002368:	87aa                	mv	a5,a0
    8000236a:	fcf42e23          	sw	a5,-36(s0)
    8000236e:	fdc42783          	lw	a5,-36(s0)
    80002372:	3007879b          	addiw	a5,a5,768
    80002376:	2781                	sext.w	a5,a5
    80002378:	0087979b          	slliw	a5,a5,0x8
    8000237c:	2781                	sext.w	a5,a5
    8000237e:	27a1                	addiw	a5,a5,8
    80002380:	2781                	sext.w	a5,a5
    80002382:	fef43423          	sd	a5,-24(s0)
    80002386:	fe843783          	ld	a5,-24(s0)
    8000238a:	0007c783          	lbu	a5,0(a5)
    8000238e:	0ff7f793          	zext.b	a5,a5
    80002392:	2781                	sext.w	a5,a5
    80002394:	8ba1                	andi	a5,a5,8
    80002396:	fef42223          	sw	a5,-28(s0)
    8000239a:	fe442783          	lw	a5,-28(s0)
    8000239e:	4037d79b          	sraiw	a5,a5,0x3
    800023a2:	2781                	sext.w	a5,a5
    800023a4:	85be                	mv	a1,a5
    800023a6:	00002517          	auipc	a0,0x2
    800023aa:	43250513          	addi	a0,a0,1074 # 800047d8 <__rodata_start+0xb30>
    800023ae:	f49fd0ef          	jal	800002f6 <log_info>
    800023b2:	fe442783          	lw	a5,-28(s0)
    800023b6:	4037d79b          	sraiw	a5,a5,0x3
    800023ba:	2781                	sext.w	a5,a5
    800023bc:	873e                	mv	a4,a5
    800023be:	4785                	li	a5,1
    800023c0:	00f71463          	bne	a4,a5,800023c8 <pwm_check_continuous_mode+0x68>
    800023c4:	4785                	li	a5,1
    800023c6:	a011                	j	800023ca <pwm_check_continuous_mode+0x6a>
    800023c8:	4781                	li	a5,0
    800023ca:	853e                	mv	a0,a5
    800023cc:	70a2                	ld	ra,40(sp)
    800023ce:	7402                	ld	s0,32(sp)
    800023d0:	6145                	addi	sp,sp,48
    800023d2:	8082                	ret

00000000800023d4 <set_pwm_clock_register>:
    800023d4:	7179                	addi	sp,sp,-48
    800023d6:	f406                	sd	ra,40(sp)
    800023d8:	f022                	sd	s0,32(sp)
    800023da:	1800                	addi	s0,sp,48
    800023dc:	87aa                	mv	a5,a0
    800023de:	872e                	mv	a4,a1
    800023e0:	fcf42e23          	sw	a5,-36(s0)
    800023e4:	87ba                	mv	a5,a4
    800023e6:	fcf42c23          	sw	a5,-40(s0)
    800023ea:	fd842783          	lw	a5,-40(s0)
    800023ee:	0007871b          	sext.w	a4,a5
    800023f2:	67c1                	lui	a5,0x10
    800023f4:	00f74d63          	blt	a4,a5,8000240e <set_pwm_clock_register+0x3a>
    800023f8:	67c1                	lui	a5,0x10
    800023fa:	fff78593          	addi	a1,a5,-1 # ffff <_tbss_end+0xffff>
    800023fe:	00002517          	auipc	a0,0x2
    80002402:	40250513          	addi	a0,a0,1026 # 80004800 <__rodata_start+0xb58>
    80002406:	fa9fd0ef          	jal	800003ae <log_error>
    8000240a:	4781                	li	a5,0
    8000240c:	a805                	j	8000243c <set_pwm_clock_register+0x68>
    8000240e:	fdc42783          	lw	a5,-36(s0)
    80002412:	3007879b          	addiw	a5,a5,768
    80002416:	2781                	sext.w	a5,a5
    80002418:	0087979b          	slliw	a5,a5,0x8
    8000241c:	2781                	sext.w	a5,a5
    8000241e:	27b1                	addiw	a5,a5,12
    80002420:	2781                	sext.w	a5,a5
    80002422:	fef43423          	sd	a5,-24(s0)
    80002426:	fd842783          	lw	a5,-40(s0)
    8000242a:	0107971b          	slliw	a4,a5,0x10
    8000242e:	4107571b          	sraiw	a4,a4,0x10
    80002432:	fe843783          	ld	a5,-24(s0)
    80002436:	00e79023          	sh	a4,0(a5)
    8000243a:	4785                	li	a5,1
    8000243c:	853e                	mv	a0,a5
    8000243e:	70a2                	ld	ra,40(sp)
    80002440:	7402                	ld	s0,32(sp)
    80002442:	6145                	addi	sp,sp,48
    80002444:	8082                	ret

0000000080002446 <pwm_clear_registers>:
    80002446:	1101                	addi	sp,sp,-32
    80002448:	ec06                	sd	ra,24(sp)
    8000244a:	e822                	sd	s0,16(sp)
    8000244c:	1000                	addi	s0,sp,32
    8000244e:	87aa                	mv	a5,a0
    80002450:	fef42623          	sw	a5,-20(s0)
    80002454:	fec42783          	lw	a5,-20(s0)
    80002458:	4581                	li	a1,0
    8000245a:	853e                	mv	a0,a5
    8000245c:	d6fff0ef          	jal	800021ca <set_pwm_period_register>
    80002460:	fec42783          	lw	a5,-20(s0)
    80002464:	4581                	li	a1,0
    80002466:	853e                	mv	a0,a5
    80002468:	de9ff0ef          	jal	80002250 <set_pwm_duty_register>
    8000246c:	fec42783          	lw	a5,-20(s0)
    80002470:	4581                	li	a1,0
    80002472:	853e                	mv	a0,a5
    80002474:	e67ff0ef          	jal	800022da <set_pwm_control_register>
    80002478:	fec42783          	lw	a5,-20(s0)
    8000247c:	4581                	li	a1,0
    8000247e:	853e                	mv	a0,a5
    80002480:	f55ff0ef          	jal	800023d4 <set_pwm_clock_register>
    80002484:	fec42783          	lw	a5,-20(s0)
    80002488:	85be                	mv	a1,a5
    8000248a:	00002517          	auipc	a0,0x2
    8000248e:	3ae50513          	addi	a0,a0,942 # 80004838 <__rodata_start+0xb90>
    80002492:	e65fd0ef          	jal	800002f6 <log_info>
    80002496:	0001                	nop
    80002498:	60e2                	ld	ra,24(sp)
    8000249a:	6442                	ld	s0,16(sp)
    8000249c:	6105                	addi	sp,sp,32
    8000249e:	8082                	ret

00000000800024a0 <pwm_init>:
    800024a0:	1101                	addi	sp,sp,-32
    800024a2:	ec06                	sd	ra,24(sp)
    800024a4:	e822                	sd	s0,16(sp)
    800024a6:	1000                	addi	s0,sp,32
    800024a8:	fe042623          	sw	zero,-20(s0)
    800024ac:	a819                	j	800024c2 <pwm_init+0x22>
    800024ae:	fec42783          	lw	a5,-20(s0)
    800024b2:	853e                	mv	a0,a5
    800024b4:	f93ff0ef          	jal	80002446 <pwm_clear_registers>
    800024b8:	fec42783          	lw	a5,-20(s0)
    800024bc:	2785                	addiw	a5,a5,1
    800024be:	fef42623          	sw	a5,-20(s0)
    800024c2:	fec42783          	lw	a5,-20(s0)
    800024c6:	0007871b          	sext.w	a4,a5
    800024ca:	4791                	li	a5,4
    800024cc:	fee7d1e3          	bge	a5,a4,800024ae <pwm_init+0xe>
    800024d0:	00002517          	auipc	a0,0x2
    800024d4:	39850513          	addi	a0,a0,920 # 80004868 <__rodata_start+0xbc0>
    800024d8:	e1ffd0ef          	jal	800002f6 <log_info>
    800024dc:	0001                	nop
    800024de:	60e2                	ld	ra,24(sp)
    800024e0:	6442                	ld	s0,16(sp)
    800024e2:	6105                	addi	sp,sp,32
    800024e4:	8082                	ret

00000000800024e6 <configure_control_register_mode>:
    800024e6:	7179                	addi	sp,sp,-48
    800024e8:	f406                	sd	ra,40(sp)
    800024ea:	f022                	sd	s0,32(sp)
    800024ec:	1800                	addi	s0,sp,48
    800024ee:	87aa                	mv	a5,a0
    800024f0:	fcf42e23          	sw	a5,-36(s0)
    800024f4:	fe042623          	sw	zero,-20(s0)
    800024f8:	fdc42783          	lw	a5,-36(s0)
    800024fc:	2781                	sext.w	a5,a5
    800024fe:	e79d                	bnez	a5,8000252c <configure_control_register_mode+0x46>
    80002500:	00002517          	auipc	a0,0x2
    80002504:	39850513          	addi	a0,a0,920 # 80004898 <__rodata_start+0xbf0>
    80002508:	deffd0ef          	jal	800002f6 <log_info>
    8000250c:	fec42783          	lw	a5,-20(s0)
    80002510:	2789                	addiw	a5,a5,2
    80002512:	fef42623          	sw	a5,-20(s0)
    80002516:	fec42783          	lw	a5,-20(s0)
    8000251a:	2791                	addiw	a5,a5,4
    8000251c:	fef42623          	sw	a5,-20(s0)
    80002520:	fec42783          	lw	a5,-20(s0)
    80002524:	27c1                	addiw	a5,a5,16
    80002526:	fef42623          	sw	a5,-20(s0)
    8000252a:	a899                	j	80002580 <configure_control_register_mode+0x9a>
    8000252c:	fdc42783          	lw	a5,-36(s0)
    80002530:	0007871b          	sext.w	a4,a5
    80002534:	4785                	li	a5,1
    80002536:	00f71e63          	bne	a4,a5,80002552 <configure_control_register_mode+0x6c>
    8000253a:	00002517          	auipc	a0,0x2
    8000253e:	38650513          	addi	a0,a0,902 # 800048c0 <__rodata_start+0xc18>
    80002542:	db5fd0ef          	jal	800002f6 <log_info>
    80002546:	fec42783          	lw	a5,-20(s0)
    8000254a:	2791                	addiw	a5,a5,4
    8000254c:	fef42623          	sw	a5,-20(s0)
    80002550:	a805                	j	80002580 <configure_control_register_mode+0x9a>
    80002552:	fdc42783          	lw	a5,-36(s0)
    80002556:	0007871b          	sext.w	a4,a5
    8000255a:	4789                	li	a5,2
    8000255c:	02f71263          	bne	a4,a5,80002580 <configure_control_register_mode+0x9a>
    80002560:	00002517          	auipc	a0,0x2
    80002564:	39050513          	addi	a0,a0,912 # 800048f0 <__rodata_start+0xc48>
    80002568:	d8ffd0ef          	jal	800002f6 <log_info>
    8000256c:	fec42783          	lw	a5,-20(s0)
    80002570:	2791                	addiw	a5,a5,4
    80002572:	fef42623          	sw	a5,-20(s0)
    80002576:	fec42783          	lw	a5,-20(s0)
    8000257a:	27a1                	addiw	a5,a5,8
    8000257c:	fef42623          	sw	a5,-20(s0)
    80002580:	fec42783          	lw	a5,-20(s0)
    80002584:	853e                	mv	a0,a5
    80002586:	70a2                	ld	ra,40(sp)
    80002588:	7402                	ld	s0,32(sp)
    8000258a:	6145                	addi	sp,sp,48
    8000258c:	8082                	ret

000000008000258e <pwm_start>:
    8000258e:	7179                	addi	sp,sp,-48
    80002590:	f406                	sd	ra,40(sp)
    80002592:	f022                	sd	s0,32(sp)
    80002594:	1800                	addi	s0,sp,48
    80002596:	87aa                	mv	a5,a0
    80002598:	872e                	mv	a4,a1
    8000259a:	fcf42e23          	sw	a5,-36(s0)
    8000259e:	87ba                	mv	a5,a4
    800025a0:	fcf42c23          	sw	a5,-40(s0)
    800025a4:	fd842783          	lw	a5,-40(s0)
    800025a8:	853e                	mv	a0,a5
    800025aa:	f3dff0ef          	jal	800024e6 <configure_control_register_mode>
    800025ae:	87aa                	mv	a5,a0
    800025b0:	fef42623          	sw	a5,-20(s0)
    800025b4:	fec42703          	lw	a4,-20(s0)
    800025b8:	fdc42783          	lw	a5,-36(s0)
    800025bc:	85ba                	mv	a1,a4
    800025be:	853e                	mv	a0,a5
    800025c0:	d1bff0ef          	jal	800022da <set_pwm_control_register>
    800025c4:	87aa                	mv	a5,a0
    800025c6:	cb91                	beqz	a5,800025da <pwm_start+0x4c>
    800025c8:	fdc42783          	lw	a5,-36(s0)
    800025cc:	85be                	mv	a1,a5
    800025ce:	00002517          	auipc	a0,0x2
    800025d2:	35a50513          	addi	a0,a0,858 # 80004928 <__rodata_start+0xc80>
    800025d6:	d21fd0ef          	jal	800002f6 <log_info>
    800025da:	fec42703          	lw	a4,-20(s0)
    800025de:	fdc42783          	lw	a5,-36(s0)
    800025e2:	85ba                	mv	a1,a4
    800025e4:	853e                	mv	a0,a5
    800025e6:	cf5ff0ef          	jal	800022da <set_pwm_control_register>
    800025ea:	87aa                	mv	a5,a0
    800025ec:	eb91                	bnez	a5,80002600 <pwm_start+0x72>
    800025ee:	fdc42783          	lw	a5,-36(s0)
    800025f2:	85be                	mv	a1,a5
    800025f4:	00002517          	auipc	a0,0x2
    800025f8:	35c50513          	addi	a0,a0,860 # 80004950 <__rodata_start+0xca8>
    800025fc:	db3fd0ef          	jal	800003ae <log_error>
    80002600:	0001                	nop
    80002602:	70a2                	ld	ra,40(sp)
    80002604:	7402                	ld	s0,32(sp)
    80002606:	6145                	addi	sp,sp,48
    80002608:	8082                	ret

000000008000260a <pwm_use_external_clock>:
    8000260a:	7179                	addi	sp,sp,-48
    8000260c:	f422                	sd	s0,40(sp)
    8000260e:	1800                	addi	s0,sp,48
    80002610:	87aa                	mv	a5,a0
    80002612:	872e                	mv	a4,a1
    80002614:	fcf42e23          	sw	a5,-36(s0)
    80002618:	87ba                	mv	a5,a4
    8000261a:	fcf40da3          	sb	a5,-37(s0)
    8000261e:	fdc42783          	lw	a5,-36(s0)
    80002622:	3007879b          	addiw	a5,a5,768
    80002626:	2781                	sext.w	a5,a5
    80002628:	0087979b          	slliw	a5,a5,0x8
    8000262c:	2781                	sext.w	a5,a5
    8000262e:	27a1                	addiw	a5,a5,8
    80002630:	2781                	sext.w	a5,a5
    80002632:	fef43423          	sd	a5,-24(s0)
    80002636:	fdb44783          	lbu	a5,-37(s0)
    8000263a:	0ff7f793          	zext.b	a5,a5
    8000263e:	c799                	beqz	a5,8000264c <pwm_use_external_clock+0x42>
    80002640:	fe843783          	ld	a5,-24(s0)
    80002644:	0785                	addi	a5,a5,1
    80002646:	fef43423          	sd	a5,-24(s0)
    8000264a:	a809                	j	8000265c <pwm_use_external_clock+0x52>
    8000264c:	fe843783          	ld	a5,-24(s0)
    80002650:	c791                	beqz	a5,8000265c <pwm_use_external_clock+0x52>
    80002652:	fe843783          	ld	a5,-24(s0)
    80002656:	17fd                	addi	a5,a5,-1
    80002658:	fef43423          	sd	a5,-24(s0)
    8000265c:	0001                	nop
    8000265e:	7422                	ld	s0,40(sp)
    80002660:	6145                	addi	sp,sp,48
    80002662:	8082                	ret

0000000080002664 <pwm_set_clock>:
    80002664:	1101                	addi	sp,sp,-32
    80002666:	ec06                	sd	ra,24(sp)
    80002668:	e822                	sd	s0,16(sp)
    8000266a:	1000                	addi	s0,sp,32
    8000266c:	87aa                	mv	a5,a0
    8000266e:	872e                	mv	a4,a1
    80002670:	fef42623          	sw	a5,-20(s0)
    80002674:	87ba                	mv	a5,a4
    80002676:	fef42423          	sw	a5,-24(s0)
    8000267a:	fe842703          	lw	a4,-24(s0)
    8000267e:	fec42783          	lw	a5,-20(s0)
    80002682:	85ba                	mv	a1,a4
    80002684:	853e                	mv	a0,a5
    80002686:	d4fff0ef          	jal	800023d4 <set_pwm_clock_register>
    8000268a:	87aa                	mv	a5,a0
    8000268c:	e799                	bnez	a5,8000269a <pwm_set_clock+0x36>
    8000268e:	00002517          	auipc	a0,0x2
    80002692:	2ea50513          	addi	a0,a0,746 # 80004978 <__rodata_start+0xcd0>
    80002696:	d19fd0ef          	jal	800003ae <log_error>
    8000269a:	0001                	nop
    8000269c:	60e2                	ld	ra,24(sp)
    8000269e:	6442                	ld	s0,16(sp)
    800026a0:	6105                	addi	sp,sp,32
    800026a2:	8082                	ret

00000000800026a4 <pwm_set_duty_cycle>:
    800026a4:	1101                	addi	sp,sp,-32
    800026a6:	ec06                	sd	ra,24(sp)
    800026a8:	e822                	sd	s0,16(sp)
    800026aa:	1000                	addi	s0,sp,32
    800026ac:	87aa                	mv	a5,a0
    800026ae:	872e                	mv	a4,a1
    800026b0:	fef42623          	sw	a5,-20(s0)
    800026b4:	87ba                	mv	a5,a4
    800026b6:	fef42423          	sw	a5,-24(s0)
    800026ba:	fe842703          	lw	a4,-24(s0)
    800026be:	fec42783          	lw	a5,-20(s0)
    800026c2:	85ba                	mv	a1,a4
    800026c4:	853e                	mv	a0,a5
    800026c6:	b8bff0ef          	jal	80002250 <set_pwm_duty_register>
    800026ca:	87aa                	mv	a5,a0
    800026cc:	e799                	bnez	a5,800026da <pwm_set_duty_cycle+0x36>
    800026ce:	00002517          	auipc	a0,0x2
    800026d2:	2d250513          	addi	a0,a0,722 # 800049a0 <__rodata_start+0xcf8>
    800026d6:	cd9fd0ef          	jal	800003ae <log_error>
    800026da:	0001                	nop
    800026dc:	60e2                	ld	ra,24(sp)
    800026de:	6442                	ld	s0,16(sp)
    800026e0:	6105                	addi	sp,sp,32
    800026e2:	8082                	ret

00000000800026e4 <pwm_set_periodic_cycle>:
    800026e4:	1101                	addi	sp,sp,-32
    800026e6:	ec06                	sd	ra,24(sp)
    800026e8:	e822                	sd	s0,16(sp)
    800026ea:	1000                	addi	s0,sp,32
    800026ec:	87aa                	mv	a5,a0
    800026ee:	872e                	mv	a4,a1
    800026f0:	fef42623          	sw	a5,-20(s0)
    800026f4:	87ba                	mv	a5,a4
    800026f6:	fef42423          	sw	a5,-24(s0)
    800026fa:	fe842703          	lw	a4,-24(s0)
    800026fe:	fec42783          	lw	a5,-20(s0)
    80002702:	85ba                	mv	a1,a4
    80002704:	853e                	mv	a0,a5
    80002706:	ac5ff0ef          	jal	800021ca <set_pwm_period_register>
    8000270a:	87aa                	mv	a5,a0
    8000270c:	e799                	bnez	a5,8000271a <pwm_set_periodic_cycle+0x36>
    8000270e:	00002517          	auipc	a0,0x2
    80002712:	2ba50513          	addi	a0,a0,698 # 800049c8 <__rodata_start+0xd20>
    80002716:	c99fd0ef          	jal	800003ae <log_error>
    8000271a:	0001                	nop
    8000271c:	60e2                	ld	ra,24(sp)
    8000271e:	6442                	ld	s0,16(sp)
    80002720:	6105                	addi	sp,sp,32
    80002722:	8082                	ret

0000000080002724 <pwm_configure>:
    80002724:	7179                	addi	sp,sp,-48
    80002726:	f406                	sd	ra,40(sp)
    80002728:	f022                	sd	s0,32(sp)
    8000272a:	1800                	addi	s0,sp,48
    8000272c:	87aa                	mv	a5,a0
    8000272e:	fef42623          	sw	a5,-20(s0)
    80002732:	87ae                	mv	a5,a1
    80002734:	fef42423          	sw	a5,-24(s0)
    80002738:	87b2                	mv	a5,a2
    8000273a:	fef42223          	sw	a5,-28(s0)
    8000273e:	87b6                	mv	a5,a3
    80002740:	fef42023          	sw	a5,-32(s0)
    80002744:	87ba                	mv	a5,a4
    80002746:	fcf40fa3          	sb	a5,-33(s0)
    8000274a:	fe442703          	lw	a4,-28(s0)
    8000274e:	fec42783          	lw	a5,-20(s0)
    80002752:	85ba                	mv	a1,a4
    80002754:	853e                	mv	a0,a5
    80002756:	f8fff0ef          	jal	800026e4 <pwm_set_periodic_cycle>
    8000275a:	fe042703          	lw	a4,-32(s0)
    8000275e:	fec42783          	lw	a5,-20(s0)
    80002762:	85ba                	mv	a1,a4
    80002764:	853e                	mv	a0,a5
    80002766:	f3fff0ef          	jal	800026a4 <pwm_set_duty_cycle>
    8000276a:	fe842703          	lw	a4,-24(s0)
    8000276e:	fec42783          	lw	a5,-20(s0)
    80002772:	85ba                	mv	a1,a4
    80002774:	853e                	mv	a0,a5
    80002776:	eefff0ef          	jal	80002664 <pwm_set_clock>
    8000277a:	fdf44703          	lbu	a4,-33(s0)
    8000277e:	fec42783          	lw	a5,-20(s0)
    80002782:	85ba                	mv	a1,a4
    80002784:	853e                	mv	a0,a5
    80002786:	e85ff0ef          	jal	8000260a <pwm_use_external_clock>
    8000278a:	fec42783          	lw	a5,-20(s0)
    8000278e:	85be                	mv	a1,a5
    80002790:	00002517          	auipc	a0,0x2
    80002794:	26050513          	addi	a0,a0,608 # 800049f0 <__rodata_start+0xd48>
    80002798:	b5ffd0ef          	jal	800002f6 <log_info>
    8000279c:	0001                	nop
    8000279e:	70a2                	ld	ra,40(sp)
    800027a0:	7402                	ld	s0,32(sp)
    800027a2:	6145                	addi	sp,sp,48
    800027a4:	8082                	ret

00000000800027a6 <pwm_stop>:
    800027a6:	1101                	addi	sp,sp,-32
    800027a8:	ec06                	sd	ra,24(sp)
    800027aa:	e822                	sd	s0,16(sp)
    800027ac:	1000                	addi	s0,sp,32
    800027ae:	87aa                	mv	a5,a0
    800027b0:	fef42623          	sw	a5,-20(s0)
    800027b4:	fec42783          	lw	a5,-20(s0)
    800027b8:	4581                	li	a1,0
    800027ba:	853e                	mv	a0,a5
    800027bc:	b1fff0ef          	jal	800022da <set_pwm_control_register>
    800027c0:	fec42783          	lw	a5,-20(s0)
    800027c4:	85be                	mv	a1,a5
    800027c6:	00002517          	auipc	a0,0x2
    800027ca:	24a50513          	addi	a0,a0,586 # 80004a10 <__rodata_start+0xd68>
    800027ce:	b29fd0ef          	jal	800002f6 <log_info>
    800027d2:	0001                	nop
    800027d4:	60e2                	ld	ra,24(sp)
    800027d6:	6442                	ld	s0,16(sp)
    800027d8:	6105                	addi	sp,sp,32
    800027da:	8082                	ret

00000000800027dc <show_register_values>:
    800027dc:	7139                	addi	sp,sp,-64
    800027de:	fc06                	sd	ra,56(sp)
    800027e0:	f822                	sd	s0,48(sp)
    800027e2:	0080                	addi	s0,sp,64
    800027e4:	87aa                	mv	a5,a0
    800027e6:	fcf42623          	sw	a5,-52(s0)
    800027ea:	fcc42783          	lw	a5,-52(s0)
    800027ee:	3007879b          	addiw	a5,a5,768
    800027f2:	2781                	sext.w	a5,a5
    800027f4:	0087979b          	slliw	a5,a5,0x8
    800027f8:	2781                	sext.w	a5,a5
    800027fa:	fef43423          	sd	a5,-24(s0)
    800027fe:	fcc42783          	lw	a5,-52(s0)
    80002802:	3007879b          	addiw	a5,a5,768
    80002806:	2781                	sext.w	a5,a5
    80002808:	0087979b          	slliw	a5,a5,0x8
    8000280c:	2781                	sext.w	a5,a5
    8000280e:	2791                	addiw	a5,a5,4
    80002810:	2781                	sext.w	a5,a5
    80002812:	fef43023          	sd	a5,-32(s0)
    80002816:	fcc42783          	lw	a5,-52(s0)
    8000281a:	3007879b          	addiw	a5,a5,768
    8000281e:	2781                	sext.w	a5,a5
    80002820:	0087979b          	slliw	a5,a5,0x8
    80002824:	2781                	sext.w	a5,a5
    80002826:	27a1                	addiw	a5,a5,8
    80002828:	2781                	sext.w	a5,a5
    8000282a:	fcf43c23          	sd	a5,-40(s0)
    8000282e:	fcc42783          	lw	a5,-52(s0)
    80002832:	3007879b          	addiw	a5,a5,768
    80002836:	2781                	sext.w	a5,a5
    80002838:	0087979b          	slliw	a5,a5,0x8
    8000283c:	2781                	sext.w	a5,a5
    8000283e:	27b1                	addiw	a5,a5,12
    80002840:	2781                	sext.w	a5,a5
    80002842:	fcf43823          	sd	a5,-48(s0)
    80002846:	fe843783          	ld	a5,-24(s0)
    8000284a:	0007d783          	lhu	a5,0(a5)
    8000284e:	17c2                	slli	a5,a5,0x30
    80002850:	93c1                	srli	a5,a5,0x30
    80002852:	2781                	sext.w	a5,a5
    80002854:	85be                	mv	a1,a5
    80002856:	00002517          	auipc	a0,0x2
    8000285a:	1e250513          	addi	a0,a0,482 # 80004a38 <__rodata_start+0xd90>
    8000285e:	a99fd0ef          	jal	800002f6 <log_info>
    80002862:	fe043783          	ld	a5,-32(s0)
    80002866:	0007d783          	lhu	a5,0(a5)
    8000286a:	17c2                	slli	a5,a5,0x30
    8000286c:	93c1                	srli	a5,a5,0x30
    8000286e:	2781                	sext.w	a5,a5
    80002870:	85be                	mv	a1,a5
    80002872:	00002517          	auipc	a0,0x2
    80002876:	1ee50513          	addi	a0,a0,494 # 80004a60 <__rodata_start+0xdb8>
    8000287a:	a7dfd0ef          	jal	800002f6 <log_info>
    8000287e:	fd843783          	ld	a5,-40(s0)
    80002882:	0007c783          	lbu	a5,0(a5)
    80002886:	0ff7f793          	zext.b	a5,a5
    8000288a:	2781                	sext.w	a5,a5
    8000288c:	85be                	mv	a1,a5
    8000288e:	00002517          	auipc	a0,0x2
    80002892:	1fa50513          	addi	a0,a0,506 # 80004a88 <__rodata_start+0xde0>
    80002896:	a61fd0ef          	jal	800002f6 <log_info>
    8000289a:	fd043783          	ld	a5,-48(s0)
    8000289e:	0007d783          	lhu	a5,0(a5)
    800028a2:	17c2                	slli	a5,a5,0x30
    800028a4:	93c1                	srli	a5,a5,0x30
    800028a6:	2781                	sext.w	a5,a5
    800028a8:	85be                	mv	a1,a5
    800028aa:	00002517          	auipc	a0,0x2
    800028ae:	20650513          	addi	a0,a0,518 # 80004ab0 <__rodata_start+0xe08>
    800028b2:	a45fd0ef          	jal	800002f6 <log_info>
    800028b6:	0001                	nop
    800028b8:	70e2                	ld	ra,56(sp)
    800028ba:	7442                	ld	s0,48(sp)
    800028bc:	6121                	addi	sp,sp,64
    800028be:	8082                	ret

00000000800028c0 <rdcycle>:
    800028c0:	1101                	addi	sp,sp,-32
    800028c2:	ec22                	sd	s0,24(sp)
    800028c4:	1000                	addi	s0,sp,32
    800028c6:	c00027f3          	rdcycle	a5
    800028ca:	fef43423          	sd	a5,-24(s0)
    800028ce:	fe843783          	ld	a5,-24(s0)
    800028d2:	853e                	mv	a0,a5
    800028d4:	6462                	ld	s0,24(sp)
    800028d6:	6105                	addi	sp,sp,32
    800028d8:	8082                	ret

00000000800028da <gpio_set>:
    800028da:	7179                	addi	sp,sp,-48
    800028dc:	f406                	sd	ra,40(sp)
    800028de:	f022                	sd	s0,32(sp)
    800028e0:	1800                	addi	s0,sp,48
    800028e2:	87aa                	mv	a5,a0
    800028e4:	fcf42e23          	sw	a5,-36(s0)
    800028e8:	000407b7          	lui	a5,0x40
    800028ec:	10878513          	addi	a0,a5,264 # 40108 <_tbss_end+0x40108>
    800028f0:	f01fe0ef          	jal	800017f0 <read_word>
    800028f4:	87aa                	mv	a5,a0
    800028f6:	fef42623          	sw	a5,-20(s0)
    800028fa:	fec42783          	lw	a5,-20(s0)
    800028fe:	873e                	mv	a4,a5
    80002900:	fdc42783          	lw	a5,-36(s0)
    80002904:	8fd9                	or	a5,a5,a4
    80002906:	2781                	sext.w	a5,a5
    80002908:	1782                	slli	a5,a5,0x20
    8000290a:	9381                	srli	a5,a5,0x20
    8000290c:	85be                	mv	a1,a5
    8000290e:	000407b7          	lui	a5,0x40
    80002912:	10878513          	addi	a0,a5,264 # 40108 <_tbss_end+0x40108>
    80002916:	f13fe0ef          	jal	80001828 <write_word>
    8000291a:	0001                	nop
    8000291c:	70a2                	ld	ra,40(sp)
    8000291e:	7402                	ld	s0,32(sp)
    80002920:	6145                	addi	sp,sp,48
    80002922:	8082                	ret

0000000080002924 <gpio_clr>:
    80002924:	7179                	addi	sp,sp,-48
    80002926:	f406                	sd	ra,40(sp)
    80002928:	f022                	sd	s0,32(sp)
    8000292a:	1800                	addi	s0,sp,48
    8000292c:	87aa                	mv	a5,a0
    8000292e:	fcf42e23          	sw	a5,-36(s0)
    80002932:	000407b7          	lui	a5,0x40
    80002936:	10878513          	addi	a0,a5,264 # 40108 <_tbss_end+0x40108>
    8000293a:	eb7fe0ef          	jal	800017f0 <read_word>
    8000293e:	87aa                	mv	a5,a0
    80002940:	fef42623          	sw	a5,-20(s0)
    80002944:	fdc42783          	lw	a5,-36(s0)
    80002948:	fff7c793          	not	a5,a5
    8000294c:	2781                	sext.w	a5,a5
    8000294e:	fec42703          	lw	a4,-20(s0)
    80002952:	8ff9                	and	a5,a5,a4
    80002954:	2781                	sext.w	a5,a5
    80002956:	1782                	slli	a5,a5,0x20
    80002958:	9381                	srli	a5,a5,0x20
    8000295a:	85be                	mv	a1,a5
    8000295c:	000407b7          	lui	a5,0x40
    80002960:	10878513          	addi	a0,a5,264 # 40108 <_tbss_end+0x40108>
    80002964:	ec5fe0ef          	jal	80001828 <write_word>
    80002968:	0001                	nop
    8000296a:	70a2                	ld	ra,40(sp)
    8000296c:	7402                	ld	s0,32(sp)
    8000296e:	6145                	addi	sp,sp,48
    80002970:	8082                	ret

0000000080002972 <busy_ticks>:
    80002972:	1101                	addi	sp,sp,-32
    80002974:	ec22                	sd	s0,24(sp)
    80002976:	1000                	addi	s0,sp,32
    80002978:	fea43423          	sd	a0,-24(s0)
    8000297c:	a011                	j	80002980 <busy_ticks+0xe>
    8000297e:	0001                	nop
    80002980:	fe843783          	ld	a5,-24(s0)
    80002984:	fff78713          	addi	a4,a5,-1
    80002988:	fee43423          	sd	a4,-24(s0)
    8000298c:	fbed                	bnez	a5,8000297e <busy_ticks+0xc>
    8000298e:	0001                	nop
    80002990:	0001                	nop
    80002992:	6462                	ld	s0,24(sp)
    80002994:	6105                	addi	sp,sp,32
    80002996:	8082                	ret

0000000080002998 <trigger_sensor>:
    80002998:	1101                	addi	sp,sp,-32
    8000299a:	ec06                	sd	ra,24(sp)
    8000299c:	e822                	sd	s0,16(sp)
    8000299e:	1000                	addi	s0,sp,32
    800029a0:	87aa                	mv	a5,a0
    800029a2:	fef42623          	sw	a5,-20(s0)
    800029a6:	fec42783          	lw	a5,-20(s0)
    800029aa:	853e                	mv	a0,a5
    800029ac:	f79ff0ef          	jal	80002924 <gpio_clr>
    800029b0:	06400593          	li	a1,100
    800029b4:	06400513          	li	a0,100
    800029b8:	df1fe0ef          	jal	800017a8 <delay_loop>
    800029bc:	fec42783          	lw	a5,-20(s0)
    800029c0:	853e                	mv	a0,a5
    800029c2:	f19ff0ef          	jal	800028da <gpio_set>
    800029c6:	45a9                	li	a1,10
    800029c8:	4529                	li	a0,10
    800029ca:	ddffe0ef          	jal	800017a8 <delay_loop>
    800029ce:	fec42783          	lw	a5,-20(s0)
    800029d2:	853e                	mv	a0,a5
    800029d4:	f51ff0ef          	jal	80002924 <gpio_clr>
    800029d8:	0001                	nop
    800029da:	60e2                	ld	ra,24(sp)
    800029dc:	6442                	ld	s0,16(sp)
    800029de:	6105                	addi	sp,sp,32
    800029e0:	8082                	ret

00000000800029e2 <measure_echo_us>:
    800029e2:	715d                	addi	sp,sp,-80
    800029e4:	e486                	sd	ra,72(sp)
    800029e6:	e0a2                	sd	s0,64(sp)
    800029e8:	0880                	addi	s0,sp,80
    800029ea:	87aa                	mv	a5,a0
    800029ec:	faf42e23          	sw	a5,-68(s0)
    800029f0:	ed1ff0ef          	jal	800028c0 <rdcycle>
    800029f4:	872a                	mv	a4,a0
    800029f6:	0016e7b7          	lui	a5,0x16e
    800029fa:	36078793          	addi	a5,a5,864 # 16e360 <_tbss_end+0x16e360>
    800029fe:	97ba                	add	a5,a5,a4
    80002a00:	fef43423          	sd	a5,-24(s0)
    80002a04:	0016e7b7          	lui	a5,0x16e
    80002a08:	36078793          	addi	a5,a5,864 # 16e360 <_tbss_end+0x16e360>
    80002a0c:	fef43023          	sd	a5,-32(s0)
    80002a10:	a811                	j	80002a24 <measure_echo_us+0x42>
    80002a12:	eafff0ef          	jal	800028c0 <rdcycle>
    80002a16:	872a                	mv	a4,a0
    80002a18:	fe843783          	ld	a5,-24(s0)
    80002a1c:	00e7f463          	bgeu	a5,a4,80002a24 <measure_echo_us+0x42>
    80002a20:	4781                	li	a5,0
    80002a22:	a85d                	j	80002ad8 <measure_echo_us+0xf6>
    80002a24:	000407b7          	lui	a5,0x40
    80002a28:	10878513          	addi	a0,a5,264 # 40108 <_tbss_end+0x40108>
    80002a2c:	dc5fe0ef          	jal	800017f0 <read_word>
    80002a30:	872a                	mv	a4,a0
    80002a32:	fbc46783          	lwu	a5,-68(s0)
    80002a36:	8ff9                	and	a5,a5,a4
    80002a38:	ffe9                	bnez	a5,80002a12 <measure_echo_us+0x30>
    80002a3a:	a811                	j	80002a4e <measure_echo_us+0x6c>
    80002a3c:	e85ff0ef          	jal	800028c0 <rdcycle>
    80002a40:	872a                	mv	a4,a0
    80002a42:	fe843783          	ld	a5,-24(s0)
    80002a46:	00e7f463          	bgeu	a5,a4,80002a4e <measure_echo_us+0x6c>
    80002a4a:	4781                	li	a5,0
    80002a4c:	a071                	j	80002ad8 <measure_echo_us+0xf6>
    80002a4e:	000407b7          	lui	a5,0x40
    80002a52:	10878513          	addi	a0,a5,264 # 40108 <_tbss_end+0x40108>
    80002a56:	d9bfe0ef          	jal	800017f0 <read_word>
    80002a5a:	872a                	mv	a4,a0
    80002a5c:	fbc46783          	lwu	a5,-68(s0)
    80002a60:	8ff9                	and	a5,a5,a4
    80002a62:	dfe9                	beqz	a5,80002a3c <measure_echo_us+0x5a>
    80002a64:	e5dff0ef          	jal	800028c0 <rdcycle>
    80002a68:	fca43c23          	sd	a0,-40(s0)
    80002a6c:	fd843703          	ld	a4,-40(s0)
    80002a70:	fe043783          	ld	a5,-32(s0)
    80002a74:	97ba                	add	a5,a5,a4
    80002a76:	fcf43823          	sd	a5,-48(s0)
    80002a7a:	a821                	j	80002a92 <measure_echo_us+0xb0>
    80002a7c:	e45ff0ef          	jal	800028c0 <rdcycle>
    80002a80:	872a                	mv	a4,a0
    80002a82:	fd043783          	ld	a5,-48(s0)
    80002a86:	00e7f663          	bgeu	a5,a4,80002a92 <measure_echo_us+0xb0>
    80002a8a:	679d                	lui	a5,0x7
    80002a8c:	53078793          	addi	a5,a5,1328 # 7530 <_tbss_end+0x7530>
    80002a90:	a0a1                	j	80002ad8 <measure_echo_us+0xf6>
    80002a92:	000407b7          	lui	a5,0x40
    80002a96:	10878513          	addi	a0,a5,264 # 40108 <_tbss_end+0x40108>
    80002a9a:	d57fe0ef          	jal	800017f0 <read_word>
    80002a9e:	872a                	mv	a4,a0
    80002aa0:	fbc46783          	lwu	a5,-68(s0)
    80002aa4:	8ff9                	and	a5,a5,a4
    80002aa6:	fbf9                	bnez	a5,80002a7c <measure_echo_us+0x9a>
    80002aa8:	e19ff0ef          	jal	800028c0 <rdcycle>
    80002aac:	872a                	mv	a4,a0
    80002aae:	fd843783          	ld	a5,-40(s0)
    80002ab2:	40f707b3          	sub	a5,a4,a5
    80002ab6:	fcf43423          	sd	a5,-56(s0)
    80002aba:	fc843703          	ld	a4,-56(s0)
    80002abe:	000f47b7          	lui	a5,0xf4
    80002ac2:	24078793          	addi	a5,a5,576 # f4240 <_tbss_end+0xf4240>
    80002ac6:	02f70733          	mul	a4,a4,a5
    80002aca:	02faf7b7          	lui	a5,0x2faf
    80002ace:	08078793          	addi	a5,a5,128 # 2faf080 <_tbss_end+0x2faf080>
    80002ad2:	02f757b3          	divu	a5,a4,a5
    80002ad6:	2781                	sext.w	a5,a5
    80002ad8:	853e                	mv	a0,a5
    80002ada:	60a6                	ld	ra,72(sp)
    80002adc:	6406                	ld	s0,64(sp)
    80002ade:	6161                	addi	sp,sp,80
    80002ae0:	8082                	ret

0000000080002ae2 <us_to_tenths_cm>:
    80002ae2:	1101                	addi	sp,sp,-32
    80002ae4:	ec22                	sd	s0,24(sp)
    80002ae6:	1000                	addi	s0,sp,32
    80002ae8:	87aa                	mv	a5,a0
    80002aea:	fef42623          	sw	a5,-20(s0)
    80002aee:	fec42783          	lw	a5,-20(s0)
    80002af2:	873e                	mv	a4,a5
    80002af4:	15700793          	li	a5,343
    80002af8:	02f707bb          	mulw	a5,a4,a5
    80002afc:	2781                	sext.w	a5,a5
    80002afe:	873e                	mv	a4,a5
    80002b00:	0c800793          	li	a5,200
    80002b04:	02f757bb          	divuw	a5,a4,a5
    80002b08:	2781                	sext.w	a5,a5
    80002b0a:	853e                	mv	a0,a5
    80002b0c:	6462                	ld	s0,24(sp)
    80002b0e:	6105                	addi	sp,sp,32
    80002b10:	8082                	ret

0000000080002b12 <en_high>:
    80002b12:	1141                	addi	sp,sp,-16
    80002b14:	e406                	sd	ra,8(sp)
    80002b16:	e022                	sd	s0,0(sp)
    80002b18:	0800                	addi	s0,sp,16
    80002b1a:	6505                	lui	a0,0x1
    80002b1c:	dbfff0ef          	jal	800028da <gpio_set>
    80002b20:	6509                	lui	a0,0x2
    80002b22:	db9ff0ef          	jal	800028da <gpio_set>
    80002b26:	0001                	nop
    80002b28:	60a2                	ld	ra,8(sp)
    80002b2a:	6402                	ld	s0,0(sp)
    80002b2c:	0141                	addi	sp,sp,16
    80002b2e:	8082                	ret

0000000080002b30 <motors_stop>:
    80002b30:	1101                	addi	sp,sp,-32
    80002b32:	ec06                	sd	ra,24(sp)
    80002b34:	e822                	sd	s0,16(sp)
    80002b36:	1000                	addi	s0,sp,32
    80002b38:	000407b7          	lui	a5,0x40
    80002b3c:	10878513          	addi	a0,a5,264 # 40108 <_tbss_end+0x40108>
    80002b40:	cb1fe0ef          	jal	800017f0 <read_word>
    80002b44:	87aa                	mv	a5,a0
    80002b46:	fef42623          	sw	a5,-20(s0)
    80002b4a:	fec42783          	lw	a5,-20(s0)
    80002b4e:	87f7f793          	andi	a5,a5,-1921
    80002b52:	fef42623          	sw	a5,-20(s0)
    80002b56:	fec46783          	lwu	a5,-20(s0)
    80002b5a:	85be                	mv	a1,a5
    80002b5c:	000407b7          	lui	a5,0x40
    80002b60:	10878513          	addi	a0,a5,264 # 40108 <_tbss_end+0x40108>
    80002b64:	cc5fe0ef          	jal	80001828 <write_word>
    80002b68:	0001                	nop
    80002b6a:	60e2                	ld	ra,24(sp)
    80002b6c:	6442                	ld	s0,16(sp)
    80002b6e:	6105                	addi	sp,sp,32
    80002b70:	8082                	ret

0000000080002b72 <motors_forward>:
    80002b72:	1101                	addi	sp,sp,-32
    80002b74:	ec06                	sd	ra,24(sp)
    80002b76:	e822                	sd	s0,16(sp)
    80002b78:	1000                	addi	s0,sp,32
    80002b7a:	f99ff0ef          	jal	80002b12 <en_high>
    80002b7e:	000407b7          	lui	a5,0x40
    80002b82:	10878513          	addi	a0,a5,264 # 40108 <_tbss_end+0x40108>
    80002b86:	c6bfe0ef          	jal	800017f0 <read_word>
    80002b8a:	87aa                	mv	a5,a0
    80002b8c:	fef42623          	sw	a5,-20(s0)
    80002b90:	fec42783          	lw	a5,-20(s0)
    80002b94:	aff7f793          	andi	a5,a5,-1281
    80002b98:	fef42623          	sw	a5,-20(s0)
    80002b9c:	fec42783          	lw	a5,-20(s0)
    80002ba0:	2807e793          	ori	a5,a5,640
    80002ba4:	fef42623          	sw	a5,-20(s0)
    80002ba8:	fec46783          	lwu	a5,-20(s0)
    80002bac:	85be                	mv	a1,a5
    80002bae:	000407b7          	lui	a5,0x40
    80002bb2:	10878513          	addi	a0,a5,264 # 40108 <_tbss_end+0x40108>
    80002bb6:	c73fe0ef          	jal	80001828 <write_word>
    80002bba:	0001                	nop
    80002bbc:	60e2                	ld	ra,24(sp)
    80002bbe:	6442                	ld	s0,16(sp)
    80002bc0:	6105                	addi	sp,sp,32
    80002bc2:	8082                	ret

0000000080002bc4 <motors_turn_left>:
    80002bc4:	1101                	addi	sp,sp,-32
    80002bc6:	ec06                	sd	ra,24(sp)
    80002bc8:	e822                	sd	s0,16(sp)
    80002bca:	1000                	addi	s0,sp,32
    80002bcc:	f47ff0ef          	jal	80002b12 <en_high>
    80002bd0:	000407b7          	lui	a5,0x40
    80002bd4:	10878513          	addi	a0,a5,264 # 40108 <_tbss_end+0x40108>
    80002bd8:	c19fe0ef          	jal	800017f0 <read_word>
    80002bdc:	87aa                	mv	a5,a0
    80002bde:	fef42623          	sw	a5,-20(s0)
    80002be2:	fec42783          	lw	a5,-20(s0)
    80002be6:	a7f7f793          	andi	a5,a5,-1409
    80002bea:	fef42623          	sw	a5,-20(s0)
    80002bee:	fec42783          	lw	a5,-20(s0)
    80002bf2:	2007e793          	ori	a5,a5,512
    80002bf6:	fef42623          	sw	a5,-20(s0)
    80002bfa:	fec46783          	lwu	a5,-20(s0)
    80002bfe:	85be                	mv	a1,a5
    80002c00:	000407b7          	lui	a5,0x40
    80002c04:	10878513          	addi	a0,a5,264 # 40108 <_tbss_end+0x40108>
    80002c08:	c21fe0ef          	jal	80001828 <write_word>
    80002c0c:	0001                	nop
    80002c0e:	60e2                	ld	ra,24(sp)
    80002c10:	6442                	ld	s0,16(sp)
    80002c12:	6105                	addi	sp,sp,32
    80002c14:	8082                	ret

0000000080002c16 <motors_turn_right>:
    80002c16:	1101                	addi	sp,sp,-32
    80002c18:	ec06                	sd	ra,24(sp)
    80002c1a:	e822                	sd	s0,16(sp)
    80002c1c:	1000                	addi	s0,sp,32
    80002c1e:	ef5ff0ef          	jal	80002b12 <en_high>
    80002c22:	000407b7          	lui	a5,0x40
    80002c26:	10878513          	addi	a0,a5,264 # 40108 <_tbss_end+0x40108>
    80002c2a:	bc7fe0ef          	jal	800017f0 <read_word>
    80002c2e:	87aa                	mv	a5,a0
    80002c30:	fef42623          	sw	a5,-20(s0)
    80002c34:	fec42783          	lw	a5,-20(s0)
    80002c38:	8ff7f793          	andi	a5,a5,-1793
    80002c3c:	fef42623          	sw	a5,-20(s0)
    80002c40:	fec42783          	lw	a5,-20(s0)
    80002c44:	0807e793          	ori	a5,a5,128
    80002c48:	fef42623          	sw	a5,-20(s0)
    80002c4c:	fec46783          	lwu	a5,-20(s0)
    80002c50:	85be                	mv	a1,a5
    80002c52:	000407b7          	lui	a5,0x40
    80002c56:	10878513          	addi	a0,a5,264 # 40108 <_tbss_end+0x40108>
    80002c5a:	bcffe0ef          	jal	80001828 <write_word>
    80002c5e:	0001                	nop
    80002c60:	60e2                	ld	ra,24(sp)
    80002c62:	6442                	ld	s0,16(sp)
    80002c64:	6105                	addi	sp,sp,32
    80002c66:	8082                	ret

0000000080002c68 <buzzer_beep_blocking>:
    80002c68:	1141                	addi	sp,sp,-16
    80002c6a:	e406                	sd	ra,8(sp)
    80002c6c:	e022                	sd	s0,0(sp)
    80002c6e:	0800                	addi	s0,sp,16
    80002c70:	4505                	li	a0,1
    80002c72:	c69ff0ef          	jal	800028da <gpio_set>
    80002c76:	67b1                	lui	a5,0xc
    80002c78:	35078513          	addi	a0,a5,848 # c350 <_tbss_end+0xc350>
    80002c7c:	cf7ff0ef          	jal	80002972 <busy_ticks>
    80002c80:	4505                	li	a0,1
    80002c82:	ca3ff0ef          	jal	80002924 <gpio_clr>
    80002c86:	67b1                	lui	a5,0xc
    80002c88:	35078513          	addi	a0,a5,848 # c350 <_tbss_end+0xc350>
    80002c8c:	ce7ff0ef          	jal	80002972 <busy_ticks>
    80002c90:	b7c5                	j	80002c70 <buzzer_beep_blocking+0x8>

0000000080002c92 <main>:
    80002c92:	7179                	addi	sp,sp,-48
    80002c94:	f406                	sd	ra,40(sp)
    80002c96:	f022                	sd	s0,32(sp)
    80002c98:	1800                	addi	s0,sp,48
    80002c9a:	678d                	lui	a5,0x3
    80002c9c:	7ab78793          	addi	a5,a5,1963 # 37ab <_tbss_end+0x37ab>
    80002ca0:	fef42623          	sw	a5,-20(s0)
    80002ca4:	fec46783          	lwu	a5,-20(s0)
    80002ca8:	85be                	mv	a1,a5
    80002caa:	000407b7          	lui	a5,0x40
    80002cae:	10078513          	addi	a0,a5,256 # 40100 <_tbss_end+0x40100>
    80002cb2:	b77fe0ef          	jal	80001828 <write_word>
    80002cb6:	e7bff0ef          	jal	80002b30 <motors_stop>
    80002cba:	4505                	li	a0,1
    80002cbc:	c69ff0ef          	jal	80002924 <gpio_clr>
    80002cc0:	e53ff0ef          	jal	80002b12 <en_high>
    80002cc4:	eafff0ef          	jal	80002b72 <motors_forward>
    80002cc8:	4509                	li	a0,2
    80002cca:	ccfff0ef          	jal	80002998 <trigger_sensor>
    80002cce:	4511                	li	a0,4
    80002cd0:	d13ff0ef          	jal	800029e2 <measure_echo_us>
    80002cd4:	87aa                	mv	a5,a0
    80002cd6:	fef42423          	sw	a5,-24(s0)
    80002cda:	fe842783          	lw	a5,-24(s0)
    80002cde:	2781                	sext.w	a5,a5
    80002ce0:	cb89                	beqz	a5,80002cf2 <main+0x60>
    80002ce2:	fe842783          	lw	a5,-24(s0)
    80002ce6:	853e                	mv	a0,a5
    80002ce8:	dfbff0ef          	jal	80002ae2 <us_to_tenths_cm>
    80002cec:	87aa                	mv	a5,a0
    80002cee:	2781                	sext.w	a5,a5
    80002cf0:	a011                	j	80002cf4 <main+0x62>
    80002cf2:	4781                	li	a5,0
    80002cf4:	fef42223          	sw	a5,-28(s0)
    80002cf8:	fe442783          	lw	a5,-28(s0)
    80002cfc:	873e                	mv	a4,a5
    80002cfe:	47a9                	li	a5,10
    80002d00:	02f757bb          	divuw	a5,a4,a5
    80002d04:	0007871b          	sext.w	a4,a5
    80002d08:	fe442783          	lw	a5,-28(s0)
    80002d0c:	86be                	mv	a3,a5
    80002d0e:	47a9                	li	a5,10
    80002d10:	02f6f7bb          	remuw	a5,a3,a5
    80002d14:	0007869b          	sext.w	a3,a5
    80002d18:	fe842783          	lw	a5,-24(s0)
    80002d1c:	863a                	mv	a2,a4
    80002d1e:	85be                	mv	a1,a5
    80002d20:	00002517          	auipc	a0,0x2
    80002d24:	db850513          	addi	a0,a0,-584 # 80004ad8 <__rodata_start+0xe30>
    80002d28:	ba1fd0ef          	jal	800008c8 <printf>
    80002d2c:	fe842783          	lw	a5,-24(s0)
    80002d30:	2781                	sext.w	a5,a5
    80002d32:	1c078d63          	beqz	a5,80002f0c <main+0x27a>
    80002d36:	fe442783          	lw	a5,-28(s0)
    80002d3a:	0007871b          	sext.w	a4,a5
    80002d3e:	3e800793          	li	a5,1000
    80002d42:	1ce7e563          	bltu	a5,a4,80002f0c <main+0x27a>
    80002d46:	debff0ef          	jal	80002b30 <motors_stop>
    80002d4a:	00002517          	auipc	a0,0x2
    80002d4e:	dae50513          	addi	a0,a0,-594 # 80004af8 <__rodata_start+0xe50>
    80002d52:	b77fd0ef          	jal	800008c8 <printf>
    80002d56:	3e800593          	li	a1,1000
    80002d5a:	3e800513          	li	a0,1000
    80002d5e:	a4bfe0ef          	jal	800017a8 <delay_loop>
    80002d62:	4521                	li	a0,8
    80002d64:	c35ff0ef          	jal	80002998 <trigger_sensor>
    80002d68:	4541                	li	a0,16
    80002d6a:	c79ff0ef          	jal	800029e2 <measure_echo_us>
    80002d6e:	87aa                	mv	a5,a0
    80002d70:	fef42023          	sw	a5,-32(s0)
    80002d74:	fe042783          	lw	a5,-32(s0)
    80002d78:	2781                	sext.w	a5,a5
    80002d7a:	cb89                	beqz	a5,80002d8c <main+0xfa>
    80002d7c:	fe042783          	lw	a5,-32(s0)
    80002d80:	853e                	mv	a0,a5
    80002d82:	d61ff0ef          	jal	80002ae2 <us_to_tenths_cm>
    80002d86:	87aa                	mv	a5,a0
    80002d88:	2781                	sext.w	a5,a5
    80002d8a:	a011                	j	80002d8e <main+0xfc>
    80002d8c:	4781                	li	a5,0
    80002d8e:	fcf42e23          	sw	a5,-36(s0)
    80002d92:	fdc42783          	lw	a5,-36(s0)
    80002d96:	873e                	mv	a4,a5
    80002d98:	47a9                	li	a5,10
    80002d9a:	02f757bb          	divuw	a5,a4,a5
    80002d9e:	0007871b          	sext.w	a4,a5
    80002da2:	fdc42783          	lw	a5,-36(s0)
    80002da6:	86be                	mv	a3,a5
    80002da8:	47a9                	li	a5,10
    80002daa:	02f6f7bb          	remuw	a5,a3,a5
    80002dae:	0007869b          	sext.w	a3,a5
    80002db2:	fe042783          	lw	a5,-32(s0)
    80002db6:	863a                	mv	a2,a4
    80002db8:	85be                	mv	a1,a5
    80002dba:	00002517          	auipc	a0,0x2
    80002dbe:	d6650513          	addi	a0,a0,-666 # 80004b20 <__rodata_start+0xe78>
    80002dc2:	b07fd0ef          	jal	800008c8 <printf>
    80002dc6:	3e800593          	li	a1,1000
    80002dca:	3e800513          	li	a0,1000
    80002dce:	9dbfe0ef          	jal	800017a8 <delay_loop>
    80002dd2:	02000513          	li	a0,32
    80002dd6:	bc3ff0ef          	jal	80002998 <trigger_sensor>
    80002dda:	04000513          	li	a0,64
    80002dde:	c05ff0ef          	jal	800029e2 <measure_echo_us>
    80002de2:	87aa                	mv	a5,a0
    80002de4:	fcf42c23          	sw	a5,-40(s0)
    80002de8:	fd842783          	lw	a5,-40(s0)
    80002dec:	2781                	sext.w	a5,a5
    80002dee:	cb89                	beqz	a5,80002e00 <main+0x16e>
    80002df0:	fd842783          	lw	a5,-40(s0)
    80002df4:	853e                	mv	a0,a5
    80002df6:	cedff0ef          	jal	80002ae2 <us_to_tenths_cm>
    80002dfa:	87aa                	mv	a5,a0
    80002dfc:	2781                	sext.w	a5,a5
    80002dfe:	a011                	j	80002e02 <main+0x170>
    80002e00:	4781                	li	a5,0
    80002e02:	fcf42a23          	sw	a5,-44(s0)
    80002e06:	fd442783          	lw	a5,-44(s0)
    80002e0a:	873e                	mv	a4,a5
    80002e0c:	47a9                	li	a5,10
    80002e0e:	02f757bb          	divuw	a5,a4,a5
    80002e12:	0007871b          	sext.w	a4,a5
    80002e16:	fd442783          	lw	a5,-44(s0)
    80002e1a:	86be                	mv	a3,a5
    80002e1c:	47a9                	li	a5,10
    80002e1e:	02f6f7bb          	remuw	a5,a3,a5
    80002e22:	0007869b          	sext.w	a3,a5
    80002e26:	fd842783          	lw	a5,-40(s0)
    80002e2a:	863a                	mv	a2,a4
    80002e2c:	85be                	mv	a1,a5
    80002e2e:	00002517          	auipc	a0,0x2
    80002e32:	d1250513          	addi	a0,a0,-750 # 80004b40 <__rodata_start+0xe98>
    80002e36:	a93fd0ef          	jal	800008c8 <printf>
    80002e3a:	fe042783          	lw	a5,-32(s0)
    80002e3e:	2781                	sext.w	a5,a5
    80002e40:	cb99                	beqz	a5,80002e56 <main+0x1c4>
    80002e42:	fdc42783          	lw	a5,-36(s0)
    80002e46:	0007871b          	sext.w	a4,a5
    80002e4a:	3e800793          	li	a5,1000
    80002e4e:	00e7f463          	bgeu	a5,a4,80002e56 <main+0x1c4>
    80002e52:	4785                	li	a5,1
    80002e54:	a011                	j	80002e58 <main+0x1c6>
    80002e56:	4781                	li	a5,0
    80002e58:	fcf409a3          	sb	a5,-45(s0)
    80002e5c:	fd842783          	lw	a5,-40(s0)
    80002e60:	2781                	sext.w	a5,a5
    80002e62:	cb99                	beqz	a5,80002e78 <main+0x1e6>
    80002e64:	fd442783          	lw	a5,-44(s0)
    80002e68:	0007871b          	sext.w	a4,a5
    80002e6c:	3e800793          	li	a5,1000
    80002e70:	00e7f463          	bgeu	a5,a4,80002e78 <main+0x1e6>
    80002e74:	4785                	li	a5,1
    80002e76:	a011                	j	80002e7a <main+0x1e8>
    80002e78:	4781                	li	a5,0
    80002e7a:	fcf40923          	sb	a5,-46(s0)
    80002e7e:	fd344783          	lbu	a5,-45(s0)
    80002e82:	0ff7f793          	zext.b	a5,a5
    80002e86:	e791                	bnez	a5,80002e92 <main+0x200>
    80002e88:	fd244783          	lbu	a5,-46(s0)
    80002e8c:	0ff7f793          	zext.b	a5,a5
    80002e90:	c7a5                	beqz	a5,80002ef8 <main+0x266>
    80002e92:	fd344783          	lbu	a5,-45(s0)
    80002e96:	0ff7f793          	zext.b	a5,a5
    80002e9a:	cb85                	beqz	a5,80002eca <main+0x238>
    80002e9c:	fd244783          	lbu	a5,-46(s0)
    80002ea0:	0ff7f793          	zext.b	a5,a5
    80002ea4:	cb91                	beqz	a5,80002eb8 <main+0x226>
    80002ea6:	fdc42783          	lw	a5,-36(s0)
    80002eaa:	873e                	mv	a4,a5
    80002eac:	fd442783          	lw	a5,-44(s0)
    80002eb0:	2701                	sext.w	a4,a4
    80002eb2:	2781                	sext.w	a5,a5
    80002eb4:	00f76b63          	bltu	a4,a5,80002eca <main+0x238>
    80002eb8:	00002517          	auipc	a0,0x2
    80002ebc:	ca850513          	addi	a0,a0,-856 # 80004b60 <__rodata_start+0xeb8>
    80002ec0:	a09fd0ef          	jal	800008c8 <printf>
    80002ec4:	d01ff0ef          	jal	80002bc4 <motors_turn_left>
    80002ec8:	a809                	j	80002eda <main+0x248>
    80002eca:	00002517          	auipc	a0,0x2
    80002ece:	ca650513          	addi	a0,a0,-858 # 80004b70 <__rodata_start+0xec8>
    80002ed2:	9f7fd0ef          	jal	800008c8 <printf>
    80002ed6:	d41ff0ef          	jal	80002c16 <motors_turn_right>
    80002eda:	3e800593          	li	a1,1000
    80002ede:	3e800513          	li	a0,1000
    80002ee2:	8c7fe0ef          	jal	800017a8 <delay_loop>
    80002ee6:	c4bff0ef          	jal	80002b30 <motors_stop>
    80002eea:	3e800593          	li	a1,1000
    80002eee:	3e800513          	li	a0,1000
    80002ef2:	8b7fe0ef          	jal	800017a8 <delay_loop>
    80002ef6:	a819                	j	80002f0c <main+0x27a>
    80002ef8:	00002517          	auipc	a0,0x2
    80002efc:	c8850513          	addi	a0,a0,-888 # 80004b80 <__rodata_start+0xed8>
    80002f00:	9c9fd0ef          	jal	800008c8 <printf>
    80002f04:	c2dff0ef          	jal	80002b30 <motors_stop>
    80002f08:	d61ff0ef          	jal	80002c68 <buzzer_beep_blocking>
    80002f0c:	3e800593          	li	a1,1000
    80002f10:	3e800513          	li	a0,1000
    80002f14:	895fe0ef          	jal	800017a8 <delay_loop>
    80002f18:	b375                	j	80002cc4 <main+0x32>

0000000080002f1a <__adddf3>:
    80002f1a:	56fd                	li	a3,-1
    80002f1c:	1101                	addi	sp,sp,-32
    80002f1e:	82b1                	srli	a3,a3,0xc
    80002f20:	0345d613          	srli	a2,a1,0x34
    80002f24:	03455713          	srli	a4,a0,0x34
    80002f28:	00a6f833          	and	a6,a3,a0
    80002f2c:	e822                	sd	s0,16(sp)
    80002f2e:	8eed                	and	a3,a3,a1
    80002f30:	e04a                	sd	s2,0(sp)
    80002f32:	7ff67613          	andi	a2,a2,2047
    80002f36:	7ff77913          	andi	s2,a4,2047
    80002f3a:	ec06                	sd	ra,24(sp)
    80002f3c:	e426                	sd	s1,8(sp)
    80002f3e:	03f55413          	srli	s0,a0,0x3f
    80002f42:	91fd                	srli	a1,a1,0x3f
    80002f44:	00369793          	slli	a5,a3,0x3
    80002f48:	080e                	slli	a6,a6,0x3
    80002f4a:	40c906bb          	subw	a3,s2,a2
    80002f4e:	12b41c63          	bne	s0,a1,80003086 <__adddf3+0x16c>
    80002f52:	0006859b          	sext.w	a1,a3
    80002f56:	06b05a63          	blez	a1,80002fca <__adddf3+0xb0>
    80002f5a:	ee1d                	bnez	a2,80002f98 <__adddf3+0x7e>
    80002f5c:	cf85                	beqz	a5,80002f94 <__adddf3+0x7a>
    80002f5e:	fff6859b          	addiw	a1,a3,-1
    80002f62:	e58d                	bnez	a1,80002f8c <__adddf3+0x72>
    80002f64:	97c2                	add	a5,a5,a6
    80002f66:	00879713          	slli	a4,a5,0x8
    80002f6a:	0e075263          	bgez	a4,8000304e <__adddf3+0x134>
    80002f6e:	0905                	addi	s2,s2,1
    80002f70:	7ff00713          	li	a4,2047
    80002f74:	2ce90563          	beq	s2,a4,8000323e <__adddf3+0x324>
    80002f78:	1ff00713          	li	a4,511
    80002f7c:	175a                	slli	a4,a4,0x36
    80002f7e:	0017f693          	andi	a3,a5,1
    80002f82:	177d                	addi	a4,a4,-1
    80002f84:	8385                	srli	a5,a5,0x1
    80002f86:	8ff9                	and	a5,a5,a4
    80002f88:	8fd5                	or	a5,a5,a3
    80002f8a:	a0d1                	j	8000304e <__adddf3+0x134>
    80002f8c:	7ff00713          	li	a4,2047
    80002f90:	00e91b63          	bne	s2,a4,80002fa6 <__adddf3+0x8c>
    80002f94:	87c2                	mv	a5,a6
    80002f96:	a865                	j	8000304e <__adddf3+0x134>
    80002f98:	7ff00713          	li	a4,2047
    80002f9c:	fee90ce3          	beq	s2,a4,80002f94 <__adddf3+0x7a>
    80002fa0:	4705                	li	a4,1
    80002fa2:	175e                	slli	a4,a4,0x37
    80002fa4:	8fd9                	or	a5,a5,a4
    80002fa6:	03800693          	li	a3,56
    80002faa:	4705                	li	a4,1
    80002fac:	00b6cc63          	blt	a3,a1,80002fc4 <__adddf3+0xaa>
    80002fb0:	04000693          	li	a3,64
    80002fb4:	9e8d                	subw	a3,a3,a1
    80002fb6:	00d796b3          	sll	a3,a5,a3
    80002fba:	00b7d733          	srl	a4,a5,a1
    80002fbe:	00d036b3          	snez	a3,a3
    80002fc2:	8f55                	or	a4,a4,a3
    80002fc4:	010707b3          	add	a5,a4,a6
    80002fc8:	bf79                	j	80002f66 <__adddf3+0x4c>
    80002fca:	cdb1                	beqz	a1,80003026 <__adddf3+0x10c>
    80002fcc:	02091263          	bnez	s2,80002ff0 <__adddf3+0xd6>
    80002fd0:	26080363          	beqz	a6,80003236 <__adddf3+0x31c>
    80002fd4:	fff6c693          	not	a3,a3
    80002fd8:	2681                	sext.w	a3,a3
    80002fda:	e681                	bnez	a3,80002fe2 <__adddf3+0xc8>
    80002fdc:	97c2                	add	a5,a5,a6
    80002fde:	8932                	mv	s2,a2
    80002fe0:	b759                	j	80002f66 <__adddf3+0x4c>
    80002fe2:	7ff00713          	li	a4,2047
    80002fe6:	00e61f63          	bne	a2,a4,80003004 <__adddf3+0xea>
    80002fea:	7ff00913          	li	s2,2047
    80002fee:	a085                	j	8000304e <__adddf3+0x134>
    80002ff0:	7ff00713          	li	a4,2047
    80002ff4:	fee60be3          	beq	a2,a4,80002fea <__adddf3+0xd0>
    80002ff8:	4705                	li	a4,1
    80002ffa:	175e                	slli	a4,a4,0x37
    80002ffc:	40d006bb          	negw	a3,a3
    80003000:	00e86833          	or	a6,a6,a4
    80003004:	03800593          	li	a1,56
    80003008:	4705                	li	a4,1
    8000300a:	00d5cc63          	blt	a1,a3,80003022 <__adddf3+0x108>
    8000300e:	04000713          	li	a4,64
    80003012:	9f15                	subw	a4,a4,a3
    80003014:	00e81733          	sll	a4,a6,a4
    80003018:	00d855b3          	srl	a1,a6,a3
    8000301c:	00e03733          	snez	a4,a4
    80003020:	8f4d                	or	a4,a4,a1
    80003022:	97ba                	add	a5,a5,a4
    80003024:	bf6d                	j	80002fde <__adddf3+0xc4>
    80003026:	00190713          	addi	a4,s2,1
    8000302a:	7fe77693          	andi	a3,a4,2046
    8000302e:	e6a1                	bnez	a3,80003076 <__adddf3+0x15c>
    80003030:	02091a63          	bnez	s2,80003064 <__adddf3+0x14a>
    80003034:	00080d63          	beqz	a6,8000304e <__adddf3+0x134>
    80003038:	dfb1                	beqz	a5,80002f94 <__adddf3+0x7a>
    8000303a:	97c2                	add	a5,a5,a6
    8000303c:	00879713          	slli	a4,a5,0x8
    80003040:	00075763          	bgez	a4,8000304e <__adddf3+0x134>
    80003044:	577d                	li	a4,-1
    80003046:	175e                	slli	a4,a4,0x37
    80003048:	177d                	addi	a4,a4,-1
    8000304a:	8ff9                	and	a5,a5,a4
    8000304c:	4905                	li	s2,1
    8000304e:	0077f713          	andi	a4,a5,7
    80003052:	12070e63          	beqz	a4,8000318e <__adddf3+0x274>
    80003056:	00f7f713          	andi	a4,a5,15
    8000305a:	4691                	li	a3,4
    8000305c:	12d70963          	beq	a4,a3,8000318e <__adddf3+0x274>
    80003060:	0791                	addi	a5,a5,4
    80003062:	a235                	j	8000318e <__adddf3+0x274>
    80003064:	f80803e3          	beqz	a6,80002fea <__adddf3+0xd0>
    80003068:	1e078263          	beqz	a5,8000324c <__adddf3+0x332>
    8000306c:	4785                	li	a5,1
    8000306e:	17da                	slli	a5,a5,0x36
    80003070:	7ff00913          	li	s2,2047
    80003074:	a0e5                	j	8000315c <__adddf3+0x242>
    80003076:	7ff00693          	li	a3,2047
    8000307a:	1cd70063          	beq	a4,a3,8000323a <__adddf3+0x320>
    8000307e:	97c2                	add	a5,a5,a6
    80003080:	8385                	srli	a5,a5,0x1
    80003082:	893a                	mv	s2,a4
    80003084:	b7e9                	j	8000304e <__adddf3+0x134>
    80003086:	0006851b          	sext.w	a0,a3
    8000308a:	04a05f63          	blez	a0,800030e8 <__adddf3+0x1ce>
    8000308e:	e629                	bnez	a2,800030d8 <__adddf3+0x1be>
    80003090:	d391                	beqz	a5,80002f94 <__adddf3+0x7a>
    80003092:	fff6851b          	addiw	a0,a3,-1
    80003096:	e919                	bnez	a0,800030ac <__adddf3+0x192>
    80003098:	40f807b3          	sub	a5,a6,a5
    8000309c:	00879713          	slli	a4,a5,0x8
    800030a0:	fa0757e3          	bgez	a4,8000304e <__adddf3+0x134>
    800030a4:	00979493          	slli	s1,a5,0x9
    800030a8:	80a5                	srli	s1,s1,0x9
    800030aa:	a299                	j	800031f0 <__adddf3+0x2d6>
    800030ac:	7ff00713          	li	a4,2047
    800030b0:	eee902e3          	beq	s2,a4,80002f94 <__adddf3+0x7a>
    800030b4:	03800693          	li	a3,56
    800030b8:	4705                	li	a4,1
    800030ba:	00a6cc63          	blt	a3,a0,800030d2 <__adddf3+0x1b8>
    800030be:	04000693          	li	a3,64
    800030c2:	9e89                	subw	a3,a3,a0
    800030c4:	00d796b3          	sll	a3,a5,a3
    800030c8:	00a7d733          	srl	a4,a5,a0
    800030cc:	00d036b3          	snez	a3,a3
    800030d0:	8f55                	or	a4,a4,a3
    800030d2:	40e807b3          	sub	a5,a6,a4
    800030d6:	b7d9                	j	8000309c <__adddf3+0x182>
    800030d8:	7ff00713          	li	a4,2047
    800030dc:	eae90ce3          	beq	s2,a4,80002f94 <__adddf3+0x7a>
    800030e0:	4705                	li	a4,1
    800030e2:	175e                	slli	a4,a4,0x37
    800030e4:	8fd9                	or	a5,a5,a4
    800030e6:	b7f9                	j	800030b4 <__adddf3+0x19a>
    800030e8:	c125                	beqz	a0,80003148 <__adddf3+0x22e>
    800030ea:	02091463          	bnez	s2,80003112 <__adddf3+0x1f8>
    800030ee:	14080a63          	beqz	a6,80003242 <__adddf3+0x328>
    800030f2:	fff6c693          	not	a3,a3
    800030f6:	2681                	sext.w	a3,a3
    800030f8:	e691                	bnez	a3,80003104 <__adddf3+0x1ea>
    800030fa:	410787b3          	sub	a5,a5,a6
    800030fe:	8932                	mv	s2,a2
    80003100:	842e                	mv	s0,a1
    80003102:	bf69                	j	8000309c <__adddf3+0x182>
    80003104:	7ff00713          	li	a4,2047
    80003108:	00e61f63          	bne	a2,a4,80003126 <__adddf3+0x20c>
    8000310c:	7ff00913          	li	s2,2047
    80003110:	aa15                	j	80003244 <__adddf3+0x32a>
    80003112:	7ff00713          	li	a4,2047
    80003116:	fee60be3          	beq	a2,a4,8000310c <__adddf3+0x1f2>
    8000311a:	4705                	li	a4,1
    8000311c:	175e                	slli	a4,a4,0x37
    8000311e:	40d006bb          	negw	a3,a3
    80003122:	00e86833          	or	a6,a6,a4
    80003126:	03800513          	li	a0,56
    8000312a:	4705                	li	a4,1
    8000312c:	00d54c63          	blt	a0,a3,80003144 <__adddf3+0x22a>
    80003130:	04000713          	li	a4,64
    80003134:	9f15                	subw	a4,a4,a3
    80003136:	00e81733          	sll	a4,a6,a4
    8000313a:	00d85533          	srl	a0,a6,a3
    8000313e:	00e03733          	snez	a4,a4
    80003142:	8f49                	or	a4,a4,a0
    80003144:	8f99                	sub	a5,a5,a4
    80003146:	bf65                	j	800030fe <__adddf3+0x1e4>
    80003148:	00190713          	addi	a4,s2,1
    8000314c:	7fe77713          	andi	a4,a4,2046
    80003150:	e759                	bnez	a4,800031de <__adddf3+0x2c4>
    80003152:	02091663          	bnez	s2,8000317e <__adddf3+0x264>
    80003156:	00081563          	bnez	a6,80003160 <__adddf3+0x246>
    8000315a:	e7ed                	bnez	a5,80003244 <__adddf3+0x32a>
    8000315c:	4401                	li	s0,0
    8000315e:	a805                	j	8000318e <__adddf3+0x274>
    80003160:	e2078ae3          	beqz	a5,80002f94 <__adddf3+0x7a>
    80003164:	40f80733          	sub	a4,a6,a5
    80003168:	00871693          	slli	a3,a4,0x8
    8000316c:	410787b3          	sub	a5,a5,a6
    80003170:	0c06ca63          	bltz	a3,80003244 <__adddf3+0x32a>
    80003174:	87ba                	mv	a5,a4
    80003176:	ec071ce3          	bnez	a4,8000304e <__adddf3+0x134>
    8000317a:	4781                	li	a5,0
    8000317c:	b7c5                	j	8000315c <__adddf3+0x242>
    8000317e:	ee0815e3          	bnez	a6,80003068 <__adddf3+0x14e>
    80003182:	e3f9                	bnez	a5,80003248 <__adddf3+0x32e>
    80003184:	4785                	li	a5,1
    80003186:	4401                	li	s0,0
    80003188:	17da                	slli	a5,a5,0x36
    8000318a:	7ff00913          	li	s2,2047
    8000318e:	00879713          	slli	a4,a5,0x8
    80003192:	00075b63          	bgez	a4,800031a8 <__adddf3+0x28e>
    80003196:	0905                	addi	s2,s2,1
    80003198:	7ff00713          	li	a4,2047
    8000319c:	0ae90a63          	beq	s2,a4,80003250 <__adddf3+0x336>
    800031a0:	577d                	li	a4,-1
    800031a2:	175e                	slli	a4,a4,0x37
    800031a4:	177d                	addi	a4,a4,-1
    800031a6:	8ff9                	and	a5,a5,a4
    800031a8:	7ff00713          	li	a4,2047
    800031ac:	838d                	srli	a5,a5,0x3
    800031ae:	00e91663          	bne	s2,a4,800031ba <__adddf3+0x2a0>
    800031b2:	c781                	beqz	a5,800031ba <__adddf3+0x2a0>
    800031b4:	4785                	li	a5,1
    800031b6:	17ce                	slli	a5,a5,0x33
    800031b8:	4401                	li	s0,0
    800031ba:	7ff00693          	li	a3,2047
    800031be:	60e2                	ld	ra,24(sp)
    800031c0:	03491713          	slli	a4,s2,0x34
    800031c4:	03f41513          	slli	a0,s0,0x3f
    800031c8:	16d2                	slli	a3,a3,0x34
    800031ca:	6442                	ld	s0,16(sp)
    800031cc:	07b2                	slli	a5,a5,0xc
    800031ce:	8f75                	and	a4,a4,a3
    800031d0:	83b1                	srli	a5,a5,0xc
    800031d2:	8fd9                	or	a5,a5,a4
    800031d4:	64a2                	ld	s1,8(sp)
    800031d6:	6902                	ld	s2,0(sp)
    800031d8:	8d5d                	or	a0,a0,a5
    800031da:	6105                	addi	sp,sp,32
    800031dc:	8082                	ret
    800031de:	40f804b3          	sub	s1,a6,a5
    800031e2:	00849713          	slli	a4,s1,0x8
    800031e6:	02075d63          	bgez	a4,80003220 <__adddf3+0x306>
    800031ea:	410784b3          	sub	s1,a5,a6
    800031ee:	842e                	mv	s0,a1
    800031f0:	8526                	mv	a0,s1
    800031f2:	1cd000ef          	jal	80003bbe <__clzdi2>
    800031f6:	ff85079b          	addiw	a5,a0,-8
    800031fa:	00f494b3          	sll	s1,s1,a5
    800031fe:	0327c563          	blt	a5,s2,80003228 <__adddf3+0x30e>
    80003202:	4127853b          	subw	a0,a5,s2
    80003206:	2505                	addiw	a0,a0,1
    80003208:	04000713          	li	a4,64
    8000320c:	9f09                	subw	a4,a4,a0
    8000320e:	00a4d7b3          	srl	a5,s1,a0
    80003212:	00e494b3          	sll	s1,s1,a4
    80003216:	009034b3          	snez	s1,s1
    8000321a:	8fc5                	or	a5,a5,s1
    8000321c:	4901                	li	s2,0
    8000321e:	bd05                	j	8000304e <__adddf3+0x134>
    80003220:	f8e1                	bnez	s1,800031f0 <__adddf3+0x2d6>
    80003222:	4781                	li	a5,0
    80003224:	4901                	li	s2,0
    80003226:	bf1d                	j	8000315c <__adddf3+0x242>
    80003228:	40f90933          	sub	s2,s2,a5
    8000322c:	57fd                	li	a5,-1
    8000322e:	17de                	slli	a5,a5,0x37
    80003230:	17fd                	addi	a5,a5,-1
    80003232:	8fe5                	and	a5,a5,s1
    80003234:	bd29                	j	8000304e <__adddf3+0x134>
    80003236:	8932                	mv	s2,a2
    80003238:	bd19                	j	8000304e <__adddf3+0x134>
    8000323a:	7ff00913          	li	s2,2047
    8000323e:	4781                	li	a5,0
    80003240:	b7b9                	j	8000318e <__adddf3+0x274>
    80003242:	8932                	mv	s2,a2
    80003244:	842e                	mv	s0,a1
    80003246:	b521                	j	8000304e <__adddf3+0x134>
    80003248:	842e                	mv	s0,a1
    8000324a:	b345                	j	80002fea <__adddf3+0xd0>
    8000324c:	87c2                	mv	a5,a6
    8000324e:	bb71                	j	80002fea <__adddf3+0xd0>
    80003250:	4781                	li	a5,0
    80003252:	bf99                	j	800031a8 <__adddf3+0x28e>

0000000080003254 <__eqsf2>:
    80003254:	008007b7          	lui	a5,0x800
    80003258:	17fd                	addi	a5,a5,-1 # 7fffff <_tbss_end+0x7fffff>
    8000325a:	00a7f833          	and	a6,a5,a0
    8000325e:	0175561b          	srliw	a2,a0,0x17
    80003262:	8fed                	and	a5,a5,a1
    80003264:	0175d89b          	srliw	a7,a1,0x17
    80003268:	1802                	slli	a6,a6,0x20
    8000326a:	1782                	slli	a5,a5,0x20
    8000326c:	0ff67613          	zext.b	a2,a2
    80003270:	0ff00693          	li	a3,255
    80003274:	02085813          	srli	a6,a6,0x20
    80003278:	01f5571b          	srliw	a4,a0,0x1f
    8000327c:	9381                	srli	a5,a5,0x20
    8000327e:	0ff8f893          	zext.b	a7,a7
    80003282:	01f5d59b          	srliw	a1,a1,0x1f
    80003286:	00d61a63          	bne	a2,a3,8000329a <__eqsf2+0x46>
    8000328a:	4505                	li	a0,1
    8000328c:	02081a63          	bnez	a6,800032c0 <__eqsf2+0x6c>
    80003290:	4685                	li	a3,1
    80003292:	02c89263          	bne	a7,a2,800032b6 <__eqsf2+0x62>
    80003296:	cb89                	beqz	a5,800032a8 <__eqsf2+0x54>
    80003298:	8082                	ret
    8000329a:	02d88063          	beq	a7,a3,800032ba <__eqsf2+0x66>
    8000329e:	4685                	li	a3,1
    800032a0:	01161b63          	bne	a2,a7,800032b6 <__eqsf2+0x62>
    800032a4:	00f81963          	bne	a6,a5,800032b6 <__eqsf2+0x62>
    800032a8:	4681                	li	a3,0
    800032aa:	00b70663          	beq	a4,a1,800032b6 <__eqsf2+0x62>
    800032ae:	4685                	li	a3,1
    800032b0:	e219                	bnez	a2,800032b6 <__eqsf2+0x62>
    800032b2:	010036b3          	snez	a3,a6
    800032b6:	8536                	mv	a0,a3
    800032b8:	8082                	ret
    800032ba:	4505                	li	a0,1
    800032bc:	4685                	li	a3,1
    800032be:	dfe5                	beqz	a5,800032b6 <__eqsf2+0x62>
    800032c0:	8082                	ret

00000000800032c2 <__lesf2>:
    800032c2:	008007b7          	lui	a5,0x800
    800032c6:	17fd                	addi	a5,a5,-1 # 7fffff <_tbss_end+0x7fffff>
    800032c8:	00a7f6b3          	and	a3,a5,a0
    800032cc:	0175561b          	srliw	a2,a0,0x17
    800032d0:	8fed                	and	a5,a5,a1
    800032d2:	1682                	slli	a3,a3,0x20
    800032d4:	01f5571b          	srliw	a4,a0,0x1f
    800032d8:	1782                	slli	a5,a5,0x20
    800032da:	0175d51b          	srliw	a0,a1,0x17
    800032de:	0ff67613          	zext.b	a2,a2
    800032e2:	0ff00813          	li	a6,255
    800032e6:	9281                	srli	a3,a3,0x20
    800032e8:	9381                	srli	a5,a5,0x20
    800032ea:	0ff57513          	zext.b	a0,a0
    800032ee:	01f5d59b          	srliw	a1,a1,0x1f
    800032f2:	01061363          	bne	a2,a6,800032f8 <__lesf2+0x36>
    800032f6:	e695                	bnez	a3,80003322 <__lesf2+0x60>
    800032f8:	0ff00813          	li	a6,255
    800032fc:	01051363          	bne	a0,a6,80003302 <__lesf2+0x40>
    80003300:	e38d                	bnez	a5,80003322 <__lesf2+0x60>
    80003302:	ea15                	bnez	a2,80003336 <__lesf2+0x74>
    80003304:	e10d                	bnez	a0,80003326 <__lesf2+0x64>
    80003306:	ea8d                	bnez	a3,80003338 <__lesf2+0x76>
    80003308:	c795                	beqz	a5,80003334 <__lesf2+0x72>
    8000330a:	4505                	li	a0,1
    8000330c:	e585                	bnez	a1,80003334 <__lesf2+0x72>
    8000330e:	557d                	li	a0,-1
    80003310:	8082                	ret
    80003312:	fea64ce3          	blt	a2,a0,8000330a <__lesf2+0x48>
    80003316:	00d7ed63          	bltu	a5,a3,80003330 <__lesf2+0x6e>
    8000331a:	4501                	li	a0,0
    8000331c:	00f6fc63          	bgeu	a3,a5,80003334 <__lesf2+0x72>
    80003320:	b7ed                	j	8000330a <__lesf2+0x48>
    80003322:	4509                	li	a0,2
    80003324:	8082                	ret
    80003326:	d2f5                	beqz	a3,8000330a <__lesf2+0x48>
    80003328:	00e59963          	bne	a1,a4,8000333a <__lesf2+0x78>
    8000332c:	fec553e3          	bge	a0,a2,80003312 <__lesf2+0x50>
    80003330:	557d                	li	a0,-1
    80003332:	c591                	beqz	a1,8000333e <__lesf2+0x7c>
    80003334:	8082                	ret
    80003336:	f96d                	bnez	a0,80003328 <__lesf2+0x66>
    80003338:	fbe5                	bnez	a5,80003328 <__lesf2+0x66>
    8000333a:	557d                	li	a0,-1
    8000333c:	ff65                	bnez	a4,80003334 <__lesf2+0x72>
    8000333e:	4505                	li	a0,1
    80003340:	8082                	ret

0000000080003342 <__mulsf3>:
    80003342:	7139                	addi	sp,sp,-64
    80003344:	f04a                	sd	s2,32(sp)
    80003346:	0175591b          	srliw	s2,a0,0x17
    8000334a:	f426                	sd	s1,40(sp)
    8000334c:	ec4e                	sd	s3,24(sp)
    8000334e:	e456                	sd	s5,8(sp)
    80003350:	02951493          	slli	s1,a0,0x29
    80003354:	fc06                	sd	ra,56(sp)
    80003356:	f822                	sd	s0,48(sp)
    80003358:	e852                	sd	s4,16(sp)
    8000335a:	0ff97913          	zext.b	s2,s2
    8000335e:	8aae                	mv	s5,a1
    80003360:	90a5                	srli	s1,s1,0x29
    80003362:	01f5599b          	srliw	s3,a0,0x1f
    80003366:	08090863          	beqz	s2,800033f6 <__mulsf3+0xb4>
    8000336a:	0ff00793          	li	a5,255
    8000336e:	0af90363          	beq	s2,a5,80003414 <__mulsf3+0xd2>
    80003372:	048e                	slli	s1,s1,0x3
    80003374:	040007b7          	lui	a5,0x4000
    80003378:	8cdd                	or	s1,s1,a5
    8000337a:	f8190913          	addi	s2,s2,-127
    8000337e:	4a01                	li	s4,0
    80003380:	017ad79b          	srliw	a5,s5,0x17
    80003384:	029a9413          	slli	s0,s5,0x29
    80003388:	0ff7f793          	zext.b	a5,a5
    8000338c:	9025                	srli	s0,s0,0x29
    8000338e:	01fada9b          	srliw	s5,s5,0x1f
    80003392:	cbd1                	beqz	a5,80003426 <__mulsf3+0xe4>
    80003394:	0ff00713          	li	a4,255
    80003398:	0ae78563          	beq	a5,a4,80003442 <__mulsf3+0x100>
    8000339c:	040e                	slli	s0,s0,0x3
    8000339e:	04000737          	lui	a4,0x4000
    800033a2:	8c59                	or	s0,s0,a4
    800033a4:	f8178793          	addi	a5,a5,-127 # 3ffff81 <_HEAP_SIZE+0x646d>
    800033a8:	4701                	li	a4,0
    800033aa:	993e                	add	s2,s2,a5
    800033ac:	002a1793          	slli	a5,s4,0x2
    800033b0:	8fd9                	or	a5,a5,a4
    800033b2:	46a9                	li	a3,10
    800033b4:	00190613          	addi	a2,s2,1
    800033b8:	12f6c463          	blt	a3,a5,800034e0 <__mulsf3+0x19e>
    800033bc:	4689                	li	a3,2
    800033be:	0159c9b3          	xor	s3,s3,s5
    800033c2:	08f6c963          	blt	a3,a5,80003454 <__mulsf3+0x112>
    800033c6:	17fd                	addi	a5,a5,-1
    800033c8:	4685                	li	a3,1
    800033ca:	0af6f263          	bgeu	a3,a5,8000346e <__mulsf3+0x12c>
    800033ce:	028484b3          	mul	s1,s1,s0
    800033d2:	01a4d793          	srli	a5,s1,0x1a
    800033d6:	149a                	slli	s1,s1,0x26
    800033d8:	009034b3          	snez	s1,s1
    800033dc:	02479713          	slli	a4,a5,0x24
    800033e0:	0097e433          	or	s0,a5,s1
    800033e4:	00075763          	bgez	a4,800033f2 <__mulsf3+0xb0>
    800033e8:	00145793          	srli	a5,s0,0x1
    800033ec:	8805                	andi	s0,s0,1
    800033ee:	8c5d                	or	s0,s0,a5
    800033f0:	8932                	mv	s2,a2
    800033f2:	864a                	mv	a2,s2
    800033f4:	a071                	j	80003480 <__mulsf3+0x13e>
    800033f6:	c48d                	beqz	s1,80003420 <__mulsf3+0xde>
    800033f8:	8526                	mv	a0,s1
    800033fa:	7c4000ef          	jal	80003bbe <__clzdi2>
    800033fe:	0005079b          	sext.w	a5,a0
    80003402:	faa00913          	li	s2,-86
    80003406:	fdb5051b          	addiw	a0,a0,-37
    8000340a:	00a494b3          	sll	s1,s1,a0
    8000340e:	40f90933          	sub	s2,s2,a5
    80003412:	b7b5                	j	8000337e <__mulsf3+0x3c>
    80003414:	0ff00913          	li	s2,255
    80003418:	4a09                	li	s4,2
    8000341a:	d0bd                	beqz	s1,80003380 <__mulsf3+0x3e>
    8000341c:	4a0d                	li	s4,3
    8000341e:	b78d                	j	80003380 <__mulsf3+0x3e>
    80003420:	4901                	li	s2,0
    80003422:	4a05                	li	s4,1
    80003424:	bfb1                	j	80003380 <__mulsf3+0x3e>
    80003426:	c405                	beqz	s0,8000344e <__mulsf3+0x10c>
    80003428:	8522                	mv	a0,s0
    8000342a:	794000ef          	jal	80003bbe <__clzdi2>
    8000342e:	0005071b          	sext.w	a4,a0
    80003432:	faa00793          	li	a5,-86
    80003436:	fdb5051b          	addiw	a0,a0,-37
    8000343a:	00a41433          	sll	s0,s0,a0
    8000343e:	8f99                	sub	a5,a5,a4
    80003440:	b7a5                	j	800033a8 <__mulsf3+0x66>
    80003442:	0ff00793          	li	a5,255
    80003446:	4709                	li	a4,2
    80003448:	d02d                	beqz	s0,800033aa <__mulsf3+0x68>
    8000344a:	470d                	li	a4,3
    8000344c:	bfb9                	j	800033aa <__mulsf3+0x68>
    8000344e:	4781                	li	a5,0
    80003450:	4705                	li	a4,1
    80003452:	bfa1                	j	800033aa <__mulsf3+0x68>
    80003454:	4685                	li	a3,1
    80003456:	00f697b3          	sll	a5,a3,a5
    8000345a:	5307f693          	andi	a3,a5,1328
    8000345e:	e6d9                	bnez	a3,800034ec <__mulsf3+0x1aa>
    80003460:	2407f693          	andi	a3,a5,576
    80003464:	eaf9                	bnez	a3,8000353a <__mulsf3+0x1f8>
    80003466:	0887f793          	andi	a5,a5,136
    8000346a:	d3b5                	beqz	a5,800033ce <__mulsf3+0x8c>
    8000346c:	89d6                	mv	s3,s5
    8000346e:	4789                	li	a5,2
    80003470:	0cf70163          	beq	a4,a5,80003532 <__mulsf3+0x1f0>
    80003474:	478d                	li	a5,3
    80003476:	0cf70263          	beq	a4,a5,8000353a <__mulsf3+0x1f8>
    8000347a:	4785                	li	a5,1
    8000347c:	0cf70563          	beq	a4,a5,80003546 <__mulsf3+0x204>
    80003480:	07f60713          	addi	a4,a2,127 # 207f <_tbss_end+0x207f>
    80003484:	06e05763          	blez	a4,800034f2 <__mulsf3+0x1b0>
    80003488:	00747793          	andi	a5,s0,7
    8000348c:	c799                	beqz	a5,8000349a <__mulsf3+0x158>
    8000348e:	00f47793          	andi	a5,s0,15
    80003492:	4691                	li	a3,4
    80003494:	00d78363          	beq	a5,a3,8000349a <__mulsf3+0x158>
    80003498:	0411                	addi	s0,s0,4
    8000349a:	02441793          	slli	a5,s0,0x24
    8000349e:	0007d863          	bgez	a5,800034ae <__mulsf3+0x16c>
    800034a2:	f80007b7          	lui	a5,0xf8000
    800034a6:	17fd                	addi	a5,a5,-1 # fffffffff7ffffff <__stack_pointer$+0xffffffff700003ff>
    800034a8:	8c7d                	and	s0,s0,a5
    800034aa:	08060713          	addi	a4,a2,128
    800034ae:	0fe00793          	li	a5,254
    800034b2:	08e7c063          	blt	a5,a4,80003532 <__mulsf3+0x1f0>
    800034b6:	00345793          	srli	a5,s0,0x3
    800034ba:	70e2                	ld	ra,56(sp)
    800034bc:	7442                	ld	s0,48(sp)
    800034be:	02979513          	slli	a0,a5,0x29
    800034c2:	0177171b          	slliw	a4,a4,0x17
    800034c6:	9125                	srli	a0,a0,0x29
    800034c8:	01f9999b          	slliw	s3,s3,0x1f
    800034cc:	8d59                	or	a0,a0,a4
    800034ce:	74a2                	ld	s1,40(sp)
    800034d0:	7902                	ld	s2,32(sp)
    800034d2:	6a42                	ld	s4,16(sp)
    800034d4:	6aa2                	ld	s5,8(sp)
    800034d6:	01356533          	or	a0,a0,s3
    800034da:	69e2                	ld	s3,24(sp)
    800034dc:	6121                	addi	sp,sp,64
    800034de:	8082                	ret
    800034e0:	46bd                	li	a3,15
    800034e2:	04d78c63          	beq	a5,a3,8000353a <__mulsf3+0x1f8>
    800034e6:	46ad                	li	a3,11
    800034e8:	f8d782e3          	beq	a5,a3,8000346c <__mulsf3+0x12a>
    800034ec:	8426                	mv	s0,s1
    800034ee:	8752                	mv	a4,s4
    800034f0:	bfbd                	j	8000346e <__mulsf3+0x12c>
    800034f2:	4685                	li	a3,1
    800034f4:	8e99                	sub	a3,a3,a4
    800034f6:	47ed                	li	a5,27
    800034f8:	04d7c763          	blt	a5,a3,80003546 <__mulsf3+0x204>
    800034fc:	04000713          	li	a4,64
    80003500:	9f15                	subw	a4,a4,a3
    80003502:	00e41733          	sll	a4,s0,a4
    80003506:	00e03733          	snez	a4,a4
    8000350a:	00d457b3          	srl	a5,s0,a3
    8000350e:	8fd9                	or	a5,a5,a4
    80003510:	0077f713          	andi	a4,a5,7
    80003514:	c719                	beqz	a4,80003522 <__mulsf3+0x1e0>
    80003516:	00f7f713          	andi	a4,a5,15
    8000351a:	4691                	li	a3,4
    8000351c:	00d70363          	beq	a4,a3,80003522 <__mulsf3+0x1e0>
    80003520:	0791                	addi	a5,a5,4
    80003522:	02579713          	slli	a4,a5,0x25
    80003526:	838d                	srli	a5,a5,0x3
    80003528:	02075063          	bgez	a4,80003548 <__mulsf3+0x206>
    8000352c:	4781                	li	a5,0
    8000352e:	4705                	li	a4,1
    80003530:	b769                	j	800034ba <__mulsf3+0x178>
    80003532:	4781                	li	a5,0
    80003534:	0ff00713          	li	a4,255
    80003538:	b749                	j	800034ba <__mulsf3+0x178>
    8000353a:	004007b7          	lui	a5,0x400
    8000353e:	0ff00713          	li	a4,255
    80003542:	4981                	li	s3,0
    80003544:	bf9d                	j	800034ba <__mulsf3+0x178>
    80003546:	4781                	li	a5,0
    80003548:	4701                	li	a4,0
    8000354a:	bf85                	j	800034ba <__mulsf3+0x178>

000000008000354c <__subsf3>:
    8000354c:	008007b7          	lui	a5,0x800
    80003550:	17fd                	addi	a5,a5,-1 # 7fffff <_tbss_end+0x7fffff>
    80003552:	00a7f733          	and	a4,a5,a0
    80003556:	02071693          	slli	a3,a4,0x20
    8000355a:	8fed                	and	a5,a5,a1
    8000355c:	1101                	addi	sp,sp,-32
    8000355e:	0175d61b          	srliw	a2,a1,0x17
    80003562:	0175581b          	srliw	a6,a0,0x17
    80003566:	01d6d713          	srli	a4,a3,0x1d
    8000356a:	02079693          	slli	a3,a5,0x20
    8000356e:	e822                	sd	s0,16(sp)
    80003570:	e426                	sd	s1,8(sp)
    80003572:	0ff87813          	zext.b	a6,a6
    80003576:	01d6d793          	srli	a5,a3,0x1d
    8000357a:	ec06                	sd	ra,24(sp)
    8000357c:	e04a                	sd	s2,0(sp)
    8000357e:	0ff67613          	zext.b	a2,a2
    80003582:	0ff00693          	li	a3,255
    80003586:	8442                	mv	s0,a6
    80003588:	01f5549b          	srliw	s1,a0,0x1f
    8000358c:	01f5d59b          	srliw	a1,a1,0x1f
    80003590:	00d61363          	bne	a2,a3,80003596 <__subsf3+0x4a>
    80003594:	e399                	bnez	a5,8000359a <__subsf3+0x4e>
    80003596:	0015c593          	xori	a1,a1,1
    8000359a:	40c806bb          	subw	a3,a6,a2
    8000359e:	0006851b          	sext.w	a0,a3
    800035a2:	12959663          	bne	a1,s1,800036ce <__subsf3+0x182>
    800035a6:	06a05a63          	blez	a0,8000361a <__subsf3+0xce>
    800035aa:	ee1d                	bnez	a2,800035e8 <__subsf3+0x9c>
    800035ac:	cf85                	beqz	a5,800035e4 <__subsf3+0x98>
    800035ae:	fff6851b          	addiw	a0,a3,-1
    800035b2:	e50d                	bnez	a0,800035dc <__subsf3+0x90>
    800035b4:	97ba                	add	a5,a5,a4
    800035b6:	02579713          	slli	a4,a5,0x25
    800035ba:	0e075163          	bgez	a4,8000369c <__subsf3+0x150>
    800035be:	0405                	addi	s0,s0,1
    800035c0:	0ff00713          	li	a4,255
    800035c4:	26e40b63          	beq	s0,a4,8000383a <__subsf3+0x2ee>
    800035c8:	fc000737          	lui	a4,0xfc000
    800035cc:	177d                	addi	a4,a4,-1 # fffffffffbffffff <__stack_pointer$+0xffffffff740003ff>
    800035ce:	0017f693          	andi	a3,a5,1
    800035d2:	8305                	srli	a4,a4,0x1
    800035d4:	8385                	srli	a5,a5,0x1
    800035d6:	8ff9                	and	a5,a5,a4
    800035d8:	8fd5                	or	a5,a5,a3
    800035da:	a0c9                	j	8000369c <__subsf3+0x150>
    800035dc:	0ff00693          	li	a3,255
    800035e0:	00d81b63          	bne	a6,a3,800035f6 <__subsf3+0xaa>
    800035e4:	87ba                	mv	a5,a4
    800035e6:	a85d                	j	8000369c <__subsf3+0x150>
    800035e8:	0ff00693          	li	a3,255
    800035ec:	fed80ce3          	beq	a6,a3,800035e4 <__subsf3+0x98>
    800035f0:	040006b7          	lui	a3,0x4000
    800035f4:	8fd5                	or	a5,a5,a3
    800035f6:	466d                	li	a2,27
    800035f8:	4685                	li	a3,1
    800035fa:	00a64d63          	blt	a2,a0,80003614 <__subsf3+0xc8>
    800035fe:	04000693          	li	a3,64
    80003602:	9e89                	subw	a3,a3,a0
    80003604:	00a7d633          	srl	a2,a5,a0
    80003608:	00d797b3          	sll	a5,a5,a3
    8000360c:	00f037b3          	snez	a5,a5
    80003610:	00f666b3          	or	a3,a2,a5
    80003614:	00e687b3          	add	a5,a3,a4
    80003618:	bf79                	j	800035b6 <__subsf3+0x6a>
    8000361a:	cd31                	beqz	a0,80003676 <__subsf3+0x12a>
    8000361c:	02081263          	bnez	a6,80003640 <__subsf3+0xf4>
    80003620:	20070963          	beqz	a4,80003832 <__subsf3+0x2e6>
    80003624:	fff6c693          	not	a3,a3
    80003628:	2681                	sext.w	a3,a3
    8000362a:	e681                	bnez	a3,80003632 <__subsf3+0xe6>
    8000362c:	97ba                	add	a5,a5,a4
    8000362e:	8432                	mv	s0,a2
    80003630:	b759                	j	800035b6 <__subsf3+0x6a>
    80003632:	0ff00593          	li	a1,255
    80003636:	00b61e63          	bne	a2,a1,80003652 <__subsf3+0x106>
    8000363a:	0ff00413          	li	s0,255
    8000363e:	a8b9                	j	8000369c <__subsf3+0x150>
    80003640:	0ff00593          	li	a1,255
    80003644:	feb60be3          	beq	a2,a1,8000363a <__subsf3+0xee>
    80003648:	040005b7          	lui	a1,0x4000
    8000364c:	40d006bb          	negw	a3,a3
    80003650:	8f4d                	or	a4,a4,a1
    80003652:	456d                	li	a0,27
    80003654:	4585                	li	a1,1
    80003656:	00d54e63          	blt	a0,a3,80003672 <__subsf3+0x126>
    8000365a:	04000593          	li	a1,64
    8000365e:	00d75533          	srl	a0,a4,a3
    80003662:	40d586bb          	subw	a3,a1,a3
    80003666:	00d71733          	sll	a4,a4,a3
    8000366a:	00e03733          	snez	a4,a4
    8000366e:	00e565b3          	or	a1,a0,a4
    80003672:	97ae                	add	a5,a5,a1
    80003674:	bf6d                	j	8000362e <__subsf3+0xe2>
    80003676:	00180693          	addi	a3,a6,1
    8000367a:	0fe6f613          	andi	a2,a3,254
    8000367e:	ee1d                	bnez	a2,800036bc <__subsf3+0x170>
    80003680:	02081963          	bnez	a6,800036b2 <__subsf3+0x166>
    80003684:	cf01                	beqz	a4,8000369c <__subsf3+0x150>
    80003686:	dfb9                	beqz	a5,800035e4 <__subsf3+0x98>
    80003688:	97ba                	add	a5,a5,a4
    8000368a:	02579713          	slli	a4,a5,0x25
    8000368e:	00075763          	bgez	a4,8000369c <__subsf3+0x150>
    80003692:	fc000737          	lui	a4,0xfc000
    80003696:	177d                	addi	a4,a4,-1 # fffffffffbffffff <__stack_pointer$+0xffffffff740003ff>
    80003698:	8ff9                	and	a5,a5,a4
    8000369a:	4405                	li	s0,1
    8000369c:	0077f713          	andi	a4,a5,7
    800036a0:	18070e63          	beqz	a4,8000383c <__subsf3+0x2f0>
    800036a4:	00f7f713          	andi	a4,a5,15
    800036a8:	4691                	li	a3,4
    800036aa:	18d70963          	beq	a4,a3,8000383c <__subsf3+0x2f0>
    800036ae:	0791                	addi	a5,a5,4
    800036b0:	a271                	j	8000383c <__subsf3+0x2f0>
    800036b2:	d741                	beqz	a4,8000363a <__subsf3+0xee>
    800036b4:	10079b63          	bnez	a5,800037ca <__subsf3+0x27e>
    800036b8:	87ba                	mv	a5,a4
    800036ba:	b741                	j	8000363a <__subsf3+0xee>
    800036bc:	0ff00613          	li	a2,255
    800036c0:	16c68b63          	beq	a3,a2,80003836 <__subsf3+0x2ea>
    800036c4:	973e                	add	a4,a4,a5
    800036c6:	00175793          	srli	a5,a4,0x1
    800036ca:	8436                	mv	s0,a3
    800036cc:	bfc1                	j	8000369c <__subsf3+0x150>
    800036ce:	06a05163          	blez	a0,80003730 <__subsf3+0x1e4>
    800036d2:	e639                	bnez	a2,80003720 <__subsf3+0x1d4>
    800036d4:	db81                	beqz	a5,800035e4 <__subsf3+0x98>
    800036d6:	fff6851b          	addiw	a0,a3,-1 # 3ffffff <_HEAP_SIZE+0x64eb>
    800036da:	ed09                	bnez	a0,800036f4 <__subsf3+0x1a8>
    800036dc:	40f707b3          	sub	a5,a4,a5
    800036e0:	02579713          	slli	a4,a5,0x25
    800036e4:	fa075ce3          	bgez	a4,8000369c <__subsf3+0x150>
    800036e8:	04000937          	lui	s2,0x4000
    800036ec:	197d                	addi	s2,s2,-1 # 3ffffff <_HEAP_SIZE+0x64eb>
    800036ee:	0127f933          	and	s2,a5,s2
    800036f2:	a8dd                	j	800037e8 <__subsf3+0x29c>
    800036f4:	0ff00693          	li	a3,255
    800036f8:	eed806e3          	beq	a6,a3,800035e4 <__subsf3+0x98>
    800036fc:	466d                	li	a2,27
    800036fe:	4685                	li	a3,1
    80003700:	00a64d63          	blt	a2,a0,8000371a <__subsf3+0x1ce>
    80003704:	04000693          	li	a3,64
    80003708:	9e89                	subw	a3,a3,a0
    8000370a:	00a7d633          	srl	a2,a5,a0
    8000370e:	00d797b3          	sll	a5,a5,a3
    80003712:	00f037b3          	snez	a5,a5
    80003716:	00f666b3          	or	a3,a2,a5
    8000371a:	40d707b3          	sub	a5,a4,a3
    8000371e:	b7c9                	j	800036e0 <__subsf3+0x194>
    80003720:	0ff00693          	li	a3,255
    80003724:	ecd800e3          	beq	a6,a3,800035e4 <__subsf3+0x98>
    80003728:	040006b7          	lui	a3,0x4000
    8000372c:	8fd5                	or	a5,a5,a3
    8000372e:	b7f9                	j	800036fc <__subsf3+0x1b0>
    80003730:	cd39                	beqz	a0,8000378e <__subsf3+0x242>
    80003732:	02081363          	bnez	a6,80003758 <__subsf3+0x20c>
    80003736:	14070963          	beqz	a4,80003888 <__subsf3+0x33c>
    8000373a:	fff6c693          	not	a3,a3
    8000373e:	2681                	sext.w	a3,a3
    80003740:	e689                	bnez	a3,8000374a <__subsf3+0x1fe>
    80003742:	8f99                	sub	a5,a5,a4
    80003744:	8432                	mv	s0,a2
    80003746:	84ae                	mv	s1,a1
    80003748:	bf61                	j	800036e0 <__subsf3+0x194>
    8000374a:	0ff00513          	li	a0,255
    8000374e:	00a61e63          	bne	a2,a0,8000376a <__subsf3+0x21e>
    80003752:	0ff00413          	li	s0,255
    80003756:	aa15                	j	8000388a <__subsf3+0x33e>
    80003758:	0ff00513          	li	a0,255
    8000375c:	fea60be3          	beq	a2,a0,80003752 <__subsf3+0x206>
    80003760:	04000537          	lui	a0,0x4000
    80003764:	40d006bb          	negw	a3,a3
    80003768:	8f49                	or	a4,a4,a0
    8000376a:	486d                	li	a6,27
    8000376c:	4505                	li	a0,1
    8000376e:	00d84e63          	blt	a6,a3,8000378a <__subsf3+0x23e>
    80003772:	04000513          	li	a0,64
    80003776:	00d75833          	srl	a6,a4,a3
    8000377a:	40d506bb          	subw	a3,a0,a3
    8000377e:	00d71733          	sll	a4,a4,a3
    80003782:	00e03733          	snez	a4,a4
    80003786:	00e86533          	or	a0,a6,a4
    8000378a:	8f89                	sub	a5,a5,a0
    8000378c:	bf65                	j	80003744 <__subsf3+0x1f8>
    8000378e:	00180693          	addi	a3,a6,1
    80003792:	0fe6f693          	andi	a3,a3,254
    80003796:	e2a1                	bnez	a3,800037d6 <__subsf3+0x28a>
    80003798:	02081463          	bnez	a6,800037c0 <__subsf3+0x274>
    8000379c:	e701                	bnez	a4,800037a4 <__subsf3+0x258>
    8000379e:	e7f5                	bnez	a5,8000388a <__subsf3+0x33e>
    800037a0:	4481                	li	s1,0
    800037a2:	a869                	j	8000383c <__subsf3+0x2f0>
    800037a4:	e40780e3          	beqz	a5,800035e4 <__subsf3+0x98>
    800037a8:	40f706b3          	sub	a3,a4,a5
    800037ac:	02569613          	slli	a2,a3,0x25
    800037b0:	8f99                	sub	a5,a5,a4
    800037b2:	0c064c63          	bltz	a2,8000388a <__subsf3+0x33e>
    800037b6:	87b6                	mv	a5,a3
    800037b8:	ee0692e3          	bnez	a3,8000369c <__subsf3+0x150>
    800037bc:	4781                	li	a5,0
    800037be:	b7cd                	j	800037a0 <__subsf3+0x254>
    800037c0:	ee071ae3          	bnez	a4,800036b4 <__subsf3+0x168>
    800037c4:	84ae                	mv	s1,a1
    800037c6:	e6079ae3          	bnez	a5,8000363a <__subsf3+0xee>
    800037ca:	4481                	li	s1,0
    800037cc:	020007b7          	lui	a5,0x2000
    800037d0:	0ff00413          	li	s0,255
    800037d4:	a0a5                	j	8000383c <__subsf3+0x2f0>
    800037d6:	40f70933          	sub	s2,a4,a5
    800037da:	02591693          	slli	a3,s2,0x25
    800037de:	0206de63          	bgez	a3,8000381a <__subsf3+0x2ce>
    800037e2:	40e78933          	sub	s2,a5,a4
    800037e6:	84ae                	mv	s1,a1
    800037e8:	854a                	mv	a0,s2
    800037ea:	3d4000ef          	jal	80003bbe <__clzdi2>
    800037ee:	fdb5079b          	addiw	a5,a0,-37 # 3ffffdb <_HEAP_SIZE+0x64c7>
    800037f2:	00f91933          	sll	s2,s2,a5
    800037f6:	0287c763          	blt	a5,s0,80003824 <__subsf3+0x2d8>
    800037fa:	4087853b          	subw	a0,a5,s0
    800037fe:	2505                	addiw	a0,a0,1
    80003800:	04000713          	li	a4,64
    80003804:	9f09                	subw	a4,a4,a0
    80003806:	00a957b3          	srl	a5,s2,a0
    8000380a:	00e91933          	sll	s2,s2,a4
    8000380e:	01203933          	snez	s2,s2
    80003812:	0127e7b3          	or	a5,a5,s2
    80003816:	4401                	li	s0,0
    80003818:	b551                	j	8000369c <__subsf3+0x150>
    8000381a:	fc0917e3          	bnez	s2,800037e8 <__subsf3+0x29c>
    8000381e:	4781                	li	a5,0
    80003820:	4401                	li	s0,0
    80003822:	bfbd                	j	800037a0 <__subsf3+0x254>
    80003824:	8c1d                	sub	s0,s0,a5
    80003826:	fc0007b7          	lui	a5,0xfc000
    8000382a:	17fd                	addi	a5,a5,-1 # fffffffffbffffff <__stack_pointer$+0xffffffff740003ff>
    8000382c:	00f977b3          	and	a5,s2,a5
    80003830:	b5b5                	j	8000369c <__subsf3+0x150>
    80003832:	8432                	mv	s0,a2
