
./output/motor.shakti:     file format elf64-littleriscv


Disassembly of section .text.init:

0000000080000000 <_start>:
    80000000:	00000297          	auipc	t0,0x0
    80000004:	0e028293          	addi	t0,t0,224 # 800000e0 <trap_entry>
    80000008:	30529073          	csrw	mtvec,t0
    8000000c:	42ad                	li	t0,11
    8000000e:	3002b073          	csrc	mstatus,t0
    80000012:	6285                	lui	t0,0x1
    80000014:	8882829b          	addiw	t0,t0,-1912 # 888 <_tbss_end+0x888>
    80000018:	3042b073          	csrc	mie,t0
    8000001c:	0c002fb7          	lui	t6,0xc002
    80000020:	000e7e13          	andi	t3,t3,0
    80000024:	8e72                	mv	t3,t3
    80000026:	01cf8023          	sb	t3,0(t6) # c002000 <_free_space+0x400e9d8>
    8000002a:	01cf80a3          	sb	t3,1(t6)
    8000002e:	01cf8123          	sb	t3,2(t6)
    80000032:	01cf81a3          	sb	t3,3(t6)
    80000036:	0c000fb7          	lui	t6,0xc000
    8000003a:	000e7e13          	andi	t3,t3,0
    8000003e:	01cf8023          	sb	t3,0(t6) # c000000 <_free_space+0x400c9d8>
    80000042:	01cf80a3          	sb	t3,1(t6)
    80000046:	01cf8123          	sb	t3,2(t6)
    8000004a:	01cf81a3          	sb	t3,3(t6)
    8000004e:	4081                	li	ra,0
    80000050:	4101                	li	sp,0
    80000052:	4181                	li	gp,0
    80000054:	4201                	li	tp,0
    80000056:	4281                	li	t0,0
    80000058:	4301                	li	t1,0
    8000005a:	4381                	li	t2,0
    8000005c:	4401                	li	s0,0
    8000005e:	4481                	li	s1,0
    80000060:	4501                	li	a0,0
    80000062:	4581                	li	a1,0
    80000064:	4601                	li	a2,0
    80000066:	4681                	li	a3,0
    80000068:	4701                	li	a4,0
    8000006a:	4781                	li	a5,0
    8000006c:	4801                	li	a6,0
    8000006e:	4881                	li	a7,0
    80000070:	4901                	li	s2,0
    80000072:	4981                	li	s3,0
    80000074:	4a01                	li	s4,0
    80000076:	4a81                	li	s5,0
    80000078:	4b01                	li	s6,0
    8000007a:	4b81                	li	s7,0
    8000007c:	4c01                	li	s8,0
    8000007e:	4c81                	li	s9,0
    80000080:	4d01                	li	s10,0
    80000082:	4d81                	li	s11,0
    80000084:	4e01                	li	t3,0
    80000086:	4e81                	li	t4,0
    80000088:	4f01                	li	t5,0
    8000008a:	4f81                	li	t6,0
    8000008c:	00005197          	auipc	gp,0x5
    80000090:	41418193          	addi	gp,gp,1044 # 800054a0 <__global_pointer$>

0000000080000094 <init_bss>:
    80000094:	85018513          	addi	a0,gp,-1968 # 80004cf0 <mcause_trap_table>
    80000098:	0000c597          	auipc	a1,0xc
    8000009c:	53c58593          	addi	a1,a1,1340 # 8000c5d4 <hart0_interrupt_matrix+0x1bc>
    800000a0:	4601                	li	a2,0
    800000a2:	c110                	sw	a2,0(a0)
    800000a4:	00b57463          	bgeu	a0,a1,800000ac <init_sbss>
    800000a8:	0511                	addi	a0,a0,4
    800000aa:	bfe5                	j	800000a2 <init_bss+0xe>

00000000800000ac <init_sbss>:
    800000ac:	83018513          	addi	a0,gp,-2000 # 80004cd0 <uart0_complete>
    800000b0:	84818593          	addi	a1,gp,-1976 # 80004ce8 <uart2_rcv_isr_count>
    800000b4:	4601                	li	a2,0
    800000b6:	c110                	sw	a2,0(a0)
    800000b8:	00b57463          	bgeu	a0,a1,800000c0 <init_sbss+0x14>
    800000bc:	0511                	addi	a0,a0,4
    800000be:	bfe5                	j	800000b6 <init_sbss+0xa>
    800000c0:	08000117          	auipc	sp,0x8000
    800000c4:	b4010113          	addi	sp,sp,-1216 # 87fffc00 <__stack_pointer$>
    800000c8:	0000c217          	auipc	tp,0xc
    800000cc:	54f20213          	addi	tp,tp,1359 # 8000c617 <__bss_end+0x3f>
    800000d0:	fc027213          	andi	tp,tp,-64
    800000d4:	2aa0106f          	j	8000137e <init>
    800000d8:	a001                	j	800000d8 <init_sbss+0x2c>

Disassembly of section .text:

00000000800000e0 <trap_entry>:
    800000e0:	7111                	addi	sp,sp,-256
    800000e2:	0001                	nop
    800000e4:	00000013          	nop
    800000e8:	e406                	sd	ra,8(sp)
    800000ea:	e80a                	sd	sp,16(sp)
    800000ec:	ec0e                	sd	gp,24(sp)
    800000ee:	f012                	sd	tp,32(sp)
    800000f0:	f416                	sd	t0,40(sp)
    800000f2:	f81a                	sd	t1,48(sp)
    800000f4:	fc1e                	sd	t2,56(sp)
    800000f6:	e0a2                	sd	s0,64(sp)
    800000f8:	e4a6                	sd	s1,72(sp)
    800000fa:	e8aa                	sd	a0,80(sp)
    800000fc:	ecae                	sd	a1,88(sp)
    800000fe:	f0b2                	sd	a2,96(sp)
    80000100:	f4b6                	sd	a3,104(sp)
    80000102:	f8ba                	sd	a4,112(sp)
    80000104:	fcbe                	sd	a5,120(sp)
    80000106:	e142                	sd	a6,128(sp)
    80000108:	e546                	sd	a7,136(sp)
    8000010a:	e94a                	sd	s2,144(sp)
    8000010c:	ed4e                	sd	s3,152(sp)
    8000010e:	f152                	sd	s4,160(sp)
    80000110:	f556                	sd	s5,168(sp)
    80000112:	f95a                	sd	s6,176(sp)
    80000114:	fd5e                	sd	s7,184(sp)
    80000116:	e1e2                	sd	s8,192(sp)
    80000118:	e5e6                	sd	s9,200(sp)
    8000011a:	e9ea                	sd	s10,208(sp)
    8000011c:	edee                	sd	s11,216(sp)
    8000011e:	f1f2                	sd	t3,224(sp)
    80000120:	f5f6                	sd	t4,232(sp)
    80000122:	f9fa                	sd	t5,240(sp)
    80000124:	fdfe                	sd	t6,248(sp)
    80000126:	34202573          	csrr	a0,mcause
    8000012a:	341025f3          	csrr	a1,mepc
    8000012e:	860a                	mv	a2,sp
    80000130:	0c6000ef          	jal	800001f6 <handle_trap>
    80000134:	34151073          	csrw	mepc,a0
    80000138:	60a2                	ld	ra,8(sp)
    8000013a:	6142                	ld	sp,16(sp)
    8000013c:	61e2                	ld	gp,24(sp)
    8000013e:	7202                	ld	tp,32(sp)
    80000140:	72a2                	ld	t0,40(sp)
    80000142:	7342                	ld	t1,48(sp)
    80000144:	73e2                	ld	t2,56(sp)
    80000146:	6406                	ld	s0,64(sp)
    80000148:	64a6                	ld	s1,72(sp)
    8000014a:	6546                	ld	a0,80(sp)
    8000014c:	65e6                	ld	a1,88(sp)
    8000014e:	7606                	ld	a2,96(sp)
    80000150:	76a6                	ld	a3,104(sp)
    80000152:	7746                	ld	a4,112(sp)
    80000154:	77e6                	ld	a5,120(sp)
    80000156:	680a                	ld	a6,128(sp)
    80000158:	68aa                	ld	a7,136(sp)
    8000015a:	694a                	ld	s2,144(sp)
    8000015c:	69ea                	ld	s3,152(sp)
    8000015e:	7a0a                	ld	s4,160(sp)
    80000160:	7aaa                	ld	s5,168(sp)
    80000162:	7b4a                	ld	s6,176(sp)
    80000164:	7bea                	ld	s7,184(sp)
    80000166:	6c0e                	ld	s8,192(sp)
    80000168:	6cae                	ld	s9,200(sp)
    8000016a:	6d4e                	ld	s10,208(sp)
    8000016c:	6dee                	ld	s11,216(sp)
    8000016e:	7e0e                	ld	t3,224(sp)
    80000170:	7eae                	ld	t4,232(sp)
    80000172:	7f4e                	ld	t5,240(sp)
    80000174:	7fee                	ld	t6,248(sp)
    80000176:	6111                	addi	sp,sp,256
    80000178:	30200073          	mret
	...

000000008000017e <extract_ie_code>:
    8000017e:	7179                	addi	sp,sp,-48
    80000180:	f406                	sd	ra,40(sp)
    80000182:	f022                	sd	s0,32(sp)
    80000184:	1800                	addi	s0,sp,48
    80000186:	87aa                	mv	a5,a0
    80000188:	fcf42e23          	sw	a5,-36(s0)
    8000018c:	00004517          	auipc	a0,0x4
    80000190:	b1c50513          	addi	a0,a0,-1252 # 80003ca8 <__rodata_start>
    80000194:	13e000ef          	jal	800002d2 <log_trace>
    80000198:	fdc42783          	lw	a5,-36(s0)
    8000019c:	873e                	mv	a4,a5
    8000019e:	800007b7          	lui	a5,0x80000
    800001a2:	fff7c793          	not	a5,a5
    800001a6:	8ff9                	and	a5,a5,a4
    800001a8:	fef42623          	sw	a5,-20(s0)
    800001ac:	fec42783          	lw	a5,-20(s0)
    800001b0:	85be                	mv	a1,a5
    800001b2:	00004517          	auipc	a0,0x4
    800001b6:	b1650513          	addi	a0,a0,-1258 # 80003cc8 <__rodata_start+0x20>
    800001ba:	186000ef          	jal	80000340 <log_debug>
    800001be:	00004517          	auipc	a0,0x4
    800001c2:	b2250513          	addi	a0,a0,-1246 # 80003ce0 <__rodata_start+0x38>
    800001c6:	10c000ef          	jal	800002d2 <log_trace>
    800001ca:	fec42783          	lw	a5,-20(s0)
    800001ce:	853e                	mv	a0,a5
    800001d0:	70a2                	ld	ra,40(sp)
    800001d2:	7402                	ld	s0,32(sp)
    800001d4:	6145                	addi	sp,sp,48
    800001d6:	8082                	ret

00000000800001d8 <default_handler>:
    800001d8:	1101                	addi	sp,sp,-32
    800001da:	ec06                	sd	ra,24(sp)
    800001dc:	e822                	sd	s0,16(sp)
    800001de:	1000                	addi	s0,sp,32
    800001e0:	fea43423          	sd	a0,-24(s0)
    800001e4:	feb43023          	sd	a1,-32(s0)
    800001e8:	00004517          	auipc	a0,0x4
    800001ec:	b1050513          	addi	a0,a0,-1264 # 80003cf8 <__rodata_start+0x50>
    800001f0:	0e2000ef          	jal	800002d2 <log_trace>
    800001f4:	a001                	j	800001f4 <default_handler+0x1c>

00000000800001f6 <handle_trap>:
    800001f6:	7179                	addi	sp,sp,-48
    800001f8:	f406                	sd	ra,40(sp)
    800001fa:	f022                	sd	s0,32(sp)
    800001fc:	1800                	addi	s0,sp,48
    800001fe:	fca43c23          	sd	a0,-40(s0)
    80000202:	fcb43823          	sd	a1,-48(s0)
    80000206:	fe042623          	sw	zero,-20(s0)
    8000020a:	fe042423          	sw	zero,-24(s0)
    8000020e:	00004517          	auipc	a0,0x4
    80000212:	b0a50513          	addi	a0,a0,-1270 # 80003d18 <__rodata_start+0x70>
    80000216:	0bc000ef          	jal	800002d2 <log_trace>
    8000021a:	45a1                	li	a1,8
    8000021c:	00004517          	auipc	a0,0x4
    80000220:	b1450513          	addi	a0,a0,-1260 # 80003d30 <__rodata_start+0x88>
    80000224:	11c000ef          	jal	80000340 <log_debug>
    80000228:	03f00793          	li	a5,63
    8000022c:	fef42423          	sw	a5,-24(s0)
    80000230:	fe842783          	lw	a5,-24(s0)
    80000234:	873e                	mv	a4,a5
    80000236:	4785                	li	a5,1
    80000238:	00e797bb          	sllw	a5,a5,a4
    8000023c:	2781                	sext.w	a5,a5
    8000023e:	873e                	mv	a4,a5
    80000240:	fd843783          	ld	a5,-40(s0)
    80000244:	8ff9                	and	a5,a5,a4
    80000246:	c3a9                	beqz	a5,80000288 <handle_trap+0x92>
    80000248:	fd843783          	ld	a5,-40(s0)
    8000024c:	2781                	sext.w	a5,a5
    8000024e:	853e                	mv	a0,a5
    80000250:	f2fff0ef          	jal	8000017e <extract_ie_code>
    80000254:	87aa                	mv	a5,a0
    80000256:	fef42623          	sw	a5,-20(s0)
    8000025a:	fd043603          	ld	a2,-48(s0)
    8000025e:	fd843583          	ld	a1,-40(s0)
    80000262:	00004517          	auipc	a0,0x4
    80000266:	ae650513          	addi	a0,a0,-1306 # 80003d48 <__rodata_start+0xa0>
    8000026a:	08c000ef          	jal	800002f6 <log_info>
    8000026e:	8d018713          	addi	a4,gp,-1840 # 80004d70 <mcause_interrupt_table>
    80000272:	fec46783          	lwu	a5,-20(s0)
    80000276:	078e                	slli	a5,a5,0x3
    80000278:	97ba                	add	a5,a5,a4
    8000027a:	639c                	ld	a5,0(a5)
    8000027c:	fd043583          	ld	a1,-48(s0)
    80000280:	fd843503          	ld	a0,-40(s0)
    80000284:	9782                	jalr	a5
    80000286:	a80d                	j	800002b8 <handle_trap+0xc2>
    80000288:	fd043603          	ld	a2,-48(s0)
    8000028c:	fd843583          	ld	a1,-40(s0)
    80000290:	00004517          	auipc	a0,0x4
    80000294:	ae050513          	addi	a0,a0,-1312 # 80003d70 <__rodata_start+0xc8>
    80000298:	05e000ef          	jal	800002f6 <log_info>
    8000029c:	00005717          	auipc	a4,0x5
    800002a0:	a5470713          	addi	a4,a4,-1452 # 80004cf0 <mcause_trap_table>
    800002a4:	fd843783          	ld	a5,-40(s0)
    800002a8:	078e                	slli	a5,a5,0x3
    800002aa:	97ba                	add	a5,a5,a4
    800002ac:	639c                	ld	a5,0(a5)
    800002ae:	fd043583          	ld	a1,-48(s0)
    800002b2:	fd843503          	ld	a0,-40(s0)
    800002b6:	9782                	jalr	a5
    800002b8:	00004517          	auipc	a0,0x4
    800002bc:	ae050513          	addi	a0,a0,-1312 # 80003d98 <__rodata_start+0xf0>
    800002c0:	012000ef          	jal	800002d2 <log_trace>
    800002c4:	fd043783          	ld	a5,-48(s0)
    800002c8:	853e                	mv	a0,a5
    800002ca:	70a2                	ld	ra,40(sp)
    800002cc:	7402                	ld	s0,32(sp)
    800002ce:	6145                	addi	sp,sp,48
    800002d0:	8082                	ret

00000000800002d2 <log_trace>:
    800002d2:	7159                	addi	sp,sp,-112
    800002d4:	f422                	sd	s0,40(sp)
    800002d6:	1800                	addi	s0,sp,48
    800002d8:	fca43c23          	sd	a0,-40(s0)
    800002dc:	e40c                	sd	a1,8(s0)
    800002de:	e810                	sd	a2,16(s0)
    800002e0:	ec14                	sd	a3,24(s0)
    800002e2:	f018                	sd	a4,32(s0)
    800002e4:	f41c                	sd	a5,40(s0)
    800002e6:	03043823          	sd	a6,48(s0)
    800002ea:	03143c23          	sd	a7,56(s0)
    800002ee:	0001                	nop
    800002f0:	7422                	ld	s0,40(sp)
    800002f2:	6165                	addi	sp,sp,112
    800002f4:	8082                	ret

00000000800002f6 <log_info>:
    800002f6:	7159                	addi	sp,sp,-112
    800002f8:	f406                	sd	ra,40(sp)
    800002fa:	f022                	sd	s0,32(sp)
    800002fc:	1800                	addi	s0,sp,48
    800002fe:	fca43c23          	sd	a0,-40(s0)
    80000302:	e40c                	sd	a1,8(s0)
    80000304:	e810                	sd	a2,16(s0)
    80000306:	ec14                	sd	a3,24(s0)
    80000308:	f018                	sd	a4,32(s0)
    8000030a:	f41c                	sd	a5,40(s0)
    8000030c:	03043823          	sd	a6,48(s0)
    80000310:	03143c23          	sd	a7,56(s0)
    80000314:	04040793          	addi	a5,s0,64
    80000318:	fcf43823          	sd	a5,-48(s0)
    8000031c:	fd043783          	ld	a5,-48(s0)
    80000320:	fc878793          	addi	a5,a5,-56 # ffffffff7fffffc8 <__stack_pointer$+0xfffffffef80003c8>
    80000324:	fef43423          	sd	a5,-24(s0)
    80000328:	fe843783          	ld	a5,-24(s0)
    8000032c:	85be                	mv	a1,a5
    8000032e:	fd843503          	ld	a0,-40(s0)
    80000332:	1e4000ef          	jal	80000516 <_printf_>
    80000336:	0001                	nop
    80000338:	70a2                	ld	ra,40(sp)
    8000033a:	7402                	ld	s0,32(sp)
    8000033c:	6165                	addi	sp,sp,112
    8000033e:	8082                	ret

0000000080000340 <log_debug>:
    80000340:	7159                	addi	sp,sp,-112
    80000342:	f422                	sd	s0,40(sp)
    80000344:	1800                	addi	s0,sp,48
    80000346:	fca43c23          	sd	a0,-40(s0)
    8000034a:	e40c                	sd	a1,8(s0)
    8000034c:	e810                	sd	a2,16(s0)
    8000034e:	ec14                	sd	a3,24(s0)
    80000350:	f018                	sd	a4,32(s0)
    80000352:	f41c                	sd	a5,40(s0)
    80000354:	03043823          	sd	a6,48(s0)
    80000358:	03143c23          	sd	a7,56(s0)
    8000035c:	0001                	nop
    8000035e:	7422                	ld	s0,40(sp)
    80000360:	6165                	addi	sp,sp,112
    80000362:	8082                	ret

0000000080000364 <log_warn>:
    80000364:	7159                	addi	sp,sp,-112
    80000366:	f406                	sd	ra,40(sp)
    80000368:	f022                	sd	s0,32(sp)
    8000036a:	1800                	addi	s0,sp,48
    8000036c:	fca43c23          	sd	a0,-40(s0)
    80000370:	e40c                	sd	a1,8(s0)
    80000372:	e810                	sd	a2,16(s0)
    80000374:	ec14                	sd	a3,24(s0)
    80000376:	f018                	sd	a4,32(s0)
    80000378:	f41c                	sd	a5,40(s0)
    8000037a:	03043823          	sd	a6,48(s0)
    8000037e:	03143c23          	sd	a7,56(s0)
    80000382:	04040793          	addi	a5,s0,64
    80000386:	fcf43823          	sd	a5,-48(s0)
    8000038a:	fd043783          	ld	a5,-48(s0)
    8000038e:	fc878793          	addi	a5,a5,-56
    80000392:	fef43423          	sd	a5,-24(s0)
    80000396:	fe843783          	ld	a5,-24(s0)
    8000039a:	85be                	mv	a1,a5
    8000039c:	fd843503          	ld	a0,-40(s0)
    800003a0:	176000ef          	jal	80000516 <_printf_>
    800003a4:	0001                	nop
    800003a6:	70a2                	ld	ra,40(sp)
    800003a8:	7402                	ld	s0,32(sp)
    800003aa:	6165                	addi	sp,sp,112
    800003ac:	8082                	ret

00000000800003ae <log_error>:
    800003ae:	7159                	addi	sp,sp,-112
    800003b0:	f406                	sd	ra,40(sp)
    800003b2:	f022                	sd	s0,32(sp)
    800003b4:	1800                	addi	s0,sp,48
    800003b6:	fca43c23          	sd	a0,-40(s0)
    800003ba:	e40c                	sd	a1,8(s0)
    800003bc:	e810                	sd	a2,16(s0)
    800003be:	ec14                	sd	a3,24(s0)
    800003c0:	f018                	sd	a4,32(s0)
    800003c2:	f41c                	sd	a5,40(s0)
    800003c4:	03043823          	sd	a6,48(s0)
    800003c8:	03143c23          	sd	a7,56(s0)
    800003cc:	04040793          	addi	a5,s0,64
    800003d0:	fcf43823          	sd	a5,-48(s0)
    800003d4:	fd043783          	ld	a5,-48(s0)
    800003d8:	fc878793          	addi	a5,a5,-56
    800003dc:	fef43423          	sd	a5,-24(s0)
    800003e0:	fe843783          	ld	a5,-24(s0)
    800003e4:	85be                	mv	a1,a5
    800003e6:	fd843503          	ld	a0,-40(s0)
    800003ea:	12c000ef          	jal	80000516 <_printf_>
    800003ee:	0001                	nop
    800003f0:	70a2                	ld	ra,40(sp)
    800003f2:	7402                	ld	s0,32(sp)
    800003f4:	6165                	addi	sp,sp,112
    800003f6:	8082                	ret

00000000800003f8 <log_fatal>:
    800003f8:	7159                	addi	sp,sp,-112
    800003fa:	f406                	sd	ra,40(sp)
    800003fc:	f022                	sd	s0,32(sp)
    800003fe:	1800                	addi	s0,sp,48
    80000400:	fca43c23          	sd	a0,-40(s0)
    80000404:	e40c                	sd	a1,8(s0)
    80000406:	e810                	sd	a2,16(s0)
    80000408:	ec14                	sd	a3,24(s0)
    8000040a:	f018                	sd	a4,32(s0)
    8000040c:	f41c                	sd	a5,40(s0)
    8000040e:	03043823          	sd	a6,48(s0)
    80000412:	03143c23          	sd	a7,56(s0)
    80000416:	04040793          	addi	a5,s0,64
    8000041a:	fcf43823          	sd	a5,-48(s0)
    8000041e:	fd043783          	ld	a5,-48(s0)
    80000422:	fc878793          	addi	a5,a5,-56
    80000426:	fef43423          	sd	a5,-24(s0)
    8000042a:	fe843783          	ld	a5,-24(s0)
    8000042e:	85be                	mv	a1,a5
    80000430:	fd843503          	ld	a0,-40(s0)
    80000434:	0e2000ef          	jal	80000516 <_printf_>
    80000438:	00004517          	auipc	a0,0x4
    8000043c:	97850513          	addi	a0,a0,-1672 # 80003db0 <__rodata_start+0x108>
    80000440:	eb7ff0ef          	jal	800002f6 <log_info>
    80000444:	a001                	j	80000444 <log_fatal+0x4c>

0000000080000446 <itoa>:
    80000446:	7169                	addi	sp,sp,-304
    80000448:	f606                	sd	ra,296(sp)
    8000044a:	f222                	sd	s0,288(sp)
    8000044c:	1a00                	addi	s0,sp,304
    8000044e:	eca43c23          	sd	a0,-296(s0)
    80000452:	87ae                	mv	a5,a1
    80000454:	ecf42a23          	sw	a5,-300(s0)
    80000458:	fe042623          	sw	zero,-20(s0)
    8000045c:	fe042423          	sw	zero,-24(s0)
    80000460:	ed446783          	lwu	a5,-300(s0)
    80000464:	ed843703          	ld	a4,-296(s0)
    80000468:	02f777b3          	remu	a5,a4,a5
    8000046c:	0007871b          	sext.w	a4,a5
    80000470:	fec42783          	lw	a5,-20(s0)
    80000474:	078a                	slli	a5,a5,0x2
    80000476:	17c1                	addi	a5,a5,-16
    80000478:	97a2                	add	a5,a5,s0
    8000047a:	eee7ac23          	sw	a4,-264(a5)
    8000047e:	ed446783          	lwu	a5,-300(s0)
    80000482:	ed843703          	ld	a4,-296(s0)
    80000486:	02f76063          	bltu	a4,a5,800004a6 <itoa+0x60>
    8000048a:	ed446783          	lwu	a5,-300(s0)
    8000048e:	ed843703          	ld	a4,-296(s0)
    80000492:	02f757b3          	divu	a5,a4,a5
    80000496:	ecf43c23          	sd	a5,-296(s0)
    8000049a:	fec42783          	lw	a5,-20(s0)
    8000049e:	2785                	addiw	a5,a5,1
    800004a0:	fef42623          	sw	a5,-20(s0)
    800004a4:	bf75                	j	80000460 <itoa+0x1a>
    800004a6:	0001                	nop
    800004a8:	fec42783          	lw	a5,-20(s0)
    800004ac:	2785                	addiw	a5,a5,1
    800004ae:	fef42623          	sw	a5,-20(s0)
    800004b2:	a0a1                	j	800004fa <itoa+0xb4>
    800004b4:	fec42783          	lw	a5,-20(s0)
    800004b8:	078a                	slli	a5,a5,0x2
    800004ba:	17c1                	addi	a5,a5,-16
    800004bc:	97a2                	add	a5,a5,s0
    800004be:	ef87a783          	lw	a5,-264(a5)
    800004c2:	873e                	mv	a4,a5
    800004c4:	47a5                	li	a5,9
    800004c6:	00e7f763          	bgeu	a5,a4,800004d4 <itoa+0x8e>
    800004ca:	05700793          	li	a5,87
    800004ce:	fef42423          	sw	a5,-24(s0)
    800004d2:	a029                	j	800004dc <itoa+0x96>
    800004d4:	03000793          	li	a5,48
    800004d8:	fef42423          	sw	a5,-24(s0)
    800004dc:	fec42783          	lw	a5,-20(s0)
    800004e0:	078a                	slli	a5,a5,0x2
    800004e2:	17c1                	addi	a5,a5,-16
    800004e4:	97a2                	add	a5,a5,s0
    800004e6:	ef87a783          	lw	a5,-264(a5)
    800004ea:	fe842703          	lw	a4,-24(s0)
    800004ee:	9fb9                	addw	a5,a5,a4
    800004f0:	2781                	sext.w	a5,a5
    800004f2:	2781                	sext.w	a5,a5
    800004f4:	853e                	mv	a0,a5
    800004f6:	498000ef          	jal	8000098e <putchar>
    800004fa:	fec42783          	lw	a5,-20(s0)
    800004fe:	fff7871b          	addiw	a4,a5,-1
    80000502:	fee42623          	sw	a4,-20(s0)
    80000506:	faf047e3          	bgtz	a5,800004b4 <itoa+0x6e>
    8000050a:	0001                	nop
    8000050c:	0001                	nop
    8000050e:	70b2                	ld	ra,296(sp)
    80000510:	7412                	ld	s0,288(sp)
    80000512:	6155                	addi	sp,sp,304
    80000514:	8082                	ret

0000000080000516 <_printf_>:
    80000516:	7119                	addi	sp,sp,-128
    80000518:	fc86                	sd	ra,120(sp)
    8000051a:	f8a2                	sd	s0,112(sp)
    8000051c:	f4a6                	sd	s1,104(sp)
    8000051e:	f0ca                	sd	s2,96(sp)
    80000520:	0100                	addi	s0,sp,128
    80000522:	f8a43423          	sd	a0,-120(s0)
    80000526:	f8b43023          	sd	a1,-128(s0)
    8000052a:	00000793          	li	a5,0
    8000052e:	fcf42423          	sw	a5,-56(s0)
    80000532:	f8043c23          	sd	zero,-104(s0)
    80000536:	fa043023          	sd	zero,-96(s0)
    8000053a:	fa043423          	sd	zero,-88(s0)
    8000053e:	fa042823          	sw	zero,-80(s0)
    80000542:	fa041a23          	sh	zero,-76(s0)
    80000546:	a819                	j	8000055c <_printf_+0x46>
    80000548:	36048963          	beqz	s1,800008ba <_printf_+0x3a4>
    8000054c:	8526                	mv	a0,s1
    8000054e:	440000ef          	jal	8000098e <putchar>
    80000552:	f8843783          	ld	a5,-120(s0)
    80000556:	0785                	addi	a5,a5,1
    80000558:	f8f43423          	sd	a5,-120(s0)
    8000055c:	f8843783          	ld	a5,-120(s0)
    80000560:	0007c783          	lbu	a5,0(a5)
    80000564:	0007849b          	sext.w	s1,a5
    80000568:	8726                	mv	a4,s1
    8000056a:	02500793          	li	a5,37
    8000056e:	fcf71de3          	bne	a4,a5,80000548 <_printf_+0x32>
    80000572:	f8843783          	ld	a5,-120(s0)
    80000576:	0785                	addi	a5,a5,1
    80000578:	f8f43423          	sd	a5,-120(s0)
    8000057c:	f8843783          	ld	a5,-120(s0)
    80000580:	fcf43023          	sd	a5,-64(s0)
    80000584:	fc042a23          	sw	zero,-44(s0)
    80000588:	fc042623          	sw	zero,-52(s0)
    8000058c:	f8843783          	ld	a5,-120(s0)
    80000590:	00178713          	addi	a4,a5,1
    80000594:	f8e43423          	sd	a4,-120(s0)
    80000598:	0007c783          	lbu	a5,0(a5)
    8000059c:	0007849b          	sext.w	s1,a5
    800005a0:	8726                	mv	a4,s1
    800005a2:	02500793          	li	a5,37
    800005a6:	2ef70363          	beq	a4,a5,8000088c <_printf_+0x376>
    800005aa:	8726                	mv	a4,s1
    800005ac:	02500793          	li	a5,37
    800005b0:	2ef74263          	blt	a4,a5,80000894 <_printf_+0x37e>
    800005b4:	8726                	mv	a4,s1
    800005b6:	07800793          	li	a5,120
    800005ba:	2ce7cd63          	blt	a5,a4,80000894 <_printf_+0x37e>
    800005be:	8726                	mv	a4,s1
    800005c0:	06300793          	li	a5,99
    800005c4:	2cf74863          	blt	a4,a5,80000894 <_printf_+0x37e>
    800005c8:	f9d4869b          	addiw	a3,s1,-99
    800005cc:	0006871b          	sext.w	a4,a3
    800005d0:	47d5                	li	a5,21
    800005d2:	2ce7e163          	bltu	a5,a4,80000894 <_printf_+0x37e>
    800005d6:	02069793          	slli	a5,a3,0x20
    800005da:	9381                	srli	a5,a5,0x20
    800005dc:	00279713          	slli	a4,a5,0x2
    800005e0:	00003797          	auipc	a5,0x3
    800005e4:	7e878793          	addi	a5,a5,2024 # 80003dc8 <__rodata_start+0x120>
    800005e8:	97ba                	add	a5,a5,a4
    800005ea:	439c                	lw	a5,0(a5)
    800005ec:	0007871b          	sext.w	a4,a5
    800005f0:	00003797          	auipc	a5,0x3
    800005f4:	7d878793          	addi	a5,a5,2008 # 80003dc8 <__rodata_start+0x120>
    800005f8:	97ba                	add	a5,a5,a4
    800005fa:	8782                	jr	a5
    800005fc:	fd442783          	lw	a5,-44(s0)
    80000600:	2785                	addiw	a5,a5,1
    80000602:	fcf42a23          	sw	a5,-44(s0)
    80000606:	4785                	li	a5,1
    80000608:	fcf42623          	sw	a5,-52(s0)
    8000060c:	ac69                	j	800008a6 <_printf_+0x390>
    8000060e:	f8043783          	ld	a5,-128(s0)
    80000612:	00878713          	addi	a4,a5,8
    80000616:	f8e43023          	sd	a4,-128(s0)
    8000061a:	439c                	lw	a5,0(a5)
    8000061c:	853e                	mv	a0,a5
    8000061e:	370000ef          	jal	8000098e <putchar>
    80000622:	a451                	j	800008a6 <_printf_+0x390>
    80000624:	f8043783          	ld	a5,-128(s0)
    80000628:	00878713          	addi	a4,a5,8
    8000062c:	f8e43023          	sd	a4,-128(s0)
    80000630:	0007b903          	ld	s2,0(a5)
    80000634:	00091b63          	bnez	s2,8000064a <_printf_+0x134>
    80000638:	00003917          	auipc	s2,0x3
    8000063c:	78890913          	addi	s2,s2,1928 # 80003dc0 <__rodata_start+0x118>
    80000640:	a029                	j	8000064a <_printf_+0x134>
    80000642:	8526                	mv	a0,s1
    80000644:	34a000ef          	jal	8000098e <putchar>
    80000648:	0905                	addi	s2,s2,1
    8000064a:	00094783          	lbu	a5,0(s2)
    8000064e:	0007849b          	sext.w	s1,a5
    80000652:	f8e5                	bnez	s1,80000642 <_printf_+0x12c>
    80000654:	ac89                	j	800008a6 <_printf_+0x390>
    80000656:	47a9                	li	a5,10
    80000658:	faf42e23          	sw	a5,-68(s0)
    8000065c:	fd442783          	lw	a5,-44(s0)
    80000660:	0007871b          	sext.w	a4,a5
    80000664:	4785                	li	a5,1
    80000666:	00e7dc63          	bge	a5,a4,8000067e <_printf_+0x168>
    8000066a:	f8043783          	ld	a5,-128(s0)
    8000066e:	00878713          	addi	a4,a5,8
    80000672:	f8e43023          	sd	a4,-128(s0)
    80000676:	639c                	ld	a5,0(a5)
    80000678:	fcf43c23          	sd	a5,-40(s0)
    8000067c:	a81d                	j	800006b2 <_printf_+0x19c>
    8000067e:	fd442783          	lw	a5,-44(s0)
    80000682:	0007871b          	sext.w	a4,a5
    80000686:	4785                	li	a5,1
    80000688:	00f71c63          	bne	a4,a5,800006a0 <_printf_+0x18a>
    8000068c:	f8043783          	ld	a5,-128(s0)
    80000690:	00878713          	addi	a4,a5,8
    80000694:	f8e43023          	sd	a4,-128(s0)
    80000698:	639c                	ld	a5,0(a5)
    8000069a:	fcf43c23          	sd	a5,-40(s0)
    8000069e:	a811                	j	800006b2 <_printf_+0x19c>
    800006a0:	f8043783          	ld	a5,-128(s0)
    800006a4:	00878713          	addi	a4,a5,8
    800006a8:	f8e43023          	sd	a4,-128(s0)
    800006ac:	439c                	lw	a5,0(a5)
    800006ae:	fcf43c23          	sd	a5,-40(s0)
    800006b2:	fd843783          	ld	a5,-40(s0)
    800006b6:	0007dc63          	bgez	a5,800006ce <_printf_+0x1b8>
    800006ba:	02d00513          	li	a0,45
    800006be:	2d0000ef          	jal	8000098e <putchar>
    800006c2:	fd843783          	ld	a5,-40(s0)
    800006c6:	40f007b3          	neg	a5,a5
    800006ca:	fcf43c23          	sd	a5,-40(s0)
    800006ce:	fbc42783          	lw	a5,-68(s0)
    800006d2:	85be                	mv	a1,a5
    800006d4:	fd843503          	ld	a0,-40(s0)
    800006d8:	d6fff0ef          	jal	80000446 <itoa>
    800006dc:	a2e9                	j	800008a6 <_printf_+0x390>
    800006de:	f8043783          	ld	a5,-128(s0)
    800006e2:	00878713          	addi	a4,a5,8
    800006e6:	f8e43023          	sd	a4,-128(s0)
    800006ea:	639c                	ld	a5,0(a5)
    800006ec:	853e                	mv	a0,a5
    800006ee:	3f8030ef          	jal	80003ae6 <__truncdfsf2>
    800006f2:	87aa                	mv	a5,a0
    800006f4:	fcf42423          	sw	a5,-56(s0)
    800006f8:	f9840793          	addi	a5,s0,-104
    800006fc:	4619                	li	a2,6
    800006fe:	85be                	mv	a1,a5
    80000700:	fc842503          	lw	a0,-56(s0)
    80000704:	6e5000ef          	jal	800015e8 <ftoa>
    80000708:	fc042823          	sw	zero,-48(s0)
    8000070c:	a03d                	j	8000073a <_printf_+0x224>
    8000070e:	fd042783          	lw	a5,-48(s0)
    80000712:	1781                	addi	a5,a5,-32
    80000714:	97a2                	add	a5,a5,s0
    80000716:	fb87c783          	lbu	a5,-72(a5)
    8000071a:	2781                	sext.w	a5,a5
    8000071c:	853e                	mv	a0,a5
    8000071e:	270000ef          	jal	8000098e <putchar>
    80000722:	fd042783          	lw	a5,-48(s0)
    80000726:	0007871b          	sext.w	a4,a5
    8000072a:	47f5                	li	a5,29
    8000072c:	00e7cf63          	blt	a5,a4,8000074a <_printf_+0x234>
    80000730:	fd042783          	lw	a5,-48(s0)
    80000734:	2785                	addiw	a5,a5,1
    80000736:	fcf42823          	sw	a5,-48(s0)
    8000073a:	fd042783          	lw	a5,-48(s0)
    8000073e:	1781                	addi	a5,a5,-32
    80000740:	97a2                	add	a5,a5,s0
    80000742:	fb87c783          	lbu	a5,-72(a5)
    80000746:	f7e1                	bnez	a5,8000070e <_printf_+0x1f8>
    80000748:	aab9                	j	800008a6 <_printf_+0x390>
    8000074a:	0001                	nop
    8000074c:	aaa9                	j	800008a6 <_printf_+0x390>
    8000074e:	47a9                	li	a5,10
    80000750:	faf42e23          	sw	a5,-68(s0)
    80000754:	fd442783          	lw	a5,-44(s0)
    80000758:	0007871b          	sext.w	a4,a5
    8000075c:	4785                	li	a5,1
    8000075e:	00e7dc63          	bge	a5,a4,80000776 <_printf_+0x260>
    80000762:	f8043783          	ld	a5,-128(s0)
    80000766:	00878713          	addi	a4,a5,8
    8000076a:	f8e43023          	sd	a4,-128(s0)
    8000076e:	639c                	ld	a5,0(a5)
    80000770:	fcf43c23          	sd	a5,-40(s0)
    80000774:	a815                	j	800007a8 <_printf_+0x292>
    80000776:	fd442783          	lw	a5,-44(s0)
    8000077a:	2781                	sext.w	a5,a5
    8000077c:	cb99                	beqz	a5,80000792 <_printf_+0x27c>
    8000077e:	f8043783          	ld	a5,-128(s0)
    80000782:	00878713          	addi	a4,a5,8
    80000786:	f8e43023          	sd	a4,-128(s0)
    8000078a:	639c                	ld	a5,0(a5)
    8000078c:	fcf43c23          	sd	a5,-40(s0)
    80000790:	a821                	j	800007a8 <_printf_+0x292>
    80000792:	f8043783          	ld	a5,-128(s0)
    80000796:	00878713          	addi	a4,a5,8
    8000079a:	f8e43023          	sd	a4,-128(s0)
    8000079e:	439c                	lw	a5,0(a5)
    800007a0:	1782                	slli	a5,a5,0x20
    800007a2:	9381                	srli	a5,a5,0x20
    800007a4:	fcf43c23          	sd	a5,-40(s0)
    800007a8:	fbc42783          	lw	a5,-68(s0)
    800007ac:	85be                	mv	a1,a5
    800007ae:	fd843503          	ld	a0,-40(s0)
    800007b2:	c95ff0ef          	jal	80000446 <itoa>
    800007b6:	a8c5                	j	800008a6 <_printf_+0x390>
    800007b8:	47a1                	li	a5,8
    800007ba:	faf42e23          	sw	a5,-68(s0)
    800007be:	fd442783          	lw	a5,-44(s0)
    800007c2:	0007871b          	sext.w	a4,a5
    800007c6:	4785                	li	a5,1
    800007c8:	00e7dc63          	bge	a5,a4,800007e0 <_printf_+0x2ca>
    800007cc:	f8043783          	ld	a5,-128(s0)
    800007d0:	00878713          	addi	a4,a5,8
    800007d4:	f8e43023          	sd	a4,-128(s0)
    800007d8:	639c                	ld	a5,0(a5)
    800007da:	fcf43c23          	sd	a5,-40(s0)
    800007de:	a815                	j	80000812 <_printf_+0x2fc>
    800007e0:	fd442783          	lw	a5,-44(s0)
    800007e4:	2781                	sext.w	a5,a5
    800007e6:	cb99                	beqz	a5,800007fc <_printf_+0x2e6>
    800007e8:	f8043783          	ld	a5,-128(s0)
    800007ec:	00878713          	addi	a4,a5,8
    800007f0:	f8e43023          	sd	a4,-128(s0)
    800007f4:	639c                	ld	a5,0(a5)
    800007f6:	fcf43c23          	sd	a5,-40(s0)
    800007fa:	a821                	j	80000812 <_printf_+0x2fc>
    800007fc:	f8043783          	ld	a5,-128(s0)
    80000800:	00878713          	addi	a4,a5,8
    80000804:	f8e43023          	sd	a4,-128(s0)
    80000808:	439c                	lw	a5,0(a5)
    8000080a:	1782                	slli	a5,a5,0x20
    8000080c:	9381                	srli	a5,a5,0x20
    8000080e:	fcf43c23          	sd	a5,-40(s0)
    80000812:	fbc42783          	lw	a5,-68(s0)
    80000816:	85be                	mv	a1,a5
    80000818:	fd843503          	ld	a0,-40(s0)
    8000081c:	c2bff0ef          	jal	80000446 <itoa>
    80000820:	a059                	j	800008a6 <_printf_+0x390>
    80000822:	47c1                	li	a5,16
    80000824:	faf42e23          	sw	a5,-68(s0)
    80000828:	fd442783          	lw	a5,-44(s0)
    8000082c:	0007871b          	sext.w	a4,a5
    80000830:	4785                	li	a5,1
    80000832:	00e7dc63          	bge	a5,a4,8000084a <_printf_+0x334>
    80000836:	f8043783          	ld	a5,-128(s0)
    8000083a:	00878713          	addi	a4,a5,8
    8000083e:	f8e43023          	sd	a4,-128(s0)
    80000842:	639c                	ld	a5,0(a5)
    80000844:	fcf43c23          	sd	a5,-40(s0)
    80000848:	a815                	j	8000087c <_printf_+0x366>
    8000084a:	fd442783          	lw	a5,-44(s0)
    8000084e:	2781                	sext.w	a5,a5
    80000850:	cb99                	beqz	a5,80000866 <_printf_+0x350>
    80000852:	f8043783          	ld	a5,-128(s0)
    80000856:	00878713          	addi	a4,a5,8
    8000085a:	f8e43023          	sd	a4,-128(s0)
    8000085e:	639c                	ld	a5,0(a5)
    80000860:	fcf43c23          	sd	a5,-40(s0)
    80000864:	a821                	j	8000087c <_printf_+0x366>
    80000866:	f8043783          	ld	a5,-128(s0)
    8000086a:	00878713          	addi	a4,a5,8
    8000086e:	f8e43023          	sd	a4,-128(s0)
    80000872:	439c                	lw	a5,0(a5)
    80000874:	1782                	slli	a5,a5,0x20
    80000876:	9381                	srli	a5,a5,0x20
    80000878:	fcf43c23          	sd	a5,-40(s0)
    8000087c:	fbc42783          	lw	a5,-68(s0)
    80000880:	85be                	mv	a1,a5
    80000882:	fd843503          	ld	a0,-40(s0)
    80000886:	bc1ff0ef          	jal	80000446 <itoa>
    8000088a:	a831                	j	800008a6 <_printf_+0x390>
    8000088c:	8526                	mv	a0,s1
    8000088e:	100000ef          	jal	8000098e <putchar>
    80000892:	a811                	j	800008a6 <_printf_+0x390>
    80000894:	02500513          	li	a0,37
    80000898:	0f6000ef          	jal	8000098e <putchar>
    8000089c:	fc043783          	ld	a5,-64(s0)
    800008a0:	f8f43423          	sd	a5,-120(s0)
    800008a4:	0001                	nop
    800008a6:	fcc42783          	lw	a5,-52(s0)
    800008aa:	2781                	sext.w	a5,a5
    800008ac:	c789                	beqz	a5,800008b6 <_printf_+0x3a0>
    800008ae:	fc042623          	sw	zero,-52(s0)
    800008b2:	0001                	nop
    800008b4:	b9e1                	j	8000058c <_printf_+0x76>
    800008b6:	0001                	nop
    800008b8:	b155                	j	8000055c <_printf_+0x46>
    800008ba:	0001                	nop
    800008bc:	70e6                	ld	ra,120(sp)
    800008be:	7446                	ld	s0,112(sp)
    800008c0:	74a6                	ld	s1,104(sp)
    800008c2:	7906                	ld	s2,96(sp)
    800008c4:	6109                	addi	sp,sp,128
    800008c6:	8082                	ret

00000000800008c8 <printf>:
    800008c8:	7159                	addi	sp,sp,-112
    800008ca:	f406                	sd	ra,40(sp)
    800008cc:	f022                	sd	s0,32(sp)
    800008ce:	1800                	addi	s0,sp,48
    800008d0:	fca43c23          	sd	a0,-40(s0)
    800008d4:	e40c                	sd	a1,8(s0)
    800008d6:	e810                	sd	a2,16(s0)
    800008d8:	ec14                	sd	a3,24(s0)
    800008da:	f018                	sd	a4,32(s0)
    800008dc:	f41c                	sd	a5,40(s0)
    800008de:	03043823          	sd	a6,48(s0)
    800008e2:	03143c23          	sd	a7,56(s0)
    800008e6:	04040793          	addi	a5,s0,64
    800008ea:	fcf43823          	sd	a5,-48(s0)
    800008ee:	fd043783          	ld	a5,-48(s0)
    800008f2:	fc878793          	addi	a5,a5,-56
    800008f6:	fef43423          	sd	a5,-24(s0)
    800008fa:	fe843783          	ld	a5,-24(s0)
    800008fe:	85be                	mv	a1,a5
    80000900:	fd843503          	ld	a0,-40(s0)
    80000904:	c13ff0ef          	jal	80000516 <_printf_>
    80000908:	4781                	li	a5,0
    8000090a:	853e                	mv	a0,a5
    8000090c:	70a2                	ld	ra,40(sp)
    8000090e:	7402                	ld	s0,32(sp)
    80000910:	6165                	addi	sp,sp,112
    80000912:	8082                	ret

0000000080000914 <uart_init>:
    80000914:	1101                	addi	sp,sp,-32
    80000916:	ec22                	sd	s0,24(sp)
    80000918:	1000                	addi	s0,sp,32
    8000091a:	fe042623          	sw	zero,-20(s0)
    8000091e:	a035                	j	8000094a <uart_init+0x36>
    80000920:	fec42783          	lw	a5,-20(s0)
    80000924:	1137879b          	addiw	a5,a5,275
    80000928:	2781                	sext.w	a5,a5
    8000092a:	0087979b          	slliw	a5,a5,0x8
    8000092e:	2781                	sext.w	a5,a5
    80000930:	86be                	mv	a3,a5
    80000932:	95018713          	addi	a4,gp,-1712 # 80004df0 <uart_instance>
    80000936:	fec42783          	lw	a5,-20(s0)
    8000093a:	078e                	slli	a5,a5,0x3
    8000093c:	97ba                	add	a5,a5,a4
    8000093e:	e394                	sd	a3,0(a5)
    80000940:	fec42783          	lw	a5,-20(s0)
    80000944:	2785                	addiw	a5,a5,1
    80000946:	fef42623          	sw	a5,-20(s0)
    8000094a:	fec42783          	lw	a5,-20(s0)
    8000094e:	0007871b          	sext.w	a4,a5
    80000952:	4789                	li	a5,2
    80000954:	fce7d6e3          	bge	a5,a4,80000920 <uart_init+0xc>
    80000958:	0001                	nop
    8000095a:	0001                	nop
    8000095c:	6462                	ld	s0,24(sp)
    8000095e:	6105                	addi	sp,sp,32
    80000960:	8082                	ret

0000000080000962 <getchar>:
    80000962:	1141                	addi	sp,sp,-16
    80000964:	e422                	sd	s0,8(sp)
    80000966:	0800                	addi	s0,sp,16
    80000968:	0001                	nop
    8000096a:	95018793          	addi	a5,gp,-1712 # 80004df0 <uart_instance>
    8000096e:	639c                	ld	a5,0(a5)
    80000970:	00c7c783          	lbu	a5,12(a5)
    80000974:	2781                	sext.w	a5,a5
    80000976:	8b91                	andi	a5,a5,4
    80000978:	2781                	sext.w	a5,a5
    8000097a:	dbe5                	beqz	a5,8000096a <getchar+0x8>
    8000097c:	95018793          	addi	a5,gp,-1712 # 80004df0 <uart_instance>
    80000980:	639c                	ld	a5,0(a5)
    80000982:	479c                	lw	a5,8(a5)
    80000984:	2781                	sext.w	a5,a5
    80000986:	853e                	mv	a0,a5
    80000988:	6422                	ld	s0,8(sp)
    8000098a:	0141                	addi	sp,sp,16
    8000098c:	8082                	ret

000000008000098e <putchar>:
    8000098e:	1101                	addi	sp,sp,-32
    80000990:	ec22                	sd	s0,24(sp)
    80000992:	1000                	addi	s0,sp,32
    80000994:	87aa                	mv	a5,a0
    80000996:	fef42623          	sw	a5,-20(s0)
    8000099a:	0001                	nop
    8000099c:	95018793          	addi	a5,gp,-1712 # 80004df0 <uart_instance>
    800009a0:	639c                	ld	a5,0(a5)
    800009a2:	00c7c783          	lbu	a5,12(a5)
    800009a6:	2781                	sext.w	a5,a5
    800009a8:	8b89                	andi	a5,a5,2
    800009aa:	2781                	sext.w	a5,a5
    800009ac:	fbe5                	bnez	a5,8000099c <putchar+0xe>
    800009ae:	95018793          	addi	a5,gp,-1712 # 80004df0 <uart_instance>
    800009b2:	639c                	ld	a5,0(a5)
    800009b4:	fec42703          	lw	a4,-20(s0)
    800009b8:	c3d8                	sw	a4,4(a5)
    800009ba:	4781                	li	a5,0
    800009bc:	853e                	mv	a0,a5
    800009be:	6462                	ld	s0,24(sp)
    800009c0:	6105                	addi	sp,sp,32
    800009c2:	8082                	ret

00000000800009c4 <set_baud_rate>:
    800009c4:	7179                	addi	sp,sp,-48
    800009c6:	f422                	sd	s0,40(sp)
    800009c8:	1800                	addi	s0,sp,48
    800009ca:	fca43c23          	sd	a0,-40(s0)
    800009ce:	87ae                	mv	a5,a1
    800009d0:	fcf42a23          	sw	a5,-44(s0)
    800009d4:	fe042623          	sw	zero,-20(s0)
    800009d8:	fd442783          	lw	a5,-44(s0)
    800009dc:	0047979b          	slliw	a5,a5,0x4
    800009e0:	2781                	sext.w	a5,a5
    800009e2:	02faf737          	lui	a4,0x2faf
    800009e6:	0807071b          	addiw	a4,a4,128 # 2faf080 <_tbss_end+0x2faf080>
    800009ea:	02f757bb          	divuw	a5,a4,a5
    800009ee:	fef42623          	sw	a5,-20(s0)
    800009f2:	fec42783          	lw	a5,-20(s0)
    800009f6:	03079713          	slli	a4,a5,0x30
    800009fa:	9341                	srli	a4,a4,0x30
    800009fc:	fd843783          	ld	a5,-40(s0)
    80000a00:	00e79023          	sh	a4,0(a5)
    80000a04:	0001                	nop
    80000a06:	7422                	ld	s0,40(sp)
    80000a08:	6145                	addi	sp,sp,48
    80000a0a:	8082                	ret

0000000080000a0c <enable_uart_interrupts>:
    80000a0c:	1101                	addi	sp,sp,-32
    80000a0e:	ec22                	sd	s0,24(sp)
    80000a10:	1000                	addi	s0,sp,32
    80000a12:	fea43423          	sd	a0,-24(s0)
    80000a16:	87ae                	mv	a5,a1
    80000a18:	fef403a3          	sb	a5,-25(s0)
    80000a1c:	fe843783          	ld	a5,-24(s0)
    80000a20:	fe744703          	lbu	a4,-25(s0)
    80000a24:	00e78c23          	sb	a4,24(a5)
    80000a28:	0001                	nop
    80000a2a:	6462                	ld	s0,24(sp)
    80000a2c:	6105                	addi	sp,sp,32
    80000a2e:	8082                	ret

0000000080000a30 <set_uart_rx_threshold>:
    80000a30:	1101                	addi	sp,sp,-32
    80000a32:	ec22                	sd	s0,24(sp)
    80000a34:	1000                	addi	s0,sp,32
    80000a36:	fea43423          	sd	a0,-24(s0)
    80000a3a:	87ae                	mv	a5,a1
    80000a3c:	fef403a3          	sb	a5,-25(s0)
    80000a40:	fe843783          	ld	a5,-24(s0)
    80000a44:	fe744703          	lbu	a4,-25(s0)
    80000a48:	02e78023          	sb	a4,32(a5)
    80000a4c:	0001                	nop
    80000a4e:	6462                	ld	s0,24(sp)
    80000a50:	6105                	addi	sp,sp,32
    80000a52:	8082                	ret

0000000080000a54 <write_uart_character>:
    80000a54:	1101                	addi	sp,sp,-32
    80000a56:	ec22                	sd	s0,24(sp)
    80000a58:	1000                	addi	s0,sp,32
    80000a5a:	fea43423          	sd	a0,-24(s0)
    80000a5e:	87ae                	mv	a5,a1
    80000a60:	fef403a3          	sb	a5,-25(s0)
    80000a64:	0001                	nop
    80000a66:	fe843783          	ld	a5,-24(s0)
    80000a6a:	00c7c783          	lbu	a5,12(a5)
    80000a6e:	2781                	sext.w	a5,a5
    80000a70:	8b89                	andi	a5,a5,2
    80000a72:	2781                	sext.w	a5,a5
    80000a74:	fbed                	bnez	a5,80000a66 <write_uart_character+0x12>
    80000a76:	fe744783          	lbu	a5,-25(s0)
    80000a7a:	0007871b          	sext.w	a4,a5
    80000a7e:	fe843783          	ld	a5,-24(s0)
    80000a82:	c3d8                	sw	a4,4(a5)
    80000a84:	4781                	li	a5,0
    80000a86:	853e                	mv	a0,a5
    80000a88:	6462                	ld	s0,24(sp)
    80000a8a:	6105                	addi	sp,sp,32
    80000a8c:	8082                	ret

0000000080000a8e <write_uart_string>:
    80000a8e:	7179                	addi	sp,sp,-48
    80000a90:	f406                	sd	ra,40(sp)
    80000a92:	f022                	sd	s0,32(sp)
    80000a94:	1800                	addi	s0,sp,48
    80000a96:	fca43c23          	sd	a0,-40(s0)
    80000a9a:	fcb43823          	sd	a1,-48(s0)
    80000a9e:	fe042623          	sw	zero,-20(s0)
    80000aa2:	fec42783          	lw	a5,-20(s0)
    80000aa6:	0017871b          	addiw	a4,a5,1
    80000aaa:	fee42623          	sw	a4,-20(s0)
    80000aae:	1782                	slli	a5,a5,0x20
    80000ab0:	9381                	srli	a5,a5,0x20
    80000ab2:	fd043703          	ld	a4,-48(s0)
    80000ab6:	97ba                	add	a5,a5,a4
    80000ab8:	0007c783          	lbu	a5,0(a5)
    80000abc:	fef405a3          	sb	a5,-21(s0)
    80000ac0:	feb44783          	lbu	a5,-21(s0)
    80000ac4:	85be                	mv	a1,a5
    80000ac6:	fd843503          	ld	a0,-40(s0)
    80000aca:	f8bff0ef          	jal	80000a54 <write_uart_character>
    80000ace:	feb44783          	lbu	a5,-21(s0)
    80000ad2:	0ff7f793          	zext.b	a5,a5
    80000ad6:	f7f1                	bnez	a5,80000aa2 <write_uart_string+0x14>
    80000ad8:	4781                	li	a5,0
    80000ada:	853e                	mv	a0,a5
    80000adc:	70a2                	ld	ra,40(sp)
    80000ade:	7402                	ld	s0,32(sp)
    80000ae0:	6145                	addi	sp,sp,48
    80000ae2:	8082                	ret

0000000080000ae4 <read_uart_character>:
    80000ae4:	7179                	addi	sp,sp,-48
    80000ae6:	f422                	sd	s0,40(sp)
    80000ae8:	1800                	addi	s0,sp,48
    80000aea:	fca43c23          	sd	a0,-40(s0)
    80000aee:	fcb43823          	sd	a1,-48(s0)
    80000af2:	fe0407a3          	sb	zero,-17(s0)
    80000af6:	0001                	nop
    80000af8:	fd843783          	ld	a5,-40(s0)
    80000afc:	00c7c783          	lbu	a5,12(a5)
    80000b00:	2781                	sext.w	a5,a5
    80000b02:	8b91                	andi	a5,a5,4
    80000b04:	2781                	sext.w	a5,a5
    80000b06:	dbed                	beqz	a5,80000af8 <read_uart_character+0x14>
    80000b08:	fd843783          	ld	a5,-40(s0)
    80000b0c:	479c                	lw	a5,8(a5)
    80000b0e:	fef407a3          	sb	a5,-17(s0)
    80000b12:	fd043783          	ld	a5,-48(s0)
    80000b16:	fef44703          	lbu	a4,-17(s0)
    80000b1a:	00e78023          	sb	a4,0(a5)
    80000b1e:	4785                	li	a5,1
    80000b20:	853e                	mv	a0,a5
    80000b22:	7422                	ld	s0,40(sp)
    80000b24:	6145                	addi	sp,sp,48
    80000b26:	8082                	ret

0000000080000b28 <read_uart_string>:
    80000b28:	7179                	addi	sp,sp,-48
    80000b2a:	f406                	sd	ra,40(sp)
    80000b2c:	f022                	sd	s0,32(sp)
    80000b2e:	1800                	addi	s0,sp,48
    80000b30:	fca43c23          	sd	a0,-40(s0)
    80000b34:	fcb43823          	sd	a1,-48(s0)
    80000b38:	fe042623          	sw	zero,-20(s0)
    80000b3c:	fe0405a3          	sb	zero,-21(s0)
    80000b40:	0001                	nop
    80000b42:	fd843783          	ld	a5,-40(s0)
    80000b46:	00c7c783          	lbu	a5,12(a5)
    80000b4a:	2781                	sext.w	a5,a5
    80000b4c:	8b91                	andi	a5,a5,4
    80000b4e:	2781                	sext.w	a5,a5
    80000b50:	dbed                	beqz	a5,80000b42 <read_uart_string+0x1a>
    80000b52:	fd843783          	ld	a5,-40(s0)
    80000b56:	479c                	lw	a5,8(a5)
    80000b58:	fef405a3          	sb	a5,-21(s0)
    80000b5c:	fec42783          	lw	a5,-20(s0)
    80000b60:	0017871b          	addiw	a4,a5,1
    80000b64:	fee42623          	sw	a4,-20(s0)
    80000b68:	1782                	slli	a5,a5,0x20
    80000b6a:	9381                	srli	a5,a5,0x20
    80000b6c:	fd043703          	ld	a4,-48(s0)
    80000b70:	97ba                	add	a5,a5,a4
    80000b72:	feb44703          	lbu	a4,-21(s0)
    80000b76:	00e78023          	sb	a4,0(a5)
    80000b7a:	feb44783          	lbu	a5,-21(s0)
    80000b7e:	2781                	sext.w	a5,a5
    80000b80:	853e                	mv	a0,a5
    80000b82:	e0dff0ef          	jal	8000098e <putchar>
    80000b86:	feb44783          	lbu	a5,-21(s0)
    80000b8a:	0ff7f713          	zext.b	a4,a5
    80000b8e:	47b5                	li	a5,13
    80000b90:	faf718e3          	bne	a4,a5,80000b40 <read_uart_string+0x18>
    80000b94:	fec42783          	lw	a5,-20(s0)
    80000b98:	0017871b          	addiw	a4,a5,1
    80000b9c:	fee42623          	sw	a4,-20(s0)
    80000ba0:	1782                	slli	a5,a5,0x20
    80000ba2:	9381                	srli	a5,a5,0x20
    80000ba4:	fd043703          	ld	a4,-48(s0)
    80000ba8:	97ba                	add	a5,a5,a4
    80000baa:	4729                	li	a4,10
    80000bac:	00e78023          	sb	a4,0(a5)
    80000bb0:	fec42783          	lw	a5,-20(s0)
    80000bb4:	0017871b          	addiw	a4,a5,1
    80000bb8:	fee42623          	sw	a4,-20(s0)
    80000bbc:	1782                	slli	a5,a5,0x20
    80000bbe:	9381                	srli	a5,a5,0x20
    80000bc0:	fd043703          	ld	a4,-48(s0)
    80000bc4:	97ba                	add	a5,a5,a4
    80000bc6:	00078023          	sb	zero,0(a5)
    80000bca:	fec42783          	lw	a5,-20(s0)
    80000bce:	0ff7f793          	zext.b	a5,a5
    80000bd2:	853e                	mv	a0,a5
    80000bd4:	70a2                	ld	ra,40(sp)
    80000bd6:	7402                	ld	s0,32(sp)
    80000bd8:	6145                	addi	sp,sp,48
    80000bda:	8082                	ret

0000000080000bdc <flush_uart>:
    80000bdc:	7179                	addi	sp,sp,-48
    80000bde:	f422                	sd	s0,40(sp)
    80000be0:	1800                	addi	s0,sp,48
    80000be2:	fca43c23          	sd	a0,-40(s0)
    80000be6:	a031                	j	80000bf2 <flush_uart+0x16>
    80000be8:	fd843783          	ld	a5,-40(s0)
    80000bec:	479c                	lw	a5,8(a5)
    80000bee:	fef407a3          	sb	a5,-17(s0)
    80000bf2:	fd843783          	ld	a5,-40(s0)
    80000bf6:	00c7c783          	lbu	a5,12(a5)
    80000bfa:	2781                	sext.w	a5,a5
    80000bfc:	8b91                	andi	a5,a5,4
    80000bfe:	2781                	sext.w	a5,a5
    80000c00:	f7e5                	bnez	a5,80000be8 <flush_uart+0xc>
    80000c02:	0001                	nop
    80000c04:	0001                	nop
    80000c06:	7422                	ld	s0,40(sp)
    80000c08:	6145                	addi	sp,sp,48
    80000c0a:	8082                	ret

0000000080000c0c <uart0_isr>:
    80000c0c:	1101                	addi	sp,sp,-32
    80000c0e:	ec06                	sd	ra,24(sp)
    80000c10:	e822                	sd	s0,16(sp)
    80000c12:	1000                	addi	s0,sp,32
    80000c14:	fe042623          	sw	zero,-20(s0)
    80000c18:	95018793          	addi	a5,gp,-1712 # 80004df0 <uart_instance>
    80000c1c:	639c                	ld	a5,0(a5)
    80000c1e:	00c7c783          	lbu	a5,12(a5)
    80000c22:	2781                	sext.w	a5,a5
    80000c24:	1007f793          	andi	a5,a5,256
    80000c28:	2781                	sext.w	a5,a5
    80000c2a:	c7ad                	beqz	a5,80000c94 <uart0_isr+0x88>
    80000c2c:	a891                	j	80000c80 <uart0_isr+0x74>
    80000c2e:	95018793          	addi	a5,gp,-1712 # 80004df0 <uart_instance>
    80000c32:	639c                	ld	a5,0(a5)
    80000c34:	479c                	lw	a5,8(a5)
    80000c36:	fef42623          	sw	a5,-20(s0)
    80000c3a:	83818793          	addi	a5,gp,-1992 # 80004cd8 <uart0_rcv_isr_count>
    80000c3e:	439c                	lw	a5,0(a5)
    80000c40:	2781                	sext.w	a5,a5
    80000c42:	0017871b          	addiw	a4,a5,1
    80000c46:	0007069b          	sext.w	a3,a4
    80000c4a:	83818713          	addi	a4,gp,-1992 # 80004cd8 <uart0_rcv_isr_count>
    80000c4e:	c314                	sw	a3,0(a4)
    80000c50:	fec42703          	lw	a4,-20(s0)
    80000c54:	0ff77713          	zext.b	a4,a4
    80000c58:	00004697          	auipc	a3,0x4
    80000c5c:	1b068693          	addi	a3,a3,432 # 80004e08 <u0_rcv_char>
    80000c60:	1782                	slli	a5,a5,0x20
    80000c62:	9381                	srli	a5,a5,0x20
    80000c64:	97b6                	add	a5,a5,a3
    80000c66:	00e78023          	sb	a4,0(a5)
    80000c6a:	95018793          	addi	a5,gp,-1712 # 80004df0 <uart_instance>
    80000c6e:	639c                	ld	a5,0(a5)
    80000c70:	fec42703          	lw	a4,-20(s0)
    80000c74:	0ff77713          	zext.b	a4,a4
    80000c78:	85ba                	mv	a1,a4
    80000c7a:	853e                	mv	a0,a5
    80000c7c:	dd9ff0ef          	jal	80000a54 <write_uart_character>
    80000c80:	95018793          	addi	a5,gp,-1712 # 80004df0 <uart_instance>
    80000c84:	639c                	ld	a5,0(a5)
    80000c86:	00c7c783          	lbu	a5,12(a5)
    80000c8a:	2781                	sext.w	a5,a5
    80000c8c:	8b91                	andi	a5,a5,4
    80000c8e:	2781                	sext.w	a5,a5
    80000c90:	ffd9                	bnez	a5,80000c2e <uart0_isr+0x22>
    80000c92:	a235                	j	80000dbe <uart0_isr+0x1b2>
    80000c94:	95018793          	addi	a5,gp,-1712 # 80004df0 <uart_instance>
    80000c98:	639c                	ld	a5,0(a5)
    80000c9a:	00c7c783          	lbu	a5,12(a5)
    80000c9e:	2781                	sext.w	a5,a5
    80000ca0:	8ba1                	andi	a5,a5,8
    80000ca2:	2781                	sext.w	a5,a5
    80000ca4:	cbdd                	beqz	a5,80000d5a <uart0_isr+0x14e>
    80000ca6:	45c1                	li	a1,16
    80000ca8:	000407b7          	lui	a5,0x40
    80000cac:	10078513          	addi	a0,a5,256 # 40100 <_tbss_end+0x40100>
    80000cb0:	379000ef          	jal	80001828 <write_word>
    80000cb4:	000407b7          	lui	a5,0x40
    80000cb8:	10878513          	addi	a0,a5,264 # 40108 <_tbss_end+0x40108>
    80000cbc:	335000ef          	jal	800017f0 <read_word>
    80000cc0:	87aa                	mv	a5,a0
    80000cc2:	0107e793          	ori	a5,a5,16
    80000cc6:	85be                	mv	a1,a5
    80000cc8:	000407b7          	lui	a5,0x40
    80000ccc:	10878513          	addi	a0,a5,264 # 40108 <_tbss_end+0x40108>
    80000cd0:	359000ef          	jal	80001828 <write_word>
    80000cd4:	a891                	j	80000d28 <uart0_isr+0x11c>
    80000cd6:	95018793          	addi	a5,gp,-1712 # 80004df0 <uart_instance>
    80000cda:	639c                	ld	a5,0(a5)
    80000cdc:	479c                	lw	a5,8(a5)
    80000cde:	fef42623          	sw	a5,-20(s0)
    80000ce2:	83818793          	addi	a5,gp,-1992 # 80004cd8 <uart0_rcv_isr_count>
    80000ce6:	439c                	lw	a5,0(a5)
    80000ce8:	2781                	sext.w	a5,a5
    80000cea:	0017871b          	addiw	a4,a5,1
    80000cee:	0007069b          	sext.w	a3,a4
    80000cf2:	83818713          	addi	a4,gp,-1992 # 80004cd8 <uart0_rcv_isr_count>
    80000cf6:	c314                	sw	a3,0(a4)
    80000cf8:	fec42703          	lw	a4,-20(s0)
    80000cfc:	0ff77713          	zext.b	a4,a4
    80000d00:	00004697          	auipc	a3,0x4
    80000d04:	10868693          	addi	a3,a3,264 # 80004e08 <u0_rcv_char>
    80000d08:	1782                	slli	a5,a5,0x20
    80000d0a:	9381                	srli	a5,a5,0x20
    80000d0c:	97b6                	add	a5,a5,a3
    80000d0e:	00e78023          	sb	a4,0(a5)
    80000d12:	95018793          	addi	a5,gp,-1712 # 80004df0 <uart_instance>
    80000d16:	639c                	ld	a5,0(a5)
    80000d18:	fec42703          	lw	a4,-20(s0)
    80000d1c:	0ff77713          	zext.b	a4,a4
    80000d20:	85ba                	mv	a1,a4
    80000d22:	853e                	mv	a0,a5
    80000d24:	d31ff0ef          	jal	80000a54 <write_uart_character>
    80000d28:	95018793          	addi	a5,gp,-1712 # 80004df0 <uart_instance>
    80000d2c:	639c                	ld	a5,0(a5)
    80000d2e:	00c7c783          	lbu	a5,12(a5)
    80000d32:	2781                	sext.w	a5,a5
    80000d34:	8b91                	andi	a5,a5,4
    80000d36:	2781                	sext.w	a5,a5
    80000d38:	ffd9                	bnez	a5,80000cd6 <uart0_isr+0xca>
    80000d3a:	000407b7          	lui	a5,0x40
    80000d3e:	10878513          	addi	a0,a5,264 # 40108 <_tbss_end+0x40108>
    80000d42:	2af000ef          	jal	800017f0 <read_word>
    80000d46:	87aa                	mv	a5,a0
    80000d48:	9bbd                	andi	a5,a5,-17
    80000d4a:	85be                	mv	a1,a5
    80000d4c:	000407b7          	lui	a5,0x40
    80000d50:	10878513          	addi	a0,a5,264 # 40108 <_tbss_end+0x40108>
    80000d54:	2d5000ef          	jal	80001828 <write_word>
    80000d58:	a09d                	j	80000dbe <uart0_isr+0x1b2>
    80000d5a:	95018793          	addi	a5,gp,-1712 # 80004df0 <uart_instance>
    80000d5e:	639c                	ld	a5,0(a5)
    80000d60:	00c7c783          	lbu	a5,12(a5)
    80000d64:	2781                	sext.w	a5,a5
    80000d66:	8b91                	andi	a5,a5,4
    80000d68:	2781                	sext.w	a5,a5
    80000d6a:	cbb1                	beqz	a5,80000dbe <uart0_isr+0x1b2>
    80000d6c:	95018793          	addi	a5,gp,-1712 # 80004df0 <uart_instance>
    80000d70:	639c                	ld	a5,0(a5)
    80000d72:	479c                	lw	a5,8(a5)
    80000d74:	fef42623          	sw	a5,-20(s0)
    80000d78:	83818793          	addi	a5,gp,-1992 # 80004cd8 <uart0_rcv_isr_count>
    80000d7c:	439c                	lw	a5,0(a5)
    80000d7e:	2781                	sext.w	a5,a5
    80000d80:	0017871b          	addiw	a4,a5,1
    80000d84:	0007069b          	sext.w	a3,a4
    80000d88:	83818713          	addi	a4,gp,-1992 # 80004cd8 <uart0_rcv_isr_count>
    80000d8c:	c314                	sw	a3,0(a4)
    80000d8e:	fec42703          	lw	a4,-20(s0)
    80000d92:	0ff77713          	zext.b	a4,a4
    80000d96:	00004697          	auipc	a3,0x4
    80000d9a:	07268693          	addi	a3,a3,114 # 80004e08 <u0_rcv_char>
    80000d9e:	1782                	slli	a5,a5,0x20
    80000da0:	9381                	srli	a5,a5,0x20
    80000da2:	97b6                	add	a5,a5,a3
    80000da4:	00e78023          	sb	a4,0(a5)
    80000da8:	95018793          	addi	a5,gp,-1712 # 80004df0 <uart_instance>
    80000dac:	639c                	ld	a5,0(a5)
    80000dae:	fec42703          	lw	a4,-20(s0)
    80000db2:	0ff77713          	zext.b	a4,a4
    80000db6:	85ba                	mv	a1,a4
    80000db8:	853e                	mv	a0,a5
    80000dba:	c9bff0ef          	jal	80000a54 <write_uart_character>
    80000dbe:	4781                	li	a5,0
    80000dc0:	853e                	mv	a0,a5
    80000dc2:	60e2                	ld	ra,24(sp)
    80000dc4:	6442                	ld	s0,16(sp)
    80000dc6:	6105                	addi	sp,sp,32
    80000dc8:	8082                	ret

0000000080000dca <uart1_isr>:
    80000dca:	1101                	addi	sp,sp,-32
    80000dcc:	ec06                	sd	ra,24(sp)
    80000dce:	e822                	sd	s0,16(sp)
    80000dd0:	1000                	addi	s0,sp,32
    80000dd2:	fe042623          	sw	zero,-20(s0)
    80000dd6:	95018793          	addi	a5,gp,-1712 # 80004df0 <uart_instance>
    80000dda:	679c                	ld	a5,8(a5)
    80000ddc:	00c7c783          	lbu	a5,12(a5)
    80000de0:	2781                	sext.w	a5,a5
    80000de2:	1007f793          	andi	a5,a5,256
    80000de6:	2781                	sext.w	a5,a5
    80000de8:	c7ad                	beqz	a5,80000e52 <uart1_isr+0x88>
    80000dea:	a891                	j	80000e3e <uart1_isr+0x74>
    80000dec:	95018793          	addi	a5,gp,-1712 # 80004df0 <uart_instance>
    80000df0:	679c                	ld	a5,8(a5)
    80000df2:	479c                	lw	a5,8(a5)
    80000df4:	fef42623          	sw	a5,-20(s0)
    80000df8:	84018793          	addi	a5,gp,-1984 # 80004ce0 <uart1_rcv_isr_count>
    80000dfc:	439c                	lw	a5,0(a5)
    80000dfe:	2781                	sext.w	a5,a5
    80000e00:	0017871b          	addiw	a4,a5,1
    80000e04:	0007069b          	sext.w	a3,a4
    80000e08:	84018713          	addi	a4,gp,-1984 # 80004ce0 <uart1_rcv_isr_count>
    80000e0c:	c314                	sw	a3,0(a4)
    80000e0e:	fec42703          	lw	a4,-20(s0)
    80000e12:	0ff77713          	zext.b	a4,a4
    80000e16:	00006697          	auipc	a3,0x6
    80000e1a:	70268693          	addi	a3,a3,1794 # 80007518 <u1_rcv_char>
    80000e1e:	1782                	slli	a5,a5,0x20
    80000e20:	9381                	srli	a5,a5,0x20
    80000e22:	97b6                	add	a5,a5,a3
    80000e24:	00e78023          	sb	a4,0(a5)
    80000e28:	95018793          	addi	a5,gp,-1712 # 80004df0 <uart_instance>
    80000e2c:	679c                	ld	a5,8(a5)
    80000e2e:	fec42703          	lw	a4,-20(s0)
    80000e32:	0ff77713          	zext.b	a4,a4
    80000e36:	85ba                	mv	a1,a4
    80000e38:	853e                	mv	a0,a5
    80000e3a:	c1bff0ef          	jal	80000a54 <write_uart_character>
    80000e3e:	95018793          	addi	a5,gp,-1712 # 80004df0 <uart_instance>
    80000e42:	679c                	ld	a5,8(a5)
    80000e44:	00c7c783          	lbu	a5,12(a5)
    80000e48:	2781                	sext.w	a5,a5
    80000e4a:	8b91                	andi	a5,a5,4
    80000e4c:	2781                	sext.w	a5,a5
    80000e4e:	ffd9                	bnez	a5,80000dec <uart1_isr+0x22>
    80000e50:	a235                	j	80000f7c <uart1_isr+0x1b2>
    80000e52:	95018793          	addi	a5,gp,-1712 # 80004df0 <uart_instance>
    80000e56:	679c                	ld	a5,8(a5)
    80000e58:	00c7c783          	lbu	a5,12(a5)
    80000e5c:	2781                	sext.w	a5,a5
    80000e5e:	8ba1                	andi	a5,a5,8
    80000e60:	2781                	sext.w	a5,a5
    80000e62:	cbdd                	beqz	a5,80000f18 <uart1_isr+0x14e>
    80000e64:	45c1                	li	a1,16
    80000e66:	000407b7          	lui	a5,0x40
    80000e6a:	10078513          	addi	a0,a5,256 # 40100 <_tbss_end+0x40100>
    80000e6e:	1bb000ef          	jal	80001828 <write_word>
    80000e72:	000407b7          	lui	a5,0x40
    80000e76:	10878513          	addi	a0,a5,264 # 40108 <_tbss_end+0x40108>
    80000e7a:	177000ef          	jal	800017f0 <read_word>
    80000e7e:	87aa                	mv	a5,a0
    80000e80:	0107e793          	ori	a5,a5,16
    80000e84:	85be                	mv	a1,a5
    80000e86:	000407b7          	lui	a5,0x40
    80000e8a:	10878513          	addi	a0,a5,264 # 40108 <_tbss_end+0x40108>
    80000e8e:	19b000ef          	jal	80001828 <write_word>
    80000e92:	a891                	j	80000ee6 <uart1_isr+0x11c>
    80000e94:	95018793          	addi	a5,gp,-1712 # 80004df0 <uart_instance>
    80000e98:	679c                	ld	a5,8(a5)
    80000e9a:	479c                	lw	a5,8(a5)
    80000e9c:	fef42623          	sw	a5,-20(s0)
    80000ea0:	84018793          	addi	a5,gp,-1984 # 80004ce0 <uart1_rcv_isr_count>
    80000ea4:	439c                	lw	a5,0(a5)
    80000ea6:	2781                	sext.w	a5,a5
    80000ea8:	0017871b          	addiw	a4,a5,1
    80000eac:	0007069b          	sext.w	a3,a4
    80000eb0:	84018713          	addi	a4,gp,-1984 # 80004ce0 <uart1_rcv_isr_count>
    80000eb4:	c314                	sw	a3,0(a4)
    80000eb6:	fec42703          	lw	a4,-20(s0)
    80000eba:	0ff77713          	zext.b	a4,a4
    80000ebe:	00006697          	auipc	a3,0x6
    80000ec2:	65a68693          	addi	a3,a3,1626 # 80007518 <u1_rcv_char>
    80000ec6:	1782                	slli	a5,a5,0x20
    80000ec8:	9381                	srli	a5,a5,0x20
    80000eca:	97b6                	add	a5,a5,a3
    80000ecc:	00e78023          	sb	a4,0(a5)
    80000ed0:	95018793          	addi	a5,gp,-1712 # 80004df0 <uart_instance>
    80000ed4:	679c                	ld	a5,8(a5)
    80000ed6:	fec42703          	lw	a4,-20(s0)
    80000eda:	0ff77713          	zext.b	a4,a4
    80000ede:	85ba                	mv	a1,a4
    80000ee0:	853e                	mv	a0,a5
    80000ee2:	b73ff0ef          	jal	80000a54 <write_uart_character>
    80000ee6:	95018793          	addi	a5,gp,-1712 # 80004df0 <uart_instance>
    80000eea:	679c                	ld	a5,8(a5)
    80000eec:	00c7c783          	lbu	a5,12(a5)
    80000ef0:	2781                	sext.w	a5,a5
    80000ef2:	8b91                	andi	a5,a5,4
    80000ef4:	2781                	sext.w	a5,a5
    80000ef6:	ffd9                	bnez	a5,80000e94 <uart1_isr+0xca>
    80000ef8:	000407b7          	lui	a5,0x40
    80000efc:	10878513          	addi	a0,a5,264 # 40108 <_tbss_end+0x40108>
    80000f00:	0f1000ef          	jal	800017f0 <read_word>
    80000f04:	87aa                	mv	a5,a0
    80000f06:	9bbd                	andi	a5,a5,-17
    80000f08:	85be                	mv	a1,a5
    80000f0a:	000407b7          	lui	a5,0x40
    80000f0e:	10878513          	addi	a0,a5,264 # 40108 <_tbss_end+0x40108>
    80000f12:	117000ef          	jal	80001828 <write_word>
    80000f16:	a09d                	j	80000f7c <uart1_isr+0x1b2>
    80000f18:	95018793          	addi	a5,gp,-1712 # 80004df0 <uart_instance>
    80000f1c:	679c                	ld	a5,8(a5)
    80000f1e:	00c7c783          	lbu	a5,12(a5)
    80000f22:	2781                	sext.w	a5,a5
    80000f24:	8b91                	andi	a5,a5,4
    80000f26:	2781                	sext.w	a5,a5
    80000f28:	cbb1                	beqz	a5,80000f7c <uart1_isr+0x1b2>
    80000f2a:	95018793          	addi	a5,gp,-1712 # 80004df0 <uart_instance>
    80000f2e:	679c                	ld	a5,8(a5)
    80000f30:	479c                	lw	a5,8(a5)
    80000f32:	fef42623          	sw	a5,-20(s0)
    80000f36:	84018793          	addi	a5,gp,-1984 # 80004ce0 <uart1_rcv_isr_count>
    80000f3a:	439c                	lw	a5,0(a5)
    80000f3c:	2781                	sext.w	a5,a5
    80000f3e:	0017871b          	addiw	a4,a5,1
    80000f42:	0007069b          	sext.w	a3,a4
    80000f46:	84018713          	addi	a4,gp,-1984 # 80004ce0 <uart1_rcv_isr_count>
    80000f4a:	c314                	sw	a3,0(a4)
    80000f4c:	fec42703          	lw	a4,-20(s0)
    80000f50:	0ff77713          	zext.b	a4,a4
    80000f54:	00006697          	auipc	a3,0x6
    80000f58:	5c468693          	addi	a3,a3,1476 # 80007518 <u1_rcv_char>
    80000f5c:	1782                	slli	a5,a5,0x20
    80000f5e:	9381                	srli	a5,a5,0x20
    80000f60:	97b6                	add	a5,a5,a3
    80000f62:	00e78023          	sb	a4,0(a5)
    80000f66:	95018793          	addi	a5,gp,-1712 # 80004df0 <uart_instance>
    80000f6a:	679c                	ld	a5,8(a5)
    80000f6c:	fec42703          	lw	a4,-20(s0)
    80000f70:	0ff77713          	zext.b	a4,a4
    80000f74:	85ba                	mv	a1,a4
    80000f76:	853e                	mv	a0,a5
    80000f78:	addff0ef          	jal	80000a54 <write_uart_character>
    80000f7c:	4781                	li	a5,0
    80000f7e:	853e                	mv	a0,a5
    80000f80:	60e2                	ld	ra,24(sp)
    80000f82:	6442                	ld	s0,16(sp)
    80000f84:	6105                	addi	sp,sp,32
    80000f86:	8082                	ret

0000000080000f88 <uart2_isr>:
    80000f88:	1101                	addi	sp,sp,-32
    80000f8a:	ec06                	sd	ra,24(sp)
    80000f8c:	e822                	sd	s0,16(sp)
    80000f8e:	1000                	addi	s0,sp,32
    80000f90:	fe042623          	sw	zero,-20(s0)
    80000f94:	95018793          	addi	a5,gp,-1712 # 80004df0 <uart_instance>
    80000f98:	6b9c                	ld	a5,16(a5)
    80000f9a:	00c7c783          	lbu	a5,12(a5)
    80000f9e:	2781                	sext.w	a5,a5
    80000fa0:	1007f793          	andi	a5,a5,256
    80000fa4:	2781                	sext.w	a5,a5
    80000fa6:	c7ad                	beqz	a5,80001010 <uart2_isr+0x88>
    80000fa8:	a891                	j	80000ffc <uart2_isr+0x74>
    80000faa:	95018793          	addi	a5,gp,-1712 # 80004df0 <uart_instance>
    80000fae:	6b9c                	ld	a5,16(a5)
    80000fb0:	479c                	lw	a5,8(a5)
    80000fb2:	fef42623          	sw	a5,-20(s0)
    80000fb6:	84818793          	addi	a5,gp,-1976 # 80004ce8 <uart2_rcv_isr_count>
    80000fba:	439c                	lw	a5,0(a5)
    80000fbc:	2781                	sext.w	a5,a5
    80000fbe:	0017871b          	addiw	a4,a5,1
    80000fc2:	0007069b          	sext.w	a3,a4
    80000fc6:	84818713          	addi	a4,gp,-1976 # 80004ce8 <uart2_rcv_isr_count>
    80000fca:	c314                	sw	a3,0(a4)
    80000fcc:	fec42703          	lw	a4,-20(s0)
    80000fd0:	0ff77713          	zext.b	a4,a4
    80000fd4:	00009697          	auipc	a3,0x9
    80000fd8:	c5468693          	addi	a3,a3,-940 # 80009c28 <u2_rcv_char>
    80000fdc:	1782                	slli	a5,a5,0x20
    80000fde:	9381                	srli	a5,a5,0x20
    80000fe0:	97b6                	add	a5,a5,a3
    80000fe2:	00e78023          	sb	a4,0(a5)
    80000fe6:	95018793          	addi	a5,gp,-1712 # 80004df0 <uart_instance>
    80000fea:	6b9c                	ld	a5,16(a5)
    80000fec:	fec42703          	lw	a4,-20(s0)
    80000ff0:	0ff77713          	zext.b	a4,a4
    80000ff4:	85ba                	mv	a1,a4
    80000ff6:	853e                	mv	a0,a5
    80000ff8:	a5dff0ef          	jal	80000a54 <write_uart_character>
    80000ffc:	95018793          	addi	a5,gp,-1712 # 80004df0 <uart_instance>
    80001000:	6b9c                	ld	a5,16(a5)
    80001002:	00c7c783          	lbu	a5,12(a5)
    80001006:	2781                	sext.w	a5,a5
    80001008:	8b91                	andi	a5,a5,4
    8000100a:	2781                	sext.w	a5,a5
    8000100c:	ffd9                	bnez	a5,80000faa <uart2_isr+0x22>
    8000100e:	a235                	j	8000113a <uart2_isr+0x1b2>
    80001010:	95018793          	addi	a5,gp,-1712 # 80004df0 <uart_instance>
    80001014:	6b9c                	ld	a5,16(a5)
    80001016:	00c7c783          	lbu	a5,12(a5)
    8000101a:	2781                	sext.w	a5,a5
    8000101c:	8ba1                	andi	a5,a5,8
    8000101e:	2781                	sext.w	a5,a5
    80001020:	cbdd                	beqz	a5,800010d6 <uart2_isr+0x14e>
    80001022:	45c1                	li	a1,16
    80001024:	000407b7          	lui	a5,0x40
    80001028:	10078513          	addi	a0,a5,256 # 40100 <_tbss_end+0x40100>
    8000102c:	7fc000ef          	jal	80001828 <write_word>
    80001030:	000407b7          	lui	a5,0x40
    80001034:	10878513          	addi	a0,a5,264 # 40108 <_tbss_end+0x40108>
    80001038:	7b8000ef          	jal	800017f0 <read_word>
    8000103c:	87aa                	mv	a5,a0
    8000103e:	0107e793          	ori	a5,a5,16
    80001042:	85be                	mv	a1,a5
    80001044:	000407b7          	lui	a5,0x40
    80001048:	10878513          	addi	a0,a5,264 # 40108 <_tbss_end+0x40108>
    8000104c:	7dc000ef          	jal	80001828 <write_word>
    80001050:	a891                	j	800010a4 <uart2_isr+0x11c>
    80001052:	95018793          	addi	a5,gp,-1712 # 80004df0 <uart_instance>
    80001056:	6b9c                	ld	a5,16(a5)
    80001058:	479c                	lw	a5,8(a5)
    8000105a:	fef42623          	sw	a5,-20(s0)
    8000105e:	84818793          	addi	a5,gp,-1976 # 80004ce8 <uart2_rcv_isr_count>
    80001062:	439c                	lw	a5,0(a5)
    80001064:	2781                	sext.w	a5,a5
    80001066:	0017871b          	addiw	a4,a5,1
    8000106a:	0007069b          	sext.w	a3,a4
    8000106e:	84818713          	addi	a4,gp,-1976 # 80004ce8 <uart2_rcv_isr_count>
    80001072:	c314                	sw	a3,0(a4)
    80001074:	fec42703          	lw	a4,-20(s0)
    80001078:	0ff77713          	zext.b	a4,a4
    8000107c:	00009697          	auipc	a3,0x9
    80001080:	bac68693          	addi	a3,a3,-1108 # 80009c28 <u2_rcv_char>
    80001084:	1782                	slli	a5,a5,0x20
    80001086:	9381                	srli	a5,a5,0x20
    80001088:	97b6                	add	a5,a5,a3
    8000108a:	00e78023          	sb	a4,0(a5)
    8000108e:	95018793          	addi	a5,gp,-1712 # 80004df0 <uart_instance>
    80001092:	6b9c                	ld	a5,16(a5)
    80001094:	fec42703          	lw	a4,-20(s0)
    80001098:	0ff77713          	zext.b	a4,a4
    8000109c:	85ba                	mv	a1,a4
    8000109e:	853e                	mv	a0,a5
    800010a0:	9b5ff0ef          	jal	80000a54 <write_uart_character>
    800010a4:	95018793          	addi	a5,gp,-1712 # 80004df0 <uart_instance>
    800010a8:	6b9c                	ld	a5,16(a5)
    800010aa:	00c7c783          	lbu	a5,12(a5)
    800010ae:	2781                	sext.w	a5,a5
    800010b0:	8b91                	andi	a5,a5,4
    800010b2:	2781                	sext.w	a5,a5
    800010b4:	ffd9                	bnez	a5,80001052 <uart2_isr+0xca>
    800010b6:	000407b7          	lui	a5,0x40
    800010ba:	10878513          	addi	a0,a5,264 # 40108 <_tbss_end+0x40108>
    800010be:	732000ef          	jal	800017f0 <read_word>
    800010c2:	87aa                	mv	a5,a0
    800010c4:	9bbd                	andi	a5,a5,-17
    800010c6:	85be                	mv	a1,a5
    800010c8:	000407b7          	lui	a5,0x40
    800010cc:	10878513          	addi	a0,a5,264 # 40108 <_tbss_end+0x40108>
    800010d0:	758000ef          	jal	80001828 <write_word>
    800010d4:	a09d                	j	8000113a <uart2_isr+0x1b2>
    800010d6:	95018793          	addi	a5,gp,-1712 # 80004df0 <uart_instance>
    800010da:	6b9c                	ld	a5,16(a5)
    800010dc:	00c7c783          	lbu	a5,12(a5)
    800010e0:	2781                	sext.w	a5,a5
    800010e2:	8b91                	andi	a5,a5,4
    800010e4:	2781                	sext.w	a5,a5
    800010e6:	cbb1                	beqz	a5,8000113a <uart2_isr+0x1b2>
    800010e8:	95018793          	addi	a5,gp,-1712 # 80004df0 <uart_instance>
    800010ec:	6b9c                	ld	a5,16(a5)
    800010ee:	479c                	lw	a5,8(a5)
    800010f0:	fef42623          	sw	a5,-20(s0)
    800010f4:	84818793          	addi	a5,gp,-1976 # 80004ce8 <uart2_rcv_isr_count>
    800010f8:	439c                	lw	a5,0(a5)
    800010fa:	2781                	sext.w	a5,a5
    800010fc:	0017871b          	addiw	a4,a5,1
    80001100:	0007069b          	sext.w	a3,a4
    80001104:	84818713          	addi	a4,gp,-1976 # 80004ce8 <uart2_rcv_isr_count>
    80001108:	c314                	sw	a3,0(a4)
    8000110a:	fec42703          	lw	a4,-20(s0)
    8000110e:	0ff77713          	zext.b	a4,a4
    80001112:	00009697          	auipc	a3,0x9
    80001116:	b1668693          	addi	a3,a3,-1258 # 80009c28 <u2_rcv_char>
    8000111a:	1782                	slli	a5,a5,0x20
    8000111c:	9381                	srli	a5,a5,0x20
    8000111e:	97b6                	add	a5,a5,a3
    80001120:	00e78023          	sb	a4,0(a5)
    80001124:	95018793          	addi	a5,gp,-1712 # 80004df0 <uart_instance>
    80001128:	6b9c                	ld	a5,16(a5)
    8000112a:	fec42703          	lw	a4,-20(s0)
    8000112e:	0ff77713          	zext.b	a4,a4
    80001132:	85ba                	mv	a1,a4
    80001134:	853e                	mv	a0,a5
    80001136:	91fff0ef          	jal	80000a54 <write_uart_character>
    8000113a:	4781                	li	a5,0
    8000113c:	853e                	mv	a0,a5
    8000113e:	60e2                	ld	ra,24(sp)
    80001140:	6442                	ld	s0,16(sp)
    80001142:	6105                	addi	sp,sp,32
    80001144:	8082                	ret

0000000080001146 <section_init>:
    80001146:	1141                	addi	sp,sp,-16
    80001148:	e422                	sd	s0,8(sp)
    8000114a:	0800                	addi	s0,sp,16
    8000114c:	0001                	nop
    8000114e:	6422                	ld	s0,8(sp)
    80001150:	0141                	addi	sp,sp,16
    80001152:	8082                	ret

0000000080001154 <trap_init>:
    80001154:	1141                	addi	sp,sp,-16
    80001156:	e406                	sd	ra,8(sp)
    80001158:	e022                	sd	s0,0(sp)
    8000115a:	0800                	addi	s0,sp,16
    8000115c:	00003517          	auipc	a0,0x3
    80001160:	cc450513          	addi	a0,a0,-828 # 80003e20 <__rodata_start+0x178>
    80001164:	96eff0ef          	jal	800002d2 <log_trace>
    80001168:	8d018793          	addi	a5,gp,-1840 # 80004d70 <mcause_interrupt_table>
    8000116c:	fffff717          	auipc	a4,0xfffff
    80001170:	06c70713          	addi	a4,a4,108 # 800001d8 <default_handler>
    80001174:	e398                	sd	a4,0(a5)
    80001176:	8d018793          	addi	a5,gp,-1840 # 80004d70 <mcause_interrupt_table>
    8000117a:	fffff717          	auipc	a4,0xfffff
    8000117e:	05e70713          	addi	a4,a4,94 # 800001d8 <default_handler>
    80001182:	e798                	sd	a4,8(a5)
    80001184:	8d018793          	addi	a5,gp,-1840 # 80004d70 <mcause_interrupt_table>
    80001188:	fffff717          	auipc	a4,0xfffff
    8000118c:	05070713          	addi	a4,a4,80 # 800001d8 <default_handler>
    80001190:	eb98                	sd	a4,16(a5)
    80001192:	8d018793          	addi	a5,gp,-1840 # 80004d70 <mcause_interrupt_table>
    80001196:	fffff717          	auipc	a4,0xfffff
    8000119a:	04270713          	addi	a4,a4,66 # 800001d8 <default_handler>
    8000119e:	ef98                	sd	a4,24(a5)
    800011a0:	8d018793          	addi	a5,gp,-1840 # 80004d70 <mcause_interrupt_table>
    800011a4:	fffff717          	auipc	a4,0xfffff
    800011a8:	03470713          	addi	a4,a4,52 # 800001d8 <default_handler>
    800011ac:	f398                	sd	a4,32(a5)
    800011ae:	8d018793          	addi	a5,gp,-1840 # 80004d70 <mcause_interrupt_table>
    800011b2:	fffff717          	auipc	a4,0xfffff
    800011b6:	02670713          	addi	a4,a4,38 # 800001d8 <default_handler>
    800011ba:	f798                	sd	a4,40(a5)
    800011bc:	8d018793          	addi	a5,gp,-1840 # 80004d70 <mcause_interrupt_table>
    800011c0:	fffff717          	auipc	a4,0xfffff
    800011c4:	01870713          	addi	a4,a4,24 # 800001d8 <default_handler>
    800011c8:	fb98                	sd	a4,48(a5)
    800011ca:	8d018793          	addi	a5,gp,-1840 # 80004d70 <mcause_interrupt_table>
    800011ce:	00000717          	auipc	a4,0x0
    800011d2:	76c70713          	addi	a4,a4,1900 # 8000193a <mach_clint_handler>
    800011d6:	ff98                	sd	a4,56(a5)
    800011d8:	8d018793          	addi	a5,gp,-1840 # 80004d70 <mcause_interrupt_table>
    800011dc:	fffff717          	auipc	a4,0xfffff
    800011e0:	ffc70713          	addi	a4,a4,-4 # 800001d8 <default_handler>
    800011e4:	e3b8                	sd	a4,64(a5)
    800011e6:	8d018793          	addi	a5,gp,-1840 # 80004d70 <mcause_interrupt_table>
    800011ea:	fffff717          	auipc	a4,0xfffff
    800011ee:	fee70713          	addi	a4,a4,-18 # 800001d8 <default_handler>
    800011f2:	e7b8                	sd	a4,72(a5)
    800011f4:	8d018793          	addi	a5,gp,-1840 # 80004d70 <mcause_interrupt_table>
    800011f8:	fffff717          	auipc	a4,0xfffff
    800011fc:	fe070713          	addi	a4,a4,-32 # 800001d8 <default_handler>
    80001200:	ebb8                	sd	a4,80(a5)
    80001202:	8d018793          	addi	a5,gp,-1840 # 80004d70 <mcause_interrupt_table>
    80001206:	00001717          	auipc	a4,0x1
    8000120a:	8e470713          	addi	a4,a4,-1820 # 80001aea <mach_plic_handler>
    8000120e:	efb8                	sd	a4,88(a5)
    80001210:	8d018793          	addi	a5,gp,-1840 # 80004d70 <mcause_interrupt_table>
    80001214:	fffff717          	auipc	a4,0xfffff
    80001218:	fc470713          	addi	a4,a4,-60 # 800001d8 <default_handler>
    8000121c:	f3b8                	sd	a4,96(a5)
    8000121e:	8d018793          	addi	a5,gp,-1840 # 80004d70 <mcause_interrupt_table>
    80001222:	fffff717          	auipc	a4,0xfffff
    80001226:	fb670713          	addi	a4,a4,-74 # 800001d8 <default_handler>
    8000122a:	f7b8                	sd	a4,104(a5)
    8000122c:	8d018793          	addi	a5,gp,-1840 # 80004d70 <mcause_interrupt_table>
    80001230:	fffff717          	auipc	a4,0xfffff
    80001234:	fa870713          	addi	a4,a4,-88 # 800001d8 <default_handler>
    80001238:	fbb8                	sd	a4,112(a5)
    8000123a:	8d018793          	addi	a5,gp,-1840 # 80004d70 <mcause_interrupt_table>
    8000123e:	fffff717          	auipc	a4,0xfffff
    80001242:	f9a70713          	addi	a4,a4,-102 # 800001d8 <default_handler>
    80001246:	ffb8                	sd	a4,120(a5)
    80001248:	00004797          	auipc	a5,0x4
    8000124c:	aa878793          	addi	a5,a5,-1368 # 80004cf0 <mcause_trap_table>
    80001250:	fffff717          	auipc	a4,0xfffff
    80001254:	f8870713          	addi	a4,a4,-120 # 800001d8 <default_handler>
    80001258:	e398                	sd	a4,0(a5)
    8000125a:	00004797          	auipc	a5,0x4
    8000125e:	a9678793          	addi	a5,a5,-1386 # 80004cf0 <mcause_trap_table>
    80001262:	fffff717          	auipc	a4,0xfffff
    80001266:	f7670713          	addi	a4,a4,-138 # 800001d8 <default_handler>
    8000126a:	e798                	sd	a4,8(a5)
    8000126c:	00004797          	auipc	a5,0x4
    80001270:	a8478793          	addi	a5,a5,-1404 # 80004cf0 <mcause_trap_table>
    80001274:	fffff717          	auipc	a4,0xfffff
    80001278:	f6470713          	addi	a4,a4,-156 # 800001d8 <default_handler>
    8000127c:	eb98                	sd	a4,16(a5)
    8000127e:	00004797          	auipc	a5,0x4
    80001282:	a7278793          	addi	a5,a5,-1422 # 80004cf0 <mcause_trap_table>
    80001286:	fffff717          	auipc	a4,0xfffff
    8000128a:	f5270713          	addi	a4,a4,-174 # 800001d8 <default_handler>
    8000128e:	ef98                	sd	a4,24(a5)
    80001290:	00004797          	auipc	a5,0x4
    80001294:	a6078793          	addi	a5,a5,-1440 # 80004cf0 <mcause_trap_table>
    80001298:	fffff717          	auipc	a4,0xfffff
    8000129c:	f4070713          	addi	a4,a4,-192 # 800001d8 <default_handler>
    800012a0:	f398                	sd	a4,32(a5)
    800012a2:	00004797          	auipc	a5,0x4
    800012a6:	a4e78793          	addi	a5,a5,-1458 # 80004cf0 <mcause_trap_table>
    800012aa:	fffff717          	auipc	a4,0xfffff
    800012ae:	f2e70713          	addi	a4,a4,-210 # 800001d8 <default_handler>
    800012b2:	f798                	sd	a4,40(a5)
    800012b4:	00004797          	auipc	a5,0x4
    800012b8:	a3c78793          	addi	a5,a5,-1476 # 80004cf0 <mcause_trap_table>
    800012bc:	fffff717          	auipc	a4,0xfffff
    800012c0:	f1c70713          	addi	a4,a4,-228 # 800001d8 <default_handler>
    800012c4:	fb98                	sd	a4,48(a5)
    800012c6:	00004797          	auipc	a5,0x4
    800012ca:	a2a78793          	addi	a5,a5,-1494 # 80004cf0 <mcause_trap_table>
    800012ce:	fffff717          	auipc	a4,0xfffff
    800012d2:	f0a70713          	addi	a4,a4,-246 # 800001d8 <default_handler>
    800012d6:	ff98                	sd	a4,56(a5)
    800012d8:	00004797          	auipc	a5,0x4
    800012dc:	a1878793          	addi	a5,a5,-1512 # 80004cf0 <mcause_trap_table>
    800012e0:	fffff717          	auipc	a4,0xfffff
    800012e4:	ef870713          	addi	a4,a4,-264 # 800001d8 <default_handler>
    800012e8:	e3b8                	sd	a4,64(a5)
    800012ea:	00004797          	auipc	a5,0x4
    800012ee:	a0678793          	addi	a5,a5,-1530 # 80004cf0 <mcause_trap_table>
    800012f2:	fffff717          	auipc	a4,0xfffff
    800012f6:	ee670713          	addi	a4,a4,-282 # 800001d8 <default_handler>
    800012fa:	e7b8                	sd	a4,72(a5)
    800012fc:	00004797          	auipc	a5,0x4
    80001300:	9f478793          	addi	a5,a5,-1548 # 80004cf0 <mcause_trap_table>
    80001304:	fffff717          	auipc	a4,0xfffff
    80001308:	ed470713          	addi	a4,a4,-300 # 800001d8 <default_handler>
    8000130c:	ebb8                	sd	a4,80(a5)
    8000130e:	00004797          	auipc	a5,0x4
    80001312:	9e278793          	addi	a5,a5,-1566 # 80004cf0 <mcause_trap_table>
    80001316:	fffff717          	auipc	a4,0xfffff
    8000131a:	ec270713          	addi	a4,a4,-318 # 800001d8 <default_handler>
    8000131e:	efb8                	sd	a4,88(a5)
    80001320:	00004797          	auipc	a5,0x4
    80001324:	9d078793          	addi	a5,a5,-1584 # 80004cf0 <mcause_trap_table>
    80001328:	fffff717          	auipc	a4,0xfffff
    8000132c:	eb070713          	addi	a4,a4,-336 # 800001d8 <default_handler>
    80001330:	f3b8                	sd	a4,96(a5)
    80001332:	00004797          	auipc	a5,0x4
    80001336:	9be78793          	addi	a5,a5,-1602 # 80004cf0 <mcause_trap_table>
    8000133a:	fffff717          	auipc	a4,0xfffff
    8000133e:	e9e70713          	addi	a4,a4,-354 # 800001d8 <default_handler>
    80001342:	f7b8                	sd	a4,104(a5)
    80001344:	00004797          	auipc	a5,0x4
    80001348:	9ac78793          	addi	a5,a5,-1620 # 80004cf0 <mcause_trap_table>
    8000134c:	fffff717          	auipc	a4,0xfffff
    80001350:	e8c70713          	addi	a4,a4,-372 # 800001d8 <default_handler>
    80001354:	fbb8                	sd	a4,112(a5)
    80001356:	00004797          	auipc	a5,0x4
    8000135a:	99a78793          	addi	a5,a5,-1638 # 80004cf0 <mcause_trap_table>
    8000135e:	fffff717          	auipc	a4,0xfffff
    80001362:	e7a70713          	addi	a4,a4,-390 # 800001d8 <default_handler>
    80001366:	ffb8                	sd	a4,120(a5)
    80001368:	00003517          	auipc	a0,0x3
    8000136c:	ad050513          	addi	a0,a0,-1328 # 80003e38 <__rodata_start+0x190>
    80001370:	f63fe0ef          	jal	800002d2 <log_trace>
    80001374:	0001                	nop
    80001376:	60a2                	ld	ra,8(sp)
    80001378:	6402                	ld	s0,0(sp)
    8000137a:	0141                	addi	sp,sp,16
    8000137c:	8082                	ret

000000008000137e <init>:
    8000137e:	1141                	addi	sp,sp,-16
    80001380:	e406                	sd	ra,8(sp)
    80001382:	e022                	sd	s0,0(sp)
    80001384:	0800                	addi	s0,sp,16
    80001386:	d8eff0ef          	jal	80000914 <uart_init>
    8000138a:	00003517          	auipc	a0,0x3
    8000138e:	ac650513          	addi	a0,a0,-1338 # 80003e50 <__rodata_start+0x1a8>
    80001392:	f41fe0ef          	jal	800002d2 <log_trace>
    80001396:	dbfff0ef          	jal	80001154 <trap_init>
    8000139a:	0f9010ef          	jal	80002c92 <main>
    8000139e:	00003517          	auipc	a0,0x3
    800013a2:	ac250513          	addi	a0,a0,-1342 # 80003e60 <__rodata_start+0x1b8>
    800013a6:	f2dfe0ef          	jal	800002d2 <log_trace>
    800013aa:	0001                	nop
    800013ac:	60a2                	ld	ra,8(sp)
    800013ae:	6402                	ld	s0,0(sp)
    800013b0:	0141                	addi	sp,sp,16
    800013b2:	8082                	ret

00000000800013b4 <waitfor>:
    800013b4:	7179                	addi	sp,sp,-48
    800013b6:	f422                	sd	s0,40(sp)
    800013b8:	1800                	addi	s0,sp,48
    800013ba:	87aa                	mv	a5,a0
    800013bc:	fcf42e23          	sw	a5,-36(s0)
    800013c0:	fe042623          	sw	zero,-20(s0)
    800013c4:	0001                	nop
    800013c6:	fec42783          	lw	a5,-20(s0)
    800013ca:	0017871b          	addiw	a4,a5,1
    800013ce:	fee42623          	sw	a4,-20(s0)
    800013d2:	fdc42703          	lw	a4,-36(s0)
    800013d6:	2701                	sext.w	a4,a4
    800013d8:	fee7e7e3          	bltu	a5,a4,800013c6 <waitfor+0x12>
    800013dc:	0001                	nop
    800013de:	0001                	nop
    800013e0:	7422                	ld	s0,40(sp)
    800013e2:	6145                	addi	sp,sp,48
    800013e4:	8082                	ret

00000000800013e6 <delay>:
    800013e6:	7179                	addi	sp,sp,-48
    800013e8:	f422                	sd	s0,40(sp)
    800013ea:	1800                	addi	s0,sp,48
    800013ec:	fca43c23          	sd	a0,-40(s0)
    800013f0:	fd843703          	ld	a4,-40(s0)
    800013f4:	3e800793          	li	a5,1000
    800013f8:	02f707b3          	mul	a5,a4,a5
    800013fc:	fef43423          	sd	a5,-24(s0)
    80001400:	a829                	j	8000141a <delay+0x34>
    80001402:	3e800793          	li	a5,1000
    80001406:	fef43023          	sd	a5,-32(s0)
    8000140a:	0001                	nop
    8000140c:	fe043783          	ld	a5,-32(s0)
    80001410:	fff78713          	addi	a4,a5,-1
    80001414:	fee43023          	sd	a4,-32(s0)
    80001418:	fbf5                	bnez	a5,8000140c <delay+0x26>
    8000141a:	fe843783          	ld	a5,-24(s0)
    8000141e:	fff78713          	addi	a4,a5,-1
    80001422:	fee43423          	sd	a4,-24(s0)
    80001426:	fff1                	bnez	a5,80001402 <delay+0x1c>
    80001428:	0001                	nop
    8000142a:	0001                	nop
    8000142c:	7422                	ld	s0,40(sp)
    8000142e:	6145                	addi	sp,sp,48
    80001430:	8082                	ret

0000000080001432 <pow_10>:
    80001432:	7179                	addi	sp,sp,-48
    80001434:	f406                	sd	ra,40(sp)
    80001436:	f022                	sd	s0,32(sp)
    80001438:	1800                	addi	s0,sp,48
    8000143a:	87aa                	mv	a5,a0
    8000143c:	fcf42e23          	sw	a5,-36(s0)
    80001440:	4785                	li	a5,1
    80001442:	fef42623          	sw	a5,-20(s0)
    80001446:	fe042423          	sw	zero,-24(s0)
    8000144a:	a00d                	j	8000146c <pow_10+0x3a>
    8000144c:	fec42783          	lw	a5,-20(s0)
    80001450:	873e                	mv	a4,a5
    80001452:	87ba                	mv	a5,a4
    80001454:	0027979b          	slliw	a5,a5,0x2
    80001458:	9fb9                	addw	a5,a5,a4
    8000145a:	0017979b          	slliw	a5,a5,0x1
    8000145e:	fef42623          	sw	a5,-20(s0)
    80001462:	fe842783          	lw	a5,-24(s0)
    80001466:	2785                	addiw	a5,a5,1
    80001468:	fef42423          	sw	a5,-24(s0)
    8000146c:	fe842783          	lw	a5,-24(s0)
    80001470:	873e                	mv	a4,a5
    80001472:	fdc42783          	lw	a5,-36(s0)
    80001476:	2701                	sext.w	a4,a4
    80001478:	2781                	sext.w	a5,a5
    8000147a:	fcf769e3          	bltu	a4,a5,8000144c <pow_10+0x1a>
    8000147e:	fec42783          	lw	a5,-20(s0)
    80001482:	853e                	mv	a0,a5
    80001484:	544020ef          	jal	800039c8 <__floatunsisf>
    80001488:	87aa                	mv	a5,a0
    8000148a:	853e                	mv	a0,a5
    8000148c:	70a2                	ld	ra,40(sp)
    8000148e:	7402                	ld	s0,32(sp)
    80001490:	6145                	addi	sp,sp,48
    80001492:	8082                	ret

0000000080001494 <reverse>:
    80001494:	7179                	addi	sp,sp,-48
    80001496:	f422                	sd	s0,40(sp)
    80001498:	1800                	addi	s0,sp,48
    8000149a:	fca43c23          	sd	a0,-40(s0)
    8000149e:	87ae                	mv	a5,a1
    800014a0:	fcf42a23          	sw	a5,-44(s0)
    800014a4:	fe042623          	sw	zero,-20(s0)
    800014a8:	fd442783          	lw	a5,-44(s0)
    800014ac:	37fd                	addiw	a5,a5,-1
    800014ae:	fef42423          	sw	a5,-24(s0)
    800014b2:	a899                	j	80001508 <reverse+0x74>
    800014b4:	fec42783          	lw	a5,-20(s0)
    800014b8:	fd843703          	ld	a4,-40(s0)
    800014bc:	97ba                	add	a5,a5,a4
    800014be:	0007c783          	lbu	a5,0(a5)
    800014c2:	fef403a3          	sb	a5,-25(s0)
    800014c6:	fe842783          	lw	a5,-24(s0)
    800014ca:	fd843703          	ld	a4,-40(s0)
    800014ce:	973e                	add	a4,a4,a5
    800014d0:	fec42783          	lw	a5,-20(s0)
    800014d4:	fd843683          	ld	a3,-40(s0)
    800014d8:	97b6                	add	a5,a5,a3
    800014da:	00074703          	lbu	a4,0(a4)
    800014de:	00e78023          	sb	a4,0(a5)
    800014e2:	fe842783          	lw	a5,-24(s0)
    800014e6:	fd843703          	ld	a4,-40(s0)
    800014ea:	97ba                	add	a5,a5,a4
    800014ec:	fe744703          	lbu	a4,-25(s0)
    800014f0:	00e78023          	sb	a4,0(a5)
    800014f4:	fec42783          	lw	a5,-20(s0)
    800014f8:	2785                	addiw	a5,a5,1
    800014fa:	fef42623          	sw	a5,-20(s0)
    800014fe:	fe842783          	lw	a5,-24(s0)
    80001502:	37fd                	addiw	a5,a5,-1
    80001504:	fef42423          	sw	a5,-24(s0)
    80001508:	fec42783          	lw	a5,-20(s0)
    8000150c:	873e                	mv	a4,a5
    8000150e:	fe842783          	lw	a5,-24(s0)
    80001512:	2701                	sext.w	a4,a4
    80001514:	2781                	sext.w	a5,a5
    80001516:	f8f74fe3          	blt	a4,a5,800014b4 <reverse+0x20>
    8000151a:	0001                	nop
    8000151c:	0001                	nop
    8000151e:	7422                	ld	s0,40(sp)
    80001520:	6145                	addi	sp,sp,48
    80001522:	8082                	ret

0000000080001524 <int_to_string>:
    80001524:	7179                	addi	sp,sp,-48
    80001526:	f406                	sd	ra,40(sp)
    80001528:	f022                	sd	s0,32(sp)
    8000152a:	1800                	addi	s0,sp,48
    8000152c:	87aa                	mv	a5,a0
    8000152e:	fcb43823          	sd	a1,-48(s0)
    80001532:	8732                	mv	a4,a2
    80001534:	fcf42e23          	sw	a5,-36(s0)
    80001538:	87ba                	mv	a5,a4
    8000153a:	fcf42c23          	sw	a5,-40(s0)
    8000153e:	fe042623          	sw	zero,-20(s0)
    80001542:	a091                	j	80001586 <int_to_string+0x62>
    80001544:	fdc42783          	lw	a5,-36(s0)
    80001548:	873e                	mv	a4,a5
    8000154a:	47a9                	li	a5,10
    8000154c:	02f767bb          	remw	a5,a4,a5
    80001550:	2781                	sext.w	a5,a5
    80001552:	0ff7f713          	zext.b	a4,a5
    80001556:	fec46783          	lwu	a5,-20(s0)
    8000155a:	fd043683          	ld	a3,-48(s0)
    8000155e:	97b6                	add	a5,a5,a3
    80001560:	0307071b          	addiw	a4,a4,48
    80001564:	0ff77713          	zext.b	a4,a4
    80001568:	00e78023          	sb	a4,0(a5)
    8000156c:	fec42783          	lw	a5,-20(s0)
    80001570:	2785                	addiw	a5,a5,1
    80001572:	fef42623          	sw	a5,-20(s0)
    80001576:	fdc42783          	lw	a5,-36(s0)
    8000157a:	873e                	mv	a4,a5
    8000157c:	47a9                	li	a5,10
    8000157e:	02f747bb          	divw	a5,a4,a5
    80001582:	fcf42e23          	sw	a5,-36(s0)
    80001586:	fdc42783          	lw	a5,-36(s0)
    8000158a:	2781                	sext.w	a5,a5
    8000158c:	ffc5                	bnez	a5,80001544 <int_to_string+0x20>
    8000158e:	a839                	j	800015ac <int_to_string+0x88>
    80001590:	fec46783          	lwu	a5,-20(s0)
    80001594:	fd043703          	ld	a4,-48(s0)
    80001598:	97ba                	add	a5,a5,a4
    8000159a:	03000713          	li	a4,48
    8000159e:	00e78023          	sb	a4,0(a5)
    800015a2:	fec42783          	lw	a5,-20(s0)
    800015a6:	2785                	addiw	a5,a5,1
    800015a8:	fef42623          	sw	a5,-20(s0)
    800015ac:	fec42783          	lw	a5,-20(s0)
    800015b0:	873e                	mv	a4,a5
    800015b2:	fd842783          	lw	a5,-40(s0)
    800015b6:	2701                	sext.w	a4,a4
    800015b8:	2781                	sext.w	a5,a5
    800015ba:	fcf76be3          	bltu	a4,a5,80001590 <int_to_string+0x6c>
    800015be:	fec42783          	lw	a5,-20(s0)
    800015c2:	85be                	mv	a1,a5
    800015c4:	fd043503          	ld	a0,-48(s0)
    800015c8:	ecdff0ef          	jal	80001494 <reverse>
    800015cc:	fec46783          	lwu	a5,-20(s0)
    800015d0:	fd043703          	ld	a4,-48(s0)
    800015d4:	97ba                	add	a5,a5,a4
    800015d6:	00078023          	sb	zero,0(a5)
    800015da:	fec42783          	lw	a5,-20(s0)
    800015de:	853e                	mv	a0,a5
    800015e0:	70a2                	ld	ra,40(sp)
    800015e2:	7402                	ld	s0,32(sp)
    800015e4:	6145                	addi	sp,sp,48
    800015e6:	8082                	ret

00000000800015e8 <ftoa>:
    800015e8:	715d                	addi	sp,sp,-80
    800015ea:	e486                	sd	ra,72(sp)
    800015ec:	e0a2                	sd	s0,64(sp)
    800015ee:	0880                	addi	s0,sp,80
    800015f0:	faa42e23          	sw	a0,-68(s0)
    800015f4:	fab43823          	sd	a1,-80(s0)
    800015f8:	87b2                	mv	a5,a2
    800015fa:	faf42c23          	sw	a5,-72(s0)
    800015fe:	fe042623          	sw	zero,-20(s0)
    80001602:	fc043023          	sd	zero,-64(s0)
    80001606:	fc043423          	sd	zero,-56(s0)
    8000160a:	fc043823          	sd	zero,-48(s0)
    8000160e:	fc042c23          	sw	zero,-40(s0)
    80001612:	fc041e23          	sh	zero,-36(s0)
    80001616:	fbc42503          	lw	a0,-68(s0)
    8000161a:	460020ef          	jal	80003a7a <__extendsfdf2>
    8000161e:	872a                	mv	a4,a0
    80001620:	00003797          	auipc	a5,0x3
    80001624:	86878793          	addi	a5,a5,-1944 # 80003e88 <__rodata_start+0x1e0>
    80001628:	638c                	ld	a1,0(a5)
    8000162a:	853a                	mv	a0,a4
    8000162c:	0ef010ef          	jal	80002f1a <__adddf3>
    80001630:	87aa                	mv	a5,a0
    80001632:	853e                	mv	a0,a5
    80001634:	4b2020ef          	jal	80003ae6 <__truncdfsf2>
    80001638:	87aa                	mv	a5,a0
    8000163a:	faf42e23          	sw	a5,-68(s0)
    8000163e:	fbc42503          	lw	a0,-68(s0)
    80001642:	250020ef          	jal	80003892 <__fixsfsi>
    80001646:	87aa                	mv	a5,a0
    80001648:	fef42423          	sw	a5,-24(s0)
    8000164c:	fe842783          	lw	a5,-24(s0)
    80001650:	853e                	mv	a0,a5
    80001652:	2aa020ef          	jal	800038fc <__floatsisf>
    80001656:	87aa                	mv	a5,a0
    80001658:	85be                	mv	a1,a5
    8000165a:	fbc42503          	lw	a0,-68(s0)
    8000165e:	6ef010ef          	jal	8000354c <__subsf3>
    80001662:	87aa                	mv	a5,a0
    80001664:	fef42223          	sw	a5,-28(s0)
    80001668:	fe042023          	sw	zero,-32(s0)
    8000166c:	00000593          	li	a1,0
    80001670:	fbc42503          	lw	a0,-68(s0)
    80001674:	44f010ef          	jal	800032c2 <__lesf2>
    80001678:	87aa                	mv	a5,a0
    8000167a:	0007de63          	bgez	a5,80001696 <ftoa+0xae>
    8000167e:	fe042783          	lw	a5,-32(s0)
    80001682:	fb043703          	ld	a4,-80(s0)
    80001686:	97ba                	add	a5,a5,a4
    80001688:	02d00713          	li	a4,45
    8000168c:	00e78023          	sb	a4,0(a5)
    80001690:	4785                	li	a5,1
    80001692:	fef42023          	sw	a5,-32(s0)
    80001696:	fe842783          	lw	a5,-24(s0)
    8000169a:	2781                	sext.w	a5,a5
    8000169c:	e385                	bnez	a5,800016bc <ftoa+0xd4>
    8000169e:	fe042783          	lw	a5,-32(s0)
    800016a2:	fb043703          	ld	a4,-80(s0)
    800016a6:	97ba                	add	a5,a5,a4
    800016a8:	03000713          	li	a4,48
    800016ac:	00e78023          	sb	a4,0(a5)
    800016b0:	fe042783          	lw	a5,-32(s0)
    800016b4:	2785                	addiw	a5,a5,1
    800016b6:	fef42023          	sw	a5,-32(s0)
    800016ba:	a099                	j	80001700 <ftoa+0x118>
    800016bc:	fe842783          	lw	a5,-24(s0)
    800016c0:	2781                	sext.w	a5,a5
    800016c2:	0007d863          	bgez	a5,800016d2 <ftoa+0xea>
    800016c6:	fe842783          	lw	a5,-24(s0)
    800016ca:	40f007bb          	negw	a5,a5
    800016ce:	fef42423          	sw	a5,-24(s0)
    800016d2:	fc040713          	addi	a4,s0,-64
    800016d6:	fe842783          	lw	a5,-24(s0)
    800016da:	4601                	li	a2,0
    800016dc:	85ba                	mv	a1,a4
    800016de:	853e                	mv	a0,a5
    800016e0:	e45ff0ef          	jal	80001524 <int_to_string>
    800016e4:	87aa                	mv	a5,a0
    800016e6:	fef42623          	sw	a5,-20(s0)
    800016ea:	fe042783          	lw	a5,-32(s0)
    800016ee:	fb043703          	ld	a4,-80(s0)
    800016f2:	97ba                	add	a5,a5,a4
    800016f4:	fc040713          	addi	a4,s0,-64
    800016f8:	85ba                	mv	a1,a4
    800016fa:	853e                	mv	a0,a5
    800016fc:	4fe020ef          	jal	80003bfa <strcpy>
    80001700:	fec42783          	lw	a5,-20(s0)
    80001704:	873e                	mv	a4,a5
    80001706:	fe042783          	lw	a5,-32(s0)
    8000170a:	9fb9                	addw	a5,a5,a4
    8000170c:	fef42623          	sw	a5,-20(s0)
    80001710:	fb842783          	lw	a5,-72(s0)
    80001714:	2781                	sext.w	a5,a5
    80001716:	c7c1                	beqz	a5,8000179e <ftoa+0x1b6>
    80001718:	fec42783          	lw	a5,-20(s0)
    8000171c:	fb043703          	ld	a4,-80(s0)
    80001720:	97ba                	add	a5,a5,a4
    80001722:	02e00713          	li	a4,46
    80001726:	00e78023          	sb	a4,0(a5)
    8000172a:	00000593          	li	a1,0
    8000172e:	fe442503          	lw	a0,-28(s0)
    80001732:	391010ef          	jal	800032c2 <__lesf2>
    80001736:	87aa                	mv	a5,a0
    80001738:	0007db63          	bgez	a5,8000174e <ftoa+0x166>
    8000173c:	fe442783          	lw	a5,-28(s0)
    80001740:	873e                	mv	a4,a5
    80001742:	800007b7          	lui	a5,0x80000
    80001746:	8fb9                	xor	a5,a5,a4
    80001748:	fef42223          	sw	a5,-28(s0)
    8000174c:	a039                	j	8000175a <ftoa+0x172>
    8000174e:	00000593          	li	a1,0
    80001752:	fe442503          	lw	a0,-28(s0)
    80001756:	2ff010ef          	jal	80003254 <__eqsf2>
    8000175a:	fb842783          	lw	a5,-72(s0)
    8000175e:	853e                	mv	a0,a5
    80001760:	cd3ff0ef          	jal	80001432 <pow_10>
    80001764:	87aa                	mv	a5,a0
    80001766:	85be                	mv	a1,a5
    80001768:	fe442503          	lw	a0,-28(s0)
    8000176c:	3d7010ef          	jal	80003342 <__mulsf3>
    80001770:	87aa                	mv	a5,a0
    80001772:	fef42223          	sw	a5,-28(s0)
    80001776:	fe442503          	lw	a0,-28(s0)
    8000177a:	118020ef          	jal	80003892 <__fixsfsi>
    8000177e:	87aa                	mv	a5,a0
    80001780:	0007869b          	sext.w	a3,a5
    80001784:	fec42783          	lw	a5,-20(s0)
    80001788:	0785                	addi	a5,a5,1 # ffffffff80000001 <__stack_pointer$+0xfffffffef8000401>
    8000178a:	fb043703          	ld	a4,-80(s0)
    8000178e:	97ba                	add	a5,a5,a4
    80001790:	fb842703          	lw	a4,-72(s0)
    80001794:	863a                	mv	a2,a4
    80001796:	85be                	mv	a1,a5
    80001798:	8536                	mv	a0,a3
    8000179a:	d8bff0ef          	jal	80001524 <int_to_string>
    8000179e:	0001                	nop
    800017a0:	60a6                	ld	ra,72(sp)
    800017a2:	6406                	ld	s0,64(sp)
    800017a4:	6161                	addi	sp,sp,80
    800017a6:	8082                	ret

00000000800017a8 <delay_loop>:
    800017a8:	7179                	addi	sp,sp,-48
    800017aa:	f422                	sd	s0,40(sp)
    800017ac:	1800                	addi	s0,sp,48
    800017ae:	fca43c23          	sd	a0,-40(s0)
    800017b2:	fcb43823          	sd	a1,-48(s0)
    800017b6:	fd043783          	ld	a5,-48(s0)
    800017ba:	fef43423          	sd	a5,-24(s0)
    800017be:	a829                	j	800017d8 <delay_loop+0x30>
    800017c0:	fd043783          	ld	a5,-48(s0)
    800017c4:	fef43423          	sd	a5,-24(s0)
    800017c8:	0001                	nop
    800017ca:	fe843783          	ld	a5,-24(s0)
    800017ce:	fff78713          	addi	a4,a5,-1
    800017d2:	fee43423          	sd	a4,-24(s0)
    800017d6:	fbf5                	bnez	a5,800017ca <delay_loop+0x22>
    800017d8:	fd843783          	ld	a5,-40(s0)
    800017dc:	fff78713          	addi	a4,a5,-1
    800017e0:	fce43c23          	sd	a4,-40(s0)
    800017e4:	fff1                	bnez	a5,800017c0 <delay_loop+0x18>
    800017e6:	0001                	nop
    800017e8:	0001                	nop
    800017ea:	7422                	ld	s0,40(sp)
    800017ec:	6145                	addi	sp,sp,48
    800017ee:	8082                	ret

00000000800017f0 <read_word>:
    800017f0:	1101                	addi	sp,sp,-32
    800017f2:	ec06                	sd	ra,24(sp)
    800017f4:	e822                	sd	s0,16(sp)
    800017f6:	1000                	addi	s0,sp,32
    800017f8:	fea43423          	sd	a0,-24(s0)
    800017fc:	fe843783          	ld	a5,-24(s0)
    80001800:	439c                	lw	a5,0(a5)
    80001802:	863e                	mv	a2,a5
    80001804:	fe843583          	ld	a1,-24(s0)
    80001808:	00002517          	auipc	a0,0x2
    8000180c:	66850513          	addi	a0,a0,1640 # 80003e70 <__rodata_start+0x1c8>
    80001810:	b31fe0ef          	jal	80000340 <log_debug>
    80001814:	fe843783          	ld	a5,-24(s0)
    80001818:	439c                	lw	a5,0(a5)
    8000181a:	1782                	slli	a5,a5,0x20
    8000181c:	9381                	srli	a5,a5,0x20
    8000181e:	853e                	mv	a0,a5
    80001820:	60e2                	ld	ra,24(sp)
    80001822:	6442                	ld	s0,16(sp)
    80001824:	6105                	addi	sp,sp,32
    80001826:	8082                	ret

0000000080001828 <write_word>:
    80001828:	1101                	addi	sp,sp,-32
    8000182a:	ec06                	sd	ra,24(sp)
    8000182c:	e822                	sd	s0,16(sp)
    8000182e:	1000                	addi	s0,sp,32
    80001830:	fea43423          	sd	a0,-24(s0)
    80001834:	feb43023          	sd	a1,-32(s0)
    80001838:	fe043783          	ld	a5,-32(s0)
    8000183c:	0007871b          	sext.w	a4,a5
    80001840:	fe843783          	ld	a5,-24(s0)
    80001844:	c398                	sw	a4,0(a5)
    80001846:	fe843783          	ld	a5,-24(s0)
    8000184a:	439c                	lw	a5,0(a5)
    8000184c:	863e                	mv	a2,a5
    8000184e:	fe843583          	ld	a1,-24(s0)
    80001852:	00002517          	auipc	a0,0x2
    80001856:	61e50513          	addi	a0,a0,1566 # 80003e70 <__rodata_start+0x1c8>
    8000185a:	ae7fe0ef          	jal	80000340 <log_debug>
    8000185e:	0001                	nop
    80001860:	60e2                	ld	ra,24(sp)
    80001862:	6442                	ld	s0,16(sp)
    80001864:	6105                	addi	sp,sp,32
    80001866:	8082                	ret

0000000080001868 <mtime_low>:
    80001868:	1141                	addi	sp,sp,-16
    8000186a:	e422                	sd	s0,8(sp)
    8000186c:	0800                	addi	s0,sp,16
    8000186e:	0200c7b7          	lui	a5,0x200c
    80001872:	17e1                	addi	a5,a5,-8 # 200bff8 <_tbss_end+0x200bff8>
    80001874:	439c                	lw	a5,0(a5)
    80001876:	853e                	mv	a0,a5
    80001878:	6422                	ld	s0,8(sp)
    8000187a:	0141                	addi	sp,sp,16
    8000187c:	8082                	ret

000000008000187e <mtime_high>:
    8000187e:	1141                	addi	sp,sp,-16
    80001880:	e422                	sd	s0,8(sp)
    80001882:	0800                	addi	s0,sp,16
    80001884:	0200c7b7          	lui	a5,0x200c
    80001888:	17f1                	addi	a5,a5,-4 # 200bffc <_tbss_end+0x200bffc>
    8000188a:	439c                	lw	a5,0(a5)
    8000188c:	2781                	sext.w	a5,a5
    8000188e:	853e                	mv	a0,a5
    80001890:	6422                	ld	s0,8(sp)
    80001892:	0141                	addi	sp,sp,16
    80001894:	8082                	ret

0000000080001896 <get_timer_value>:
    80001896:	1101                	addi	sp,sp,-32
    80001898:	ec06                	sd	ra,24(sp)
    8000189a:	e822                	sd	s0,16(sp)
    8000189c:	e426                	sd	s1,8(sp)
    8000189e:	1000                	addi	s0,sp,32
    800018a0:	fdfff0ef          	jal	8000187e <mtime_high>
    800018a4:	87aa                	mv	a5,a0
    800018a6:	2781                	sext.w	a5,a5
    800018a8:	1782                	slli	a5,a5,0x20
    800018aa:	9381                	srli	a5,a5,0x20
    800018ac:	02079493          	slli	s1,a5,0x20
    800018b0:	fb9ff0ef          	jal	80001868 <mtime_low>
    800018b4:	87aa                	mv	a5,a0
    800018b6:	2781                	sext.w	a5,a5
    800018b8:	1782                	slli	a5,a5,0x20
    800018ba:	9381                	srli	a5,a5,0x20
    800018bc:	8fc5                	or	a5,a5,s1
    800018be:	853e                	mv	a0,a5
    800018c0:	60e2                	ld	ra,24(sp)
    800018c2:	6442                	ld	s0,16(sp)
    800018c4:	64a2                	ld	s1,8(sp)
    800018c6:	6105                	addi	sp,sp,32
    800018c8:	8082                	ret

00000000800018ca <configure_counter>:
    800018ca:	1101                	addi	sp,sp,-32
    800018cc:	ec06                	sd	ra,24(sp)
    800018ce:	e822                	sd	s0,16(sp)
    800018d0:	1000                	addi	s0,sp,32
    800018d2:	fea43423          	sd	a0,-24(s0)
    800018d6:	00002517          	auipc	a0,0x2
    800018da:	5ba50513          	addi	a0,a0,1466 # 80003e90 <__rodata_start+0x1e8>
    800018de:	9f5fe0ef          	jal	800002d2 <log_trace>
    800018e2:	82018793          	addi	a5,gp,-2016 # 80004cc0 <mtime>
    800018e6:	639c                	ld	a5,0(a5)
    800018e8:	6394                	ld	a3,0(a5)
    800018ea:	82818793          	addi	a5,gp,-2008 # 80004cc8 <mtimecmp>
    800018ee:	639c                	ld	a5,0(a5)
    800018f0:	fe843703          	ld	a4,-24(s0)
    800018f4:	9736                	add	a4,a4,a3
    800018f6:	e398                	sd	a4,0(a5)
    800018f8:	82818793          	addi	a5,gp,-2008 # 80004cc8 <mtimecmp>
    800018fc:	639c                	ld	a5,0(a5)
    800018fe:	639c                	ld	a5,0(a5)
    80001900:	85be                	mv	a1,a5
    80001902:	00002517          	auipc	a0,0x2
    80001906:	5ae50513          	addi	a0,a0,1454 # 80003eb0 <__rodata_start+0x208>
    8000190a:	a37fe0ef          	jal	80000340 <log_debug>
    8000190e:	82018793          	addi	a5,gp,-2016 # 80004cc0 <mtime>
    80001912:	639c                	ld	a5,0(a5)
    80001914:	639c                	ld	a5,0(a5)
    80001916:	85be                	mv	a1,a5
    80001918:	00002517          	auipc	a0,0x2
    8000191c:	5b050513          	addi	a0,a0,1456 # 80003ec8 <__rodata_start+0x220>
    80001920:	a21fe0ef          	jal	80000340 <log_debug>
    80001924:	00002517          	auipc	a0,0x2
    80001928:	5bc50513          	addi	a0,a0,1468 # 80003ee0 <__rodata_start+0x238>
    8000192c:	9a7fe0ef          	jal	800002d2 <log_trace>
    80001930:	0001                	nop
    80001932:	60e2                	ld	ra,24(sp)
    80001934:	6442                	ld	s0,16(sp)
    80001936:	6105                	addi	sp,sp,32
    80001938:	8082                	ret

000000008000193a <mach_clint_handler>:
    8000193a:	1101                	addi	sp,sp,-32
    8000193c:	ec06                	sd	ra,24(sp)
    8000193e:	e822                	sd	s0,16(sp)
    80001940:	1000                	addi	s0,sp,32
    80001942:	fea43423          	sd	a0,-24(s0)
    80001946:	feb43023          	sd	a1,-32(s0)
    8000194a:	00002517          	auipc	a0,0x2
    8000194e:	5b650513          	addi	a0,a0,1462 # 80003f00 <__rodata_start+0x258>
    80001952:	981fe0ef          	jal	800002d2 <log_trace>
    80001956:	00002517          	auipc	a0,0x2
    8000195a:	5ca50513          	addi	a0,a0,1482 # 80003f20 <__rodata_start+0x278>
    8000195e:	f6bfe0ef          	jal	800008c8 <printf>
    80001962:	000307b7          	lui	a5,0x30
    80001966:	af078513          	addi	a0,a5,-1296 # 2faf0 <_tbss_end+0x2faf0>
    8000196a:	f61ff0ef          	jal	800018ca <configure_counter>
    8000196e:	00002517          	auipc	a0,0x2
    80001972:	5ca50513          	addi	a0,a0,1482 # 80003f38 <__rodata_start+0x290>
    80001976:	981fe0ef          	jal	800002f6 <log_info>
    8000197a:	00002517          	auipc	a0,0x2
    8000197e:	5de50513          	addi	a0,a0,1502 # 80003f58 <__rodata_start+0x2b0>
    80001982:	951fe0ef          	jal	800002d2 <log_trace>
    80001986:	0001                	nop
    80001988:	60e2                	ld	ra,24(sp)
    8000198a:	6442                	ld	s0,16(sp)
    8000198c:	6105                	addi	sp,sp,32
    8000198e:	8082                	ret

0000000080001990 <interrupt_complete>:
    80001990:	7179                	addi	sp,sp,-48
    80001992:	f406                	sd	ra,40(sp)
    80001994:	f022                	sd	s0,32(sp)
    80001996:	1800                	addi	s0,sp,48
    80001998:	87aa                	mv	a5,a0
    8000199a:	fcf42e23          	sw	a5,-36(s0)
    8000199e:	00002517          	auipc	a0,0x2
    800019a2:	5da50513          	addi	a0,a0,1498 # 80003f78 <__rodata_start+0x2d0>
    800019a6:	92dfe0ef          	jal	800002d2 <log_trace>
    800019aa:	0c0107b7          	lui	a5,0xc010
    800019ae:	07c1                	addi	a5,a5,16 # c010010 <_free_space+0x401c9e8>
    800019b0:	fef43423          	sd	a5,-24(s0)
    800019b4:	fe843783          	ld	a5,-24(s0)
    800019b8:	fdc42703          	lw	a4,-36(s0)
    800019bc:	c398                	sw	a4,0(a5)
    800019be:	0000b717          	auipc	a4,0xb
    800019c2:	a5a70713          	addi	a4,a4,-1446 # 8000c418 <hart0_interrupt_matrix>
    800019c6:	fdc46783          	lwu	a5,-36(s0)
    800019ca:	0792                	slli	a5,a5,0x4
    800019cc:	97ba                	add	a5,a5,a4
    800019ce:	4709                	li	a4,2
    800019d0:	c798                	sw	a4,8(a5)
    800019d2:	0000b717          	auipc	a4,0xb
    800019d6:	a4670713          	addi	a4,a4,-1466 # 8000c418 <hart0_interrupt_matrix>
    800019da:	fdc46783          	lwu	a5,-36(s0)
    800019de:	0792                	slli	a5,a5,0x4
    800019e0:	97ba                	add	a5,a5,a4
    800019e2:	47dc                	lw	a5,12(a5)
    800019e4:	2785                	addiw	a5,a5,1
    800019e6:	0007871b          	sext.w	a4,a5
    800019ea:	0000b697          	auipc	a3,0xb
    800019ee:	a2e68693          	addi	a3,a3,-1490 # 8000c418 <hart0_interrupt_matrix>
    800019f2:	fdc46783          	lwu	a5,-36(s0)
    800019f6:	0792                	slli	a5,a5,0x4
    800019f8:	97b6                	add	a5,a5,a3
    800019fa:	c7d8                	sw	a4,12(a5)
    800019fc:	0000b717          	auipc	a4,0xb
    80001a00:	a1c70713          	addi	a4,a4,-1508 # 8000c418 <hart0_interrupt_matrix>
    80001a04:	fdc46783          	lwu	a5,-36(s0)
    80001a08:	0792                	slli	a5,a5,0x4
    80001a0a:	97ba                	add	a5,a5,a4
    80001a0c:	4798                	lw	a4,8(a5)
    80001a0e:	fdc42783          	lw	a5,-36(s0)
    80001a12:	863a                	mv	a2,a4
    80001a14:	85be                	mv	a1,a5
    80001a16:	00002517          	auipc	a0,0x2
    80001a1a:	58250513          	addi	a0,a0,1410 # 80003f98 <__rodata_start+0x2f0>
    80001a1e:	923fe0ef          	jal	80000340 <log_debug>
    80001a22:	0000b717          	auipc	a4,0xb
    80001a26:	9f670713          	addi	a4,a4,-1546 # 8000c418 <hart0_interrupt_matrix>
    80001a2a:	fdc46783          	lwu	a5,-36(s0)
    80001a2e:	0792                	slli	a5,a5,0x4
    80001a30:	97ba                	add	a5,a5,a4
    80001a32:	438c                	lw	a1,0(a5)
    80001a34:	0000b717          	auipc	a4,0xb
    80001a38:	9e470713          	addi	a4,a4,-1564 # 8000c418 <hart0_interrupt_matrix>
    80001a3c:	fdc46783          	lwu	a5,-36(s0)
    80001a40:	0792                	slli	a5,a5,0x4
    80001a42:	97ba                	add	a5,a5,a4
    80001a44:	4790                	lw	a2,8(a5)
    80001a46:	0000b717          	auipc	a4,0xb
    80001a4a:	9d270713          	addi	a4,a4,-1582 # 8000c418 <hart0_interrupt_matrix>
    80001a4e:	fdc46783          	lwu	a5,-36(s0)
    80001a52:	0792                	slli	a5,a5,0x4
    80001a54:	97ba                	add	a5,a5,a4
    80001a56:	43d4                	lw	a3,4(a5)
    80001a58:	0000b717          	auipc	a4,0xb
    80001a5c:	9c070713          	addi	a4,a4,-1600 # 8000c418 <hart0_interrupt_matrix>
    80001a60:	fdc46783          	lwu	a5,-36(s0)
    80001a64:	0792                	slli	a5,a5,0x4
    80001a66:	97ba                	add	a5,a5,a4
    80001a68:	47dc                	lw	a5,12(a5)
    80001a6a:	873e                	mv	a4,a5
    80001a6c:	00002517          	auipc	a0,0x2
    80001a70:	55450513          	addi	a0,a0,1364 # 80003fc0 <__rodata_start+0x318>
    80001a74:	8cdfe0ef          	jal	80000340 <log_debug>
    80001a78:	00002517          	auipc	a0,0x2
    80001a7c:	5a050513          	addi	a0,a0,1440 # 80004018 <__rodata_start+0x370>
    80001a80:	853fe0ef          	jal	800002d2 <log_trace>
    80001a84:	0001                	nop
    80001a86:	70a2                	ld	ra,40(sp)
    80001a88:	7402                	ld	s0,32(sp)
    80001a8a:	6145                	addi	sp,sp,48
    80001a8c:	8082                	ret

0000000080001a8e <interrupt_claim_request>:
    80001a8e:	1101                	addi	sp,sp,-32
    80001a90:	ec06                	sd	ra,24(sp)
    80001a92:	e822                	sd	s0,16(sp)
    80001a94:	1000                	addi	s0,sp,32
    80001a96:	fe043423          	sd	zero,-24(s0)
    80001a9a:	00002517          	auipc	a0,0x2
    80001a9e:	59e50513          	addi	a0,a0,1438 # 80004038 <__rodata_start+0x390>
    80001aa2:	831fe0ef          	jal	800002d2 <log_trace>
    80001aa6:	0c0107b7          	lui	a5,0xc010
    80001aaa:	07c1                	addi	a5,a5,16 # c010010 <_free_space+0x401c9e8>
    80001aac:	fef43423          	sd	a5,-24(s0)
    80001ab0:	fe843783          	ld	a5,-24(s0)
    80001ab4:	439c                	lw	a5,0(a5)
    80001ab6:	fef42223          	sw	a5,-28(s0)
    80001aba:	fe442783          	lw	a5,-28(s0)
    80001abe:	fe843603          	ld	a2,-24(s0)
    80001ac2:	85be                	mv	a1,a5
    80001ac4:	00002517          	auipc	a0,0x2
    80001ac8:	59c50513          	addi	a0,a0,1436 # 80004060 <__rodata_start+0x3b8>
    80001acc:	875fe0ef          	jal	80000340 <log_debug>
    80001ad0:	00002517          	auipc	a0,0x2
    80001ad4:	5c050513          	addi	a0,a0,1472 # 80004090 <__rodata_start+0x3e8>
    80001ad8:	ffafe0ef          	jal	800002d2 <log_trace>
    80001adc:	fe442783          	lw	a5,-28(s0)
    80001ae0:	853e                	mv	a0,a5
    80001ae2:	60e2                	ld	ra,24(sp)
    80001ae4:	6442                	ld	s0,16(sp)
    80001ae6:	6105                	addi	sp,sp,32
    80001ae8:	8082                	ret

0000000080001aea <mach_plic_handler>:
    80001aea:	7179                	addi	sp,sp,-48
    80001aec:	f406                	sd	ra,40(sp)
    80001aee:	f022                	sd	s0,32(sp)
    80001af0:	1800                	addi	s0,sp,48
    80001af2:	fca43c23          	sd	a0,-40(s0)
    80001af6:	fcb43823          	sd	a1,-48(s0)
    80001afa:	00002517          	auipc	a0,0x2
    80001afe:	5b650513          	addi	a0,a0,1462 # 800040b0 <__rodata_start+0x408>
    80001b02:	fd0fe0ef          	jal	800002d2 <log_trace>
    80001b06:	f89ff0ef          	jal	80001a8e <interrupt_claim_request>
    80001b0a:	87aa                	mv	a5,a0
    80001b0c:	fef42623          	sw	a5,-20(s0)
    80001b10:	fec42783          	lw	a5,-20(s0)
    80001b14:	85be                	mv	a1,a5
    80001b16:	00002517          	auipc	a0,0x2
    80001b1a:	5ba50513          	addi	a0,a0,1466 # 800040d0 <__rodata_start+0x428>
    80001b1e:	823fe0ef          	jal	80000340 <log_debug>
    80001b22:	fec42783          	lw	a5,-20(s0)
    80001b26:	2781                	sext.w	a5,a5
    80001b28:	cb81                	beqz	a5,80001b38 <mach_plic_handler+0x4e>
    80001b2a:	fec42783          	lw	a5,-20(s0)
    80001b2e:	0007871b          	sext.w	a4,a5
    80001b32:	47f1                	li	a5,28
    80001b34:	00e7fb63          	bgeu	a5,a4,80001b4a <mach_plic_handler+0x60>
    80001b38:	fec42783          	lw	a5,-20(s0)
    80001b3c:	85be                	mv	a1,a5
    80001b3e:	00002517          	auipc	a0,0x2
    80001b42:	5b250513          	addi	a0,a0,1458 # 800040f0 <__rodata_start+0x448>
    80001b46:	8b3fe0ef          	jal	800003f8 <log_fatal>
    80001b4a:	0000b717          	auipc	a4,0xb
    80001b4e:	8ce70713          	addi	a4,a4,-1842 # 8000c418 <hart0_interrupt_matrix>
    80001b52:	fec46783          	lwu	a5,-20(s0)
    80001b56:	0792                	slli	a5,a5,0x4
    80001b58:	97ba                	add	a5,a5,a4
    80001b5a:	4705                	li	a4,1
    80001b5c:	c798                	sw	a4,8(a5)
    80001b5e:	0000b717          	auipc	a4,0xb
    80001b62:	8ba70713          	addi	a4,a4,-1862 # 8000c418 <hart0_interrupt_matrix>
    80001b66:	fec46783          	lwu	a5,-20(s0)
    80001b6a:	0792                	slli	a5,a5,0x4
    80001b6c:	97ba                	add	a5,a5,a4
    80001b6e:	4798                	lw	a4,8(a5)
    80001b70:	fec42783          	lw	a5,-20(s0)
    80001b74:	863a                	mv	a2,a4
    80001b76:	85be                	mv	a1,a5
    80001b78:	00002517          	auipc	a0,0x2
    80001b7c:	42050513          	addi	a0,a0,1056 # 80003f98 <__rodata_start+0x2f0>
    80001b80:	fc0fe0ef          	jal	80000340 <log_debug>
    80001b84:	0000a717          	auipc	a4,0xa
    80001b88:	7b470713          	addi	a4,a4,1972 # 8000c338 <isr_table>
    80001b8c:	fec46783          	lwu	a5,-20(s0)
    80001b90:	078e                	slli	a5,a5,0x3
    80001b92:	97ba                	add	a5,a5,a4
    80001b94:	639c                	ld	a5,0(a5)
    80001b96:	fec42703          	lw	a4,-20(s0)
    80001b9a:	853a                	mv	a0,a4
    80001b9c:	9782                	jalr	a5
    80001b9e:	fec42783          	lw	a5,-20(s0)
    80001ba2:	853e                	mv	a0,a5
    80001ba4:	dedff0ef          	jal	80001990 <interrupt_complete>
    80001ba8:	fec42783          	lw	a5,-20(s0)
    80001bac:	85be                	mv	a1,a5
    80001bae:	00002517          	auipc	a0,0x2
    80001bb2:	57a50513          	addi	a0,a0,1402 # 80004128 <__rodata_start+0x480>
    80001bb6:	f8afe0ef          	jal	80000340 <log_debug>
    80001bba:	00002517          	auipc	a0,0x2
    80001bbe:	58e50513          	addi	a0,a0,1422 # 80004148 <__rodata_start+0x4a0>
    80001bc2:	f10fe0ef          	jal	800002d2 <log_trace>
    80001bc6:	0001                	nop
    80001bc8:	70a2                	ld	ra,40(sp)
    80001bca:	7402                	ld	s0,32(sp)
    80001bcc:	6145                	addi	sp,sp,48
    80001bce:	8082                	ret

0000000080001bd0 <isr_default>:
    80001bd0:	1101                	addi	sp,sp,-32
    80001bd2:	ec06                	sd	ra,24(sp)
    80001bd4:	e822                	sd	s0,16(sp)
    80001bd6:	1000                	addi	s0,sp,32
    80001bd8:	87aa                	mv	a5,a0
    80001bda:	fef42623          	sw	a5,-20(s0)
    80001bde:	00002517          	auipc	a0,0x2
    80001be2:	58a50513          	addi	a0,a0,1418 # 80004168 <__rodata_start+0x4c0>
    80001be6:	eecfe0ef          	jal	800002d2 <log_trace>
    80001bea:	fec42783          	lw	a5,-20(s0)
    80001bee:	2781                	sext.w	a5,a5
    80001bf0:	cf95                	beqz	a5,80001c2c <isr_default+0x5c>
    80001bf2:	fec42783          	lw	a5,-20(s0)
    80001bf6:	0007871b          	sext.w	a4,a5
    80001bfa:	4799                	li	a5,6
    80001bfc:	02e7e863          	bltu	a5,a4,80001c2c <isr_default+0x5c>
    80001c00:	4799                	li	a5,6
    80001c02:	fec42703          	lw	a4,-20(s0)
    80001c06:	9f99                	subw	a5,a5,a4
    80001c08:	2781                	sext.w	a5,a5
    80001c0a:	2781                	sext.w	a5,a5
    80001c0c:	853e                	mv	a0,a5
    80001c0e:	752000ef          	jal	80002360 <pwm_check_continuous_mode>
    80001c12:	87aa                	mv	a5,a0
    80001c14:	ef81                	bnez	a5,80001c2c <isr_default+0x5c>
    80001c16:	4799                	li	a5,6
    80001c18:	fec42703          	lw	a4,-20(s0)
    80001c1c:	9f99                	subw	a5,a5,a4
    80001c1e:	2781                	sext.w	a5,a5
    80001c20:	2781                	sext.w	a5,a5
    80001c22:	08000593          	li	a1,128
    80001c26:	853e                	mv	a0,a5
    80001c28:	6b2000ef          	jal	800022da <set_pwm_control_register>
    80001c2c:	fec42783          	lw	a5,-20(s0)
    80001c30:	85be                	mv	a1,a5
    80001c32:	00002517          	auipc	a0,0x2
    80001c36:	54e50513          	addi	a0,a0,1358 # 80004180 <__rodata_start+0x4d8>
    80001c3a:	ebcfe0ef          	jal	800002f6 <log_info>
    80001c3e:	00002517          	auipc	a0,0x2
    80001c42:	56250513          	addi	a0,a0,1378 # 800041a0 <__rodata_start+0x4f8>
    80001c46:	e8cfe0ef          	jal	800002d2 <log_trace>
    80001c4a:	0001                	nop
    80001c4c:	60e2                	ld	ra,24(sp)
    80001c4e:	6442                	ld	s0,16(sp)
    80001c50:	6105                	addi	sp,sp,32
    80001c52:	8082                	ret

0000000080001c54 <interrupt_enable>:
    80001c54:	7139                	addi	sp,sp,-64
    80001c56:	fc06                	sd	ra,56(sp)
    80001c58:	f822                	sd	s0,48(sp)
    80001c5a:	0080                	addi	s0,sp,64
    80001c5c:	87aa                	mv	a5,a0
    80001c5e:	fcf42623          	sw	a5,-52(s0)
    80001c62:	fe0407a3          	sb	zero,-17(s0)
    80001c66:	00002517          	auipc	a0,0x2
    80001c6a:	55250513          	addi	a0,a0,1362 # 800041b8 <__rodata_start+0x510>
    80001c6e:	e64fe0ef          	jal	800002d2 <log_trace>
    80001c72:	fcc42783          	lw	a5,-52(s0)
    80001c76:	85be                	mv	a1,a5
    80001c78:	00002517          	auipc	a0,0x2
    80001c7c:	56050513          	addi	a0,a0,1376 # 800041d8 <__rodata_start+0x530>
    80001c80:	ec0fe0ef          	jal	80000340 <log_debug>
    80001c84:	6609                	lui	a2,0x2
    80001c86:	0c0005b7          	lui	a1,0xc000
    80001c8a:	00002517          	auipc	a0,0x2
    80001c8e:	56650513          	addi	a0,a0,1382 # 800041f0 <__rodata_start+0x548>
    80001c92:	eaefe0ef          	jal	80000340 <log_debug>
    80001c96:	fcc42783          	lw	a5,-52(s0)
    80001c9a:	0037d79b          	srliw	a5,a5,0x3
    80001c9e:	2781                	sext.w	a5,a5
    80001ca0:	02079713          	slli	a4,a5,0x20
    80001ca4:	9301                	srli	a4,a4,0x20
    80001ca6:	0c0027b7          	lui	a5,0xc002
    80001caa:	97ba                	add	a5,a5,a4
    80001cac:	fef43023          	sd	a5,-32(s0)
    80001cb0:	fe043783          	ld	a5,-32(s0)
    80001cb4:	0007c783          	lbu	a5,0(a5) # c002000 <_free_space+0x400e9d8>
    80001cb8:	fef407a3          	sb	a5,-17(s0)
    80001cbc:	fef44783          	lbu	a5,-17(s0)
    80001cc0:	2781                	sext.w	a5,a5
    80001cc2:	863e                	mv	a2,a5
    80001cc4:	fe043583          	ld	a1,-32(s0)
    80001cc8:	00002517          	auipc	a0,0x2
    80001ccc:	56050513          	addi	a0,a0,1376 # 80004228 <__rodata_start+0x580>
    80001cd0:	e70fe0ef          	jal	80000340 <log_debug>
    80001cd4:	fcc42783          	lw	a5,-52(s0)
    80001cd8:	8b9d                	andi	a5,a5,7
    80001cda:	2781                	sext.w	a5,a5
    80001cdc:	4705                	li	a4,1
    80001cde:	00f717bb          	sllw	a5,a4,a5
    80001ce2:	2781                	sext.w	a5,a5
    80001ce4:	0187971b          	slliw	a4,a5,0x18
    80001ce8:	4187571b          	sraiw	a4,a4,0x18
    80001cec:	fef40783          	lb	a5,-17(s0)
    80001cf0:	8fd9                	or	a5,a5,a4
    80001cf2:	0187979b          	slliw	a5,a5,0x18
    80001cf6:	4187d79b          	sraiw	a5,a5,0x18
    80001cfa:	fcf40fa3          	sb	a5,-33(s0)
    80001cfe:	fe043783          	ld	a5,-32(s0)
    80001d02:	fdf44703          	lbu	a4,-33(s0)
    80001d06:	00e78023          	sb	a4,0(a5)
    80001d0a:	fdf44783          	lbu	a5,-33(s0)
    80001d0e:	2781                	sext.w	a5,a5
    80001d10:	85be                	mv	a1,a5
    80001d12:	00002517          	auipc	a0,0x2
    80001d16:	54650513          	addi	a0,a0,1350 # 80004258 <__rodata_start+0x5b0>
    80001d1a:	e26fe0ef          	jal	80000340 <log_debug>
    80001d1e:	00002517          	auipc	a0,0x2
    80001d22:	55a50513          	addi	a0,a0,1370 # 80004278 <__rodata_start+0x5d0>
    80001d26:	dacfe0ef          	jal	800002d2 <log_trace>
    80001d2a:	0001                	nop
    80001d2c:	70e2                	ld	ra,56(sp)
    80001d2e:	7442                	ld	s0,48(sp)
    80001d30:	6121                	addi	sp,sp,64
    80001d32:	8082                	ret

0000000080001d34 <interrupt_disable>:
    80001d34:	7179                	addi	sp,sp,-48
    80001d36:	f406                	sd	ra,40(sp)
    80001d38:	f022                	sd	s0,32(sp)
    80001d3a:	1800                	addi	s0,sp,48
    80001d3c:	87aa                	mv	a5,a0
    80001d3e:	fcf42e23          	sw	a5,-36(s0)
    80001d42:	fe043423          	sd	zero,-24(s0)
    80001d46:	fe0403a3          	sb	zero,-25(s0)
    80001d4a:	00002517          	auipc	a0,0x2
    80001d4e:	54e50513          	addi	a0,a0,1358 # 80004298 <__rodata_start+0x5f0>
    80001d52:	d80fe0ef          	jal	800002d2 <log_trace>
    80001d56:	fdc42783          	lw	a5,-36(s0)
    80001d5a:	85be                	mv	a1,a5
    80001d5c:	00002517          	auipc	a0,0x2
    80001d60:	47c50513          	addi	a0,a0,1148 # 800041d8 <__rodata_start+0x530>
    80001d64:	ddcfe0ef          	jal	80000340 <log_debug>
    80001d68:	fdc42783          	lw	a5,-36(s0)
    80001d6c:	86be                	mv	a3,a5
    80001d6e:	6609                	lui	a2,0x2
    80001d70:	0c0005b7          	lui	a1,0xc000
    80001d74:	00002517          	auipc	a0,0x2
    80001d78:	54450513          	addi	a0,a0,1348 # 800042b8 <__rodata_start+0x610>
    80001d7c:	dc4fe0ef          	jal	80000340 <log_debug>
    80001d80:	fdc42783          	lw	a5,-36(s0)
    80001d84:	0037d79b          	srliw	a5,a5,0x3
    80001d88:	2781                	sext.w	a5,a5
    80001d8a:	02079713          	slli	a4,a5,0x20
    80001d8e:	9301                	srli	a4,a4,0x20
    80001d90:	0c0027b7          	lui	a5,0xc002
    80001d94:	97ba                	add	a5,a5,a4
    80001d96:	fef43423          	sd	a5,-24(s0)
    80001d9a:	fe843783          	ld	a5,-24(s0)
    80001d9e:	0007c783          	lbu	a5,0(a5) # c002000 <_free_space+0x400e9d8>
    80001da2:	fef403a3          	sb	a5,-25(s0)
    80001da6:	fe744783          	lbu	a5,-25(s0)
    80001daa:	2781                	sext.w	a5,a5
    80001dac:	863e                	mv	a2,a5
    80001dae:	fe843583          	ld	a1,-24(s0)
    80001db2:	00002517          	auipc	a0,0x2
    80001db6:	54e50513          	addi	a0,a0,1358 # 80004300 <__rodata_start+0x658>
    80001dba:	d86fe0ef          	jal	80000340 <log_debug>
    80001dbe:	fdc42783          	lw	a5,-36(s0)
    80001dc2:	8b9d                	andi	a5,a5,7
    80001dc4:	2781                	sext.w	a5,a5
    80001dc6:	4705                	li	a4,1
    80001dc8:	00f717bb          	sllw	a5,a4,a5
    80001dcc:	2781                	sext.w	a5,a5
    80001dce:	0187979b          	slliw	a5,a5,0x18
    80001dd2:	4187d79b          	sraiw	a5,a5,0x18
    80001dd6:	fff7c793          	not	a5,a5
    80001dda:	0187971b          	slliw	a4,a5,0x18
    80001dde:	4187571b          	sraiw	a4,a4,0x18
    80001de2:	fe740783          	lb	a5,-25(s0)
    80001de6:	8ff9                	and	a5,a5,a4
    80001de8:	0187979b          	slliw	a5,a5,0x18
    80001dec:	4187d79b          	sraiw	a5,a5,0x18
    80001df0:	fef40323          	sb	a5,-26(s0)
    80001df4:	fe843783          	ld	a5,-24(s0)
    80001df8:	fe644703          	lbu	a4,-26(s0)
    80001dfc:	00e78023          	sb	a4,0(a5)
    80001e00:	0000a717          	auipc	a4,0xa
    80001e04:	61870713          	addi	a4,a4,1560 # 8000c418 <hart0_interrupt_matrix>
    80001e08:	fdc46783          	lwu	a5,-36(s0)
    80001e0c:	0792                	slli	a5,a5,0x4
    80001e0e:	97ba                	add	a5,a5,a4
    80001e10:	0007a423          	sw	zero,8(a5)
    80001e14:	0000a717          	auipc	a4,0xa
    80001e18:	60470713          	addi	a4,a4,1540 # 8000c418 <hart0_interrupt_matrix>
    80001e1c:	fdc46783          	lwu	a5,-36(s0)
    80001e20:	0792                	slli	a5,a5,0x4
    80001e22:	97ba                	add	a5,a5,a4
    80001e24:	4798                	lw	a4,8(a5)
    80001e26:	fdc42783          	lw	a5,-36(s0)
    80001e2a:	863a                	mv	a2,a4
    80001e2c:	85be                	mv	a1,a5
    80001e2e:	00002517          	auipc	a0,0x2
    80001e32:	16a50513          	addi	a0,a0,362 # 80003f98 <__rodata_start+0x2f0>
    80001e36:	d0afe0ef          	jal	80000340 <log_debug>
    80001e3a:	00002517          	auipc	a0,0x2
    80001e3e:	4fe50513          	addi	a0,a0,1278 # 80004338 <__rodata_start+0x690>
    80001e42:	c90fe0ef          	jal	800002d2 <log_trace>
    80001e46:	0001                	nop
    80001e48:	70a2                	ld	ra,40(sp)
    80001e4a:	7402                	ld	s0,32(sp)
    80001e4c:	6145                	addi	sp,sp,48
    80001e4e:	8082                	ret

0000000080001e50 <set_interrupt_threshold>:
    80001e50:	7179                	addi	sp,sp,-48
    80001e52:	f406                	sd	ra,40(sp)
    80001e54:	f022                	sd	s0,32(sp)
    80001e56:	1800                	addi	s0,sp,48
    80001e58:	87aa                	mv	a5,a0
    80001e5a:	fcf42e23          	sw	a5,-36(s0)
    80001e5e:	00002517          	auipc	a0,0x2
    80001e62:	4fa50513          	addi	a0,a0,1274 # 80004358 <__rodata_start+0x6b0>
    80001e66:	c6cfe0ef          	jal	800002d2 <log_trace>
    80001e6a:	fe043423          	sd	zero,-24(s0)
    80001e6e:	0c0107b7          	lui	a5,0xc010
    80001e72:	fef43423          	sd	a5,-24(s0)
    80001e76:	fe843783          	ld	a5,-24(s0)
    80001e7a:	fdc42703          	lw	a4,-36(s0)
    80001e7e:	c398                	sw	a4,0(a5)
    80001e80:	fe843783          	ld	a5,-24(s0)
    80001e84:	439c                	lw	a5,0(a5)
    80001e86:	85be                	mv	a1,a5
    80001e88:	00002517          	auipc	a0,0x2
    80001e8c:	4f850513          	addi	a0,a0,1272 # 80004380 <__rodata_start+0x6d8>
    80001e90:	cb0fe0ef          	jal	80000340 <log_debug>
    80001e94:	00002517          	auipc	a0,0x2
    80001e98:	50c50513          	addi	a0,a0,1292 # 800043a0 <__rodata_start+0x6f8>
    80001e9c:	c36fe0ef          	jal	800002d2 <log_trace>
    80001ea0:	0001                	nop
    80001ea2:	70a2                	ld	ra,40(sp)
    80001ea4:	7402                	ld	s0,32(sp)
    80001ea6:	6145                	addi	sp,sp,48
    80001ea8:	8082                	ret

0000000080001eaa <set_interrupt_priority>:
    80001eaa:	7179                	addi	sp,sp,-48
    80001eac:	f406                	sd	ra,40(sp)
    80001eae:	f022                	sd	s0,32(sp)
    80001eb0:	1800                	addi	s0,sp,48
    80001eb2:	87aa                	mv	a5,a0
    80001eb4:	872e                	mv	a4,a1
    80001eb6:	fcf42e23          	sw	a5,-36(s0)
    80001eba:	87ba                	mv	a5,a4
    80001ebc:	fcf42c23          	sw	a5,-40(s0)
    80001ec0:	fdc42783          	lw	a5,-36(s0)
    80001ec4:	85be                	mv	a1,a5
    80001ec6:	00002517          	auipc	a0,0x2
    80001eca:	4fa50513          	addi	a0,a0,1274 # 800043c0 <__rodata_start+0x718>
    80001ece:	c04fe0ef          	jal	800002d2 <log_trace>
    80001ed2:	fd842783          	lw	a5,-40(s0)
    80001ed6:	0027979b          	slliw	a5,a5,0x2
    80001eda:	2781                	sext.w	a5,a5
    80001edc:	02079713          	slli	a4,a5,0x20
    80001ee0:	9301                	srli	a4,a4,0x20
    80001ee2:	0c0007b7          	lui	a5,0xc000
    80001ee6:	97ba                	add	a5,a5,a4
    80001ee8:	fef43423          	sd	a5,-24(s0)
    80001eec:	fe843583          	ld	a1,-24(s0)
    80001ef0:	00002517          	auipc	a0,0x2
    80001ef4:	4f850513          	addi	a0,a0,1272 # 800043e8 <__rodata_start+0x740>
    80001ef8:	c48fe0ef          	jal	80000340 <log_debug>
    80001efc:	fe843783          	ld	a5,-24(s0)
    80001f00:	439c                	lw	a5,0(a5)
    80001f02:	85be                	mv	a1,a5
    80001f04:	00002517          	auipc	a0,0x2
    80001f08:	50c50513          	addi	a0,a0,1292 # 80004410 <__rodata_start+0x768>
    80001f0c:	c34fe0ef          	jal	80000340 <log_debug>
    80001f10:	fe843783          	ld	a5,-24(s0)
    80001f14:	fdc42703          	lw	a4,-36(s0)
    80001f18:	c398                	sw	a4,0(a5)
    80001f1a:	fe843783          	ld	a5,-24(s0)
    80001f1e:	439c                	lw	a5,0(a5)
    80001f20:	85be                	mv	a1,a5
    80001f22:	00002517          	auipc	a0,0x2
    80001f26:	52650513          	addi	a0,a0,1318 # 80004448 <__rodata_start+0x7a0>
    80001f2a:	c16fe0ef          	jal	80000340 <log_debug>
    80001f2e:	00002517          	auipc	a0,0x2
    80001f32:	54a50513          	addi	a0,a0,1354 # 80004478 <__rodata_start+0x7d0>
    80001f36:	b9cfe0ef          	jal	800002d2 <log_trace>
    80001f3a:	0001                	nop
    80001f3c:	70a2                	ld	ra,40(sp)
    80001f3e:	7402                	ld	s0,32(sp)
    80001f40:	6145                	addi	sp,sp,48
    80001f42:	8082                	ret

0000000080001f44 <configure_interrupt_pin>:
    80001f44:	7179                	addi	sp,sp,-48
    80001f46:	f406                	sd	ra,40(sp)
    80001f48:	f022                	sd	s0,32(sp)
    80001f4a:	1800                	addi	s0,sp,48
    80001f4c:	87aa                	mv	a5,a0
    80001f4e:	fcf42e23          	sw	a5,-36(s0)
    80001f52:	00002517          	auipc	a0,0x2
    80001f56:	54650513          	addi	a0,a0,1350 # 80004498 <__rodata_start+0x7f0>
    80001f5a:	b78fe0ef          	jal	800002d2 <log_trace>
    80001f5e:	000407b7          	lui	a5,0x40
    80001f62:	10078513          	addi	a0,a5,256 # 40100 <_tbss_end+0x40100>
    80001f66:	88bff0ef          	jal	800017f0 <read_word>
    80001f6a:	87aa                	mv	a5,a0
    80001f6c:	fef42623          	sw	a5,-20(s0)
    80001f70:	fec42783          	lw	a5,-20(s0)
    80001f74:	85be                	mv	a1,a5
    80001f76:	00002517          	auipc	a0,0x2
    80001f7a:	54a50513          	addi	a0,a0,1354 # 800044c0 <__rodata_start+0x818>
    80001f7e:	bc2fe0ef          	jal	80000340 <log_debug>
    80001f82:	fdc42783          	lw	a5,-36(s0)
    80001f86:	37e5                	addiw	a5,a5,-7
    80001f88:	2781                	sext.w	a5,a5
    80001f8a:	4705                	li	a4,1
    80001f8c:	00f717bb          	sllw	a5,a4,a5
    80001f90:	2781                	sext.w	a5,a5
    80001f92:	fff7c793          	not	a5,a5
    80001f96:	2781                	sext.w	a5,a5
    80001f98:	2781                	sext.w	a5,a5
    80001f9a:	fec42703          	lw	a4,-20(s0)
    80001f9e:	8ff9                	and	a5,a5,a4
    80001fa0:	2781                	sext.w	a5,a5
    80001fa2:	1782                	slli	a5,a5,0x20
    80001fa4:	9381                	srli	a5,a5,0x20
    80001fa6:	85be                	mv	a1,a5
    80001fa8:	000407b7          	lui	a5,0x40
    80001fac:	10078513          	addi	a0,a5,256 # 40100 <_tbss_end+0x40100>
    80001fb0:	879ff0ef          	jal	80001828 <write_word>
    80001fb4:	000407b7          	lui	a5,0x40
    80001fb8:	10078513          	addi	a0,a5,256 # 40100 <_tbss_end+0x40100>
    80001fbc:	835ff0ef          	jal	800017f0 <read_word>
    80001fc0:	87aa                	mv	a5,a0
    80001fc2:	85be                	mv	a1,a5
    80001fc4:	00002517          	auipc	a0,0x2
    80001fc8:	52450513          	addi	a0,a0,1316 # 800044e8 <__rodata_start+0x840>
    80001fcc:	b74fe0ef          	jal	80000340 <log_debug>
    80001fd0:	00002517          	auipc	a0,0x2
    80001fd4:	54850513          	addi	a0,a0,1352 # 80004518 <__rodata_start+0x870>
    80001fd8:	afafe0ef          	jal	800002d2 <log_trace>
    80001fdc:	0001                	nop
    80001fde:	70a2                	ld	ra,40(sp)
    80001fe0:	7402                	ld	s0,32(sp)
    80001fe2:	6145                	addi	sp,sp,48
    80001fe4:	8082                	ret

0000000080001fe6 <plic_init>:
    80001fe6:	1101                	addi	sp,sp,-32
    80001fe8:	ec06                	sd	ra,24(sp)
    80001fea:	e822                	sd	s0,16(sp)
    80001fec:	1000                	addi	s0,sp,32
    80001fee:	fe042623          	sw	zero,-20(s0)
    80001ff2:	00002517          	auipc	a0,0x2
    80001ff6:	54650513          	addi	a0,a0,1350 # 80004538 <__rodata_start+0x890>
    80001ffa:	ad8fe0ef          	jal	800002d2 <log_trace>
    80001ffe:	8d018793          	addi	a5,gp,-1840 # 80004d70 <mcause_interrupt_table>
    80002002:	00000717          	auipc	a4,0x0
    80002006:	ae870713          	addi	a4,a4,-1304 # 80001aea <mach_plic_handler>
    8000200a:	efb8                	sd	a4,88(a5)
    8000200c:	45ad                	li	a1,11
    8000200e:	00002517          	auipc	a0,0x2
    80002012:	54250513          	addi	a0,a0,1346 # 80004550 <__rodata_start+0x8a8>
    80002016:	b2afe0ef          	jal	80000340 <log_debug>
    8000201a:	0000a797          	auipc	a5,0xa
    8000201e:	3fe78793          	addi	a5,a5,1022 # 8000c418 <hart0_interrupt_matrix>
    80002022:	0007a423          	sw	zero,8(a5)
    80002026:	0000a797          	auipc	a5,0xa
    8000202a:	3f278793          	addi	a5,a5,1010 # 8000c418 <hart0_interrupt_matrix>
    8000202e:	0007a023          	sw	zero,0(a5)
    80002032:	0000a797          	auipc	a5,0xa
    80002036:	3e678793          	addi	a5,a5,998 # 8000c418 <hart0_interrupt_matrix>
    8000203a:	0007a223          	sw	zero,4(a5)
    8000203e:	0000a797          	auipc	a5,0xa
    80002042:	3da78793          	addi	a5,a5,986 # 8000c418 <hart0_interrupt_matrix>
    80002046:	0007a623          	sw	zero,12(a5)
    8000204a:	4785                	li	a5,1
    8000204c:	fef42623          	sw	a5,-20(s0)
    80002050:	a8c5                	j	80002140 <plic_init+0x15a>
    80002052:	0000a717          	auipc	a4,0xa
    80002056:	3c670713          	addi	a4,a4,966 # 8000c418 <hart0_interrupt_matrix>
    8000205a:	fec46783          	lwu	a5,-20(s0)
    8000205e:	0792                	slli	a5,a5,0x4
    80002060:	97ba                	add	a5,a5,a4
    80002062:	0007a423          	sw	zero,8(a5)
    80002066:	0000a717          	auipc	a4,0xa
    8000206a:	3b270713          	addi	a4,a4,946 # 8000c418 <hart0_interrupt_matrix>
    8000206e:	fec46783          	lwu	a5,-20(s0)
    80002072:	0792                	slli	a5,a5,0x4
    80002074:	97ba                	add	a5,a5,a4
    80002076:	fec42703          	lw	a4,-20(s0)
    8000207a:	c398                	sw	a4,0(a5)
    8000207c:	0000a717          	auipc	a4,0xa
    80002080:	39c70713          	addi	a4,a4,924 # 8000c418 <hart0_interrupt_matrix>
    80002084:	fec46783          	lwu	a5,-20(s0)
    80002088:	0792                	slli	a5,a5,0x4
    8000208a:	97ba                	add	a5,a5,a4
    8000208c:	4709                	li	a4,2
    8000208e:	c3d8                	sw	a4,4(a5)
    80002090:	0000a717          	auipc	a4,0xa
    80002094:	38870713          	addi	a4,a4,904 # 8000c418 <hart0_interrupt_matrix>
    80002098:	fec46783          	lwu	a5,-20(s0)
    8000209c:	0792                	slli	a5,a5,0x4
    8000209e:	97ba                	add	a5,a5,a4
    800020a0:	0007a623          	sw	zero,12(a5)
    800020a4:	00002517          	auipc	a0,0x2
    800020a8:	4dc50513          	addi	a0,a0,1244 # 80004580 <__rodata_start+0x8d8>
    800020ac:	a94fe0ef          	jal	80000340 <log_debug>
    800020b0:	fec42783          	lw	a5,-20(s0)
    800020b4:	853e                	mv	a0,a5
    800020b6:	c7fff0ef          	jal	80001d34 <interrupt_disable>
    800020ba:	0000a717          	auipc	a4,0xa
    800020be:	27e70713          	addi	a4,a4,638 # 8000c338 <isr_table>
    800020c2:	fec46783          	lwu	a5,-20(s0)
    800020c6:	078e                	slli	a5,a5,0x3
    800020c8:	97ba                	add	a5,a5,a4
    800020ca:	00000717          	auipc	a4,0x0
    800020ce:	b0670713          	addi	a4,a4,-1274 # 80001bd0 <isr_default>
    800020d2:	e398                	sd	a4,0(a5)
    800020d4:	fec42783          	lw	a5,-20(s0)
    800020d8:	85be                	mv	a1,a5
    800020da:	4509                	li	a0,2
    800020dc:	dcfff0ef          	jal	80001eaa <set_interrupt_priority>
    800020e0:	0000a717          	auipc	a4,0xa
    800020e4:	33870713          	addi	a4,a4,824 # 8000c418 <hart0_interrupt_matrix>
    800020e8:	fec46783          	lwu	a5,-20(s0)
    800020ec:	0792                	slli	a5,a5,0x4
    800020ee:	97ba                	add	a5,a5,a4
    800020f0:	438c                	lw	a1,0(a5)
    800020f2:	0000a717          	auipc	a4,0xa
    800020f6:	32670713          	addi	a4,a4,806 # 8000c418 <hart0_interrupt_matrix>
    800020fa:	fec46783          	lwu	a5,-20(s0)
    800020fe:	0792                	slli	a5,a5,0x4
    80002100:	97ba                	add	a5,a5,a4
    80002102:	4790                	lw	a2,8(a5)
    80002104:	0000a717          	auipc	a4,0xa
    80002108:	31470713          	addi	a4,a4,788 # 8000c418 <hart0_interrupt_matrix>
    8000210c:	fec46783          	lwu	a5,-20(s0)
    80002110:	0792                	slli	a5,a5,0x4
    80002112:	97ba                	add	a5,a5,a4
    80002114:	43d4                	lw	a3,4(a5)
    80002116:	0000a717          	auipc	a4,0xa
    8000211a:	30270713          	addi	a4,a4,770 # 8000c418 <hart0_interrupt_matrix>
    8000211e:	fec46783          	lwu	a5,-20(s0)
    80002122:	0792                	slli	a5,a5,0x4
    80002124:	97ba                	add	a5,a5,a4
    80002126:	47dc                	lw	a5,12(a5)
    80002128:	873e                	mv	a4,a5
    8000212a:	00002517          	auipc	a0,0x2
    8000212e:	48e50513          	addi	a0,a0,1166 # 800045b8 <__rodata_start+0x910>
    80002132:	a0efe0ef          	jal	80000340 <log_debug>
    80002136:	fec42783          	lw	a5,-20(s0)
    8000213a:	2785                	addiw	a5,a5,1
    8000213c:	fef42623          	sw	a5,-20(s0)
    80002140:	fec42783          	lw	a5,-20(s0)
    80002144:	0007871b          	sext.w	a4,a5
    80002148:	47ed                	li	a5,27
    8000214a:	f0e7f4e3          	bgeu	a5,a4,80002052 <plic_init+0x6c>
    8000214e:	4505                	li	a0,1
    80002150:	d01ff0ef          	jal	80001e50 <set_interrupt_threshold>
    80002154:	00002517          	auipc	a0,0x2
    80002158:	4f450513          	addi	a0,a0,1268 # 80004648 <__rodata_start+0x9a0>
    8000215c:	976fe0ef          	jal	800002d2 <log_trace>
    80002160:	0001                	nop
    80002162:	60e2                	ld	ra,24(sp)
    80002164:	6442                	ld	s0,16(sp)
    80002166:	6105                	addi	sp,sp,32
    80002168:	8082                	ret

000000008000216a <configure_interrupt>:
    8000216a:	1101                	addi	sp,sp,-32
    8000216c:	ec06                	sd	ra,24(sp)
    8000216e:	e822                	sd	s0,16(sp)
    80002170:	1000                	addi	s0,sp,32
    80002172:	87aa                	mv	a5,a0
    80002174:	fef42623          	sw	a5,-20(s0)
    80002178:	00002517          	auipc	a0,0x2
    8000217c:	4e850513          	addi	a0,a0,1256 # 80004660 <__rodata_start+0x9b8>
    80002180:	952fe0ef          	jal	800002d2 <log_trace>
    80002184:	fec42783          	lw	a5,-20(s0)
    80002188:	0007871b          	sext.w	a4,a5
    8000218c:	4799                	li	a5,6
    8000218e:	00e7fe63          	bgeu	a5,a4,800021aa <configure_interrupt+0x40>
    80002192:	fec42783          	lw	a5,-20(s0)
    80002196:	0007871b          	sext.w	a4,a5
    8000219a:	47d5                	li	a5,21
    8000219c:	00e7e763          	bltu	a5,a4,800021aa <configure_interrupt+0x40>
    800021a0:	fec42783          	lw	a5,-20(s0)
    800021a4:	853e                	mv	a0,a5
    800021a6:	d9fff0ef          	jal	80001f44 <configure_interrupt_pin>
    800021aa:	fec42783          	lw	a5,-20(s0)
    800021ae:	853e                	mv	a0,a5
    800021b0:	aa5ff0ef          	jal	80001c54 <interrupt_enable>
    800021b4:	00002517          	auipc	a0,0x2
    800021b8:	4cc50513          	addi	a0,a0,1228 # 80004680 <__rodata_start+0x9d8>
    800021bc:	916fe0ef          	jal	800002d2 <log_trace>
    800021c0:	0001                	nop
    800021c2:	60e2                	ld	ra,24(sp)
    800021c4:	6442                	ld	s0,16(sp)
    800021c6:	6105                	addi	sp,sp,32
    800021c8:	8082                	ret

00000000800021ca <set_pwm_period_register>:
    800021ca:	7179                	addi	sp,sp,-48
    800021cc:	f406                	sd	ra,40(sp)
    800021ce:	f022                	sd	s0,32(sp)
    800021d0:	1800                	addi	s0,sp,48
    800021d2:	87aa                	mv	a5,a0
    800021d4:	872e                	mv	a4,a1
    800021d6:	fcf42e23          	sw	a5,-36(s0)
    800021da:	87ba                	mv	a5,a4
    800021dc:	fcf42c23          	sw	a5,-40(s0)
    800021e0:	fd842783          	lw	a5,-40(s0)
    800021e4:	0007871b          	sext.w	a4,a5
    800021e8:	67c1                	lui	a5,0x10
    800021ea:	00f74d63          	blt	a4,a5,80002204 <set_pwm_period_register+0x3a>
    800021ee:	67c1                	lui	a5,0x10
    800021f0:	fff78593          	addi	a1,a5,-1 # ffff <_tbss_end+0xffff>
    800021f4:	00002517          	auipc	a0,0x2
    800021f8:	4ac50513          	addi	a0,a0,1196 # 800046a0 <__rodata_start+0x9f8>
    800021fc:	9b2fe0ef          	jal	800003ae <log_error>
    80002200:	4781                	li	a5,0
    80002202:	a091                	j	80002246 <set_pwm_period_register+0x7c>
    80002204:	fdc42783          	lw	a5,-36(s0)
    80002208:	3007879b          	addiw	a5,a5,768
    8000220c:	2781                	sext.w	a5,a5
    8000220e:	0087979b          	slliw	a5,a5,0x8
    80002212:	2781                	sext.w	a5,a5
    80002214:	fef43423          	sd	a5,-24(s0)
    80002218:	fd842783          	lw	a5,-40(s0)
    8000221c:	0107971b          	slliw	a4,a5,0x10
    80002220:	4107571b          	sraiw	a4,a4,0x10
    80002224:	fe843783          	ld	a5,-24(s0)
    80002228:	00e79023          	sh	a4,0(a5)
    8000222c:	fd842703          	lw	a4,-40(s0)
    80002230:	fdc42783          	lw	a5,-36(s0)
    80002234:	863a                	mv	a2,a4
    80002236:	85be                	mv	a1,a5
    80002238:	00002517          	auipc	a0,0x2
    8000223c:	4a050513          	addi	a0,a0,1184 # 800046d8 <__rodata_start+0xa30>
    80002240:	8b6fe0ef          	jal	800002f6 <log_info>
    80002244:	4785                	li	a5,1
    80002246:	853e                	mv	a0,a5
    80002248:	70a2                	ld	ra,40(sp)
    8000224a:	7402                	ld	s0,32(sp)
    8000224c:	6145                	addi	sp,sp,48
    8000224e:	8082                	ret

0000000080002250 <set_pwm_duty_register>:
    80002250:	7179                	addi	sp,sp,-48
    80002252:	f406                	sd	ra,40(sp)
    80002254:	f022                	sd	s0,32(sp)
    80002256:	1800                	addi	s0,sp,48
    80002258:	87aa                	mv	a5,a0
    8000225a:	872e                	mv	a4,a1
    8000225c:	fcf42e23          	sw	a5,-36(s0)
    80002260:	87ba                	mv	a5,a4
    80002262:	fcf42c23          	sw	a5,-40(s0)
    80002266:	fd842783          	lw	a5,-40(s0)
    8000226a:	0007871b          	sext.w	a4,a5
    8000226e:	67c1                	lui	a5,0x10
    80002270:	00f74d63          	blt	a4,a5,8000228a <set_pwm_duty_register+0x3a>
    80002274:	67c1                	lui	a5,0x10
    80002276:	fff78593          	addi	a1,a5,-1 # ffff <_tbss_end+0xffff>
    8000227a:	00002517          	auipc	a0,0x2
    8000227e:	48e50513          	addi	a0,a0,1166 # 80004708 <__rodata_start+0xa60>
    80002282:	92cfe0ef          	jal	800003ae <log_error>
    80002286:	4781                	li	a5,0
    80002288:	a0a1                	j	800022d0 <set_pwm_duty_register+0x80>
    8000228a:	fdc42783          	lw	a5,-36(s0)
    8000228e:	3007879b          	addiw	a5,a5,768
    80002292:	2781                	sext.w	a5,a5
    80002294:	0087979b          	slliw	a5,a5,0x8
    80002298:	2781                	sext.w	a5,a5
    8000229a:	2791                	addiw	a5,a5,4
    8000229c:	2781                	sext.w	a5,a5
    8000229e:	fef43423          	sd	a5,-24(s0)
    800022a2:	fd842783          	lw	a5,-40(s0)
    800022a6:	0107971b          	slliw	a4,a5,0x10
    800022aa:	4107571b          	sraiw	a4,a4,0x10
    800022ae:	fe843783          	ld	a5,-24(s0)
    800022b2:	00e79023          	sh	a4,0(a5)
    800022b6:	fd842703          	lw	a4,-40(s0)
    800022ba:	fdc42783          	lw	a5,-36(s0)
    800022be:	863a                	mv	a2,a4
    800022c0:	85be                	mv	a1,a5
    800022c2:	00002517          	auipc	a0,0x2
    800022c6:	47650513          	addi	a0,a0,1142 # 80004738 <__rodata_start+0xa90>
    800022ca:	82cfe0ef          	jal	800002f6 <log_info>
    800022ce:	4785                	li	a5,1
    800022d0:	853e                	mv	a0,a5
    800022d2:	70a2                	ld	ra,40(sp)
    800022d4:	7402                	ld	s0,32(sp)
    800022d6:	6145                	addi	sp,sp,48
    800022d8:	8082                	ret

00000000800022da <set_pwm_control_register>:
    800022da:	7179                	addi	sp,sp,-48
    800022dc:	f406                	sd	ra,40(sp)
    800022de:	f022                	sd	s0,32(sp)
    800022e0:	1800                	addi	s0,sp,48
    800022e2:	87aa                	mv	a5,a0
    800022e4:	872e                	mv	a4,a1
    800022e6:	fcf42e23          	sw	a5,-36(s0)
    800022ea:	87ba                	mv	a5,a4
    800022ec:	fcf42c23          	sw	a5,-40(s0)
    800022f0:	fd842783          	lw	a5,-40(s0)
    800022f4:	0007871b          	sext.w	a4,a5
    800022f8:	0ff00793          	li	a5,255
    800022fc:	00e7dc63          	bge	a5,a4,80002314 <set_pwm_control_register+0x3a>
    80002300:	0ff00593          	li	a1,255
    80002304:	00002517          	auipc	a0,0x2
    80002308:	46450513          	addi	a0,a0,1124 # 80004768 <__rodata_start+0xac0>
    8000230c:	8a2fe0ef          	jal	800003ae <log_error>
    80002310:	4781                	li	a5,0
    80002312:	a091                	j	80002356 <set_pwm_control_register+0x7c>
    80002314:	fdc42783          	lw	a5,-36(s0)
    80002318:	3007879b          	addiw	a5,a5,768
    8000231c:	2781                	sext.w	a5,a5
    8000231e:	0087979b          	slliw	a5,a5,0x8
    80002322:	2781                	sext.w	a5,a5
    80002324:	27a1                	addiw	a5,a5,8
    80002326:	2781                	sext.w	a5,a5
    80002328:	fef43423          	sd	a5,-24(s0)
    8000232c:	fd842783          	lw	a5,-40(s0)
    80002330:	0ff7f713          	zext.b	a4,a5
    80002334:	fe843783          	ld	a5,-24(s0)
    80002338:	00e78023          	sb	a4,0(a5)
    8000233c:	fd842703          	lw	a4,-40(s0)
    80002340:	fdc42783          	lw	a5,-36(s0)
    80002344:	863a                	mv	a2,a4
    80002346:	85be                	mv	a1,a5
    80002348:	00002517          	auipc	a0,0x2
    8000234c:	45850513          	addi	a0,a0,1112 # 800047a0 <__rodata_start+0xaf8>
    80002350:	fa7fd0ef          	jal	800002f6 <log_info>
    80002354:	4785                	li	a5,1
    80002356:	853e                	mv	a0,a5
    80002358:	70a2                	ld	ra,40(sp)
    8000235a:	7402                	ld	s0,32(sp)
    8000235c:	6145                	addi	sp,sp,48
    8000235e:	8082                	ret

0000000080002360 <pwm_check_continuous_mode>:
    80002360:	7179                	addi	sp,sp,-48
    80002362:	f406                	sd	ra,40(sp)
    80002364:	f022                	sd	s0,32(sp)
    80002366:	1800                	addi	s0,sp,48
    80002368:	87aa                	mv	a5,a0
    8000236a:	fcf42e23          	sw	a5,-36(s0)
    8000236e:	fdc42783          	lw	a5,-36(s0)
    80002372:	3007879b          	addiw	a5,a5,768
    80002376:	2781                	sext.w	a5,a5
    80002378:	0087979b          	slliw	a5,a5,0x8
    8000237c:	2781                	sext.w	a5,a5
    8000237e:	27a1                	addiw	a5,a5,8
    80002380:	2781                	sext.w	a5,a5
    80002382:	fef43423          	sd	a5,-24(s0)
    80002386:	fe843783          	ld	a5,-24(s0)
    8000238a:	0007c783          	lbu	a5,0(a5)
    8000238e:	0ff7f793          	zext.b	a5,a5
    80002392:	2781                	sext.w	a5,a5
    80002394:	8ba1                	andi	a5,a5,8
    80002396:	fef42223          	sw	a5,-28(s0)
    8000239a:	fe442783          	lw	a5,-28(s0)
    8000239e:	4037d79b          	sraiw	a5,a5,0x3
    800023a2:	2781                	sext.w	a5,a5
    800023a4:	85be                	mv	a1,a5
    800023a6:	00002517          	auipc	a0,0x2
    800023aa:	43250513          	addi	a0,a0,1074 # 800047d8 <__rodata_start+0xb30>
    800023ae:	f49fd0ef          	jal	800002f6 <log_info>
    800023b2:	fe442783          	lw	a5,-28(s0)
    800023b6:	4037d79b          	sraiw	a5,a5,0x3
    800023ba:	2781                	sext.w	a5,a5
    800023bc:	873e                	mv	a4,a5
    800023be:	4785                	li	a5,1
    800023c0:	00f71463          	bne	a4,a5,800023c8 <pwm_check_continuous_mode+0x68>
    800023c4:	4785                	li	a5,1
    800023c6:	a011                	j	800023ca <pwm_check_continuous_mode+0x6a>
    800023c8:	4781                	li	a5,0
    800023ca:	853e                	mv	a0,a5
    800023cc:	70a2                	ld	ra,40(sp)
    800023ce:	7402                	ld	s0,32(sp)
    800023d0:	6145                	addi	sp,sp,48
    800023d2:	8082                	ret

00000000800023d4 <set_pwm_clock_register>:
    800023d4:	7179                	addi	sp,sp,-48
    800023d6:	f406                	sd	ra,40(sp)
    800023d8:	f022                	sd	s0,32(sp)
    800023da:	1800                	addi	s0,sp,48
    800023dc:	87aa                	mv	a5,a0
    800023de:	872e                	mv	a4,a1
    800023e0:	fcf42e23          	sw	a5,-36(s0)
    800023e4:	87ba                	mv	a5,a4
    800023e6:	fcf42c23          	sw	a5,-40(s0)
    800023ea:	fd842783          	lw	a5,-40(s0)
    800023ee:	0007871b          	sext.w	a4,a5
    800023f2:	67c1                	lui	a5,0x10
    800023f4:	00f74d63          	blt	a4,a5,8000240e <set_pwm_clock_register+0x3a>
    800023f8:	67c1                	lui	a5,0x10
    800023fa:	fff78593          	addi	a1,a5,-1 # ffff <_tbss_end+0xffff>
    800023fe:	00002517          	auipc	a0,0x2
    80002402:	40250513          	addi	a0,a0,1026 # 80004800 <__rodata_start+0xb58>
    80002406:	fa9fd0ef          	jal	800003ae <log_error>
    8000240a:	4781                	li	a5,0
    8000240c:	a805                	j	8000243c <set_pwm_clock_register+0x68>
    8000240e:	fdc42783          	lw	a5,-36(s0)
    80002412:	3007879b          	addiw	a5,a5,768
    80002416:	2781                	sext.w	a5,a5
    80002418:	0087979b          	slliw	a5,a5,0x8
    8000241c:	2781                	sext.w	a5,a5
    8000241e:	27b1                	addiw	a5,a5,12
    80002420:	2781                	sext.w	a5,a5
    80002422:	fef43423          	sd	a5,-24(s0)
    80002426:	fd842783          	lw	a5,-40(s0)
    8000242a:	0107971b          	slliw	a4,a5,0x10
    8000242e:	4107571b          	sraiw	a4,a4,0x10
    80002432:	fe843783          	ld	a5,-24(s0)
    80002436:	00e79023          	sh	a4,0(a5)
    8000243a:	4785                	li	a5,1
    8000243c:	853e                	mv	a0,a5
    8000243e:	70a2                	ld	ra,40(sp)
    80002440:	7402                	ld	s0,32(sp)
    80002442:	6145                	addi	sp,sp,48
    80002444:	8082                	ret

0000000080002446 <pwm_clear_registers>:
    80002446:	1101                	addi	sp,sp,-32
    80002448:	ec06                	sd	ra,24(sp)
    8000244a:	e822                	sd	s0,16(sp)
    8000244c:	1000                	addi	s0,sp,32
    8000244e:	87aa                	mv	a5,a0
    80002450:	fef42623          	sw	a5,-20(s0)
    80002454:	fec42783          	lw	a5,-20(s0)
    80002458:	4581                	li	a1,0
    8000245a:	853e                	mv	a0,a5
    8000245c:	d6fff0ef          	jal	800021ca <set_pwm_period_register>
    80002460:	fec42783          	lw	a5,-20(s0)
    80002464:	4581                	li	a1,0
    80002466:	853e                	mv	a0,a5
    80002468:	de9ff0ef          	jal	80002250 <set_pwm_duty_register>
    8000246c:	fec42783          	lw	a5,-20(s0)
    80002470:	4581                	li	a1,0
    80002472:	853e                	mv	a0,a5
    80002474:	e67ff0ef          	jal	800022da <set_pwm_control_register>
    80002478:	fec42783          	lw	a5,-20(s0)
    8000247c:	4581                	li	a1,0
    8000247e:	853e                	mv	a0,a5
    80002480:	f55ff0ef          	jal	800023d4 <set_pwm_clock_register>
    80002484:	fec42783          	lw	a5,-20(s0)
    80002488:	85be                	mv	a1,a5
    8000248a:	00002517          	auipc	a0,0x2
    8000248e:	3ae50513          	addi	a0,a0,942 # 80004838 <__rodata_start+0xb90>
    80002492:	e65fd0ef          	jal	800002f6 <log_info>
    80002496:	0001                	nop
    80002498:	60e2                	ld	ra,24(sp)
    8000249a:	6442                	ld	s0,16(sp)
    8000249c:	6105                	addi	sp,sp,32
    8000249e:	8082                	ret

00000000800024a0 <pwm_init>:
    800024a0:	1101                	addi	sp,sp,-32
    800024a2:	ec06                	sd	ra,24(sp)
    800024a4:	e822                	sd	s0,16(sp)
    800024a6:	1000                	addi	s0,sp,32
    800024a8:	fe042623          	sw	zero,-20(s0)
    800024ac:	a819                	j	800024c2 <pwm_init+0x22>
    800024ae:	fec42783          	lw	a5,-20(s0)
    800024b2:	853e                	mv	a0,a5
    800024b4:	f93ff0ef          	jal	80002446 <pwm_clear_registers>
    800024b8:	fec42783          	lw	a5,-20(s0)
    800024bc:	2785                	addiw	a5,a5,1
    800024be:	fef42623          	sw	a5,-20(s0)
    800024c2:	fec42783          	lw	a5,-20(s0)
    800024c6:	0007871b          	sext.w	a4,a5
    800024ca:	4791                	li	a5,4
    800024cc:	fee7d1e3          	bge	a5,a4,800024ae <pwm_init+0xe>
    800024d0:	00002517          	auipc	a0,0x2
    800024d4:	39850513          	addi	a0,a0,920 # 80004868 <__rodata_start+0xbc0>
    800024d8:	e1ffd0ef          	jal	800002f6 <log_info>
    800024dc:	0001                	nop
    800024de:	60e2                	ld	ra,24(sp)
    800024e0:	6442                	ld	s0,16(sp)
    800024e2:	6105                	addi	sp,sp,32
    800024e4:	8082                	ret

00000000800024e6 <configure_control_register_mode>:
    800024e6:	7179                	addi	sp,sp,-48
    800024e8:	f406                	sd	ra,40(sp)
    800024ea:	f022                	sd	s0,32(sp)
    800024ec:	1800                	addi	s0,sp,48
    800024ee:	87aa                	mv	a5,a0
    800024f0:	fcf42e23          	sw	a5,-36(s0)
    800024f4:	fe042623          	sw	zero,-20(s0)
    800024f8:	fdc42783          	lw	a5,-36(s0)
    800024fc:	2781                	sext.w	a5,a5
    800024fe:	e79d                	bnez	a5,8000252c <configure_control_register_mode+0x46>
    80002500:	00002517          	auipc	a0,0x2
    80002504:	39850513          	addi	a0,a0,920 # 80004898 <__rodata_start+0xbf0>
    80002508:	deffd0ef          	jal	800002f6 <log_info>
    8000250c:	fec42783          	lw	a5,-20(s0)
    80002510:	2789                	addiw	a5,a5,2
    80002512:	fef42623          	sw	a5,-20(s0)
    80002516:	fec42783          	lw	a5,-20(s0)
    8000251a:	2791                	addiw	a5,a5,4
    8000251c:	fef42623          	sw	a5,-20(s0)
    80002520:	fec42783          	lw	a5,-20(s0)
    80002524:	27c1                	addiw	a5,a5,16
    80002526:	fef42623          	sw	a5,-20(s0)
    8000252a:	a899                	j	80002580 <configure_control_register_mode+0x9a>
    8000252c:	fdc42783          	lw	a5,-36(s0)
    80002530:	0007871b          	sext.w	a4,a5
    80002534:	4785                	li	a5,1
    80002536:	00f71e63          	bne	a4,a5,80002552 <configure_control_register_mode+0x6c>
    8000253a:	00002517          	auipc	a0,0x2
    8000253e:	38650513          	addi	a0,a0,902 # 800048c0 <__rodata_start+0xc18>
    80002542:	db5fd0ef          	jal	800002f6 <log_info>
    80002546:	fec42783          	lw	a5,-20(s0)
    8000254a:	2791                	addiw	a5,a5,4
    8000254c:	fef42623          	sw	a5,-20(s0)
    80002550:	a805                	j	80002580 <configure_control_register_mode+0x9a>
    80002552:	fdc42783          	lw	a5,-36(s0)
    80002556:	0007871b          	sext.w	a4,a5
    8000255a:	4789                	li	a5,2
    8000255c:	02f71263          	bne	a4,a5,80002580 <configure_control_register_mode+0x9a>
    80002560:	00002517          	auipc	a0,0x2
    80002564:	39050513          	addi	a0,a0,912 # 800048f0 <__rodata_start+0xc48>
    80002568:	d8ffd0ef          	jal	800002f6 <log_info>
    8000256c:	fec42783          	lw	a5,-20(s0)
    80002570:	2791                	addiw	a5,a5,4
    80002572:	fef42623          	sw	a5,-20(s0)
    80002576:	fec42783          	lw	a5,-20(s0)
    8000257a:	27a1                	addiw	a5,a5,8
    8000257c:	fef42623          	sw	a5,-20(s0)
    80002580:	fec42783          	lw	a5,-20(s0)
    80002584:	853e                	mv	a0,a5
    80002586:	70a2                	ld	ra,40(sp)
    80002588:	7402                	ld	s0,32(sp)
    8000258a:	6145                	addi	sp,sp,48
    8000258c:	8082                	ret

000000008000258e <pwm_start>:
    8000258e:	7179                	addi	sp,sp,-48
    80002590:	f406                	sd	ra,40(sp)
    80002592:	f022                	sd	s0,32(sp)
    80002594:	1800                	addi	s0,sp,48
    80002596:	87aa                	mv	a5,a0
    80002598:	872e                	mv	a4,a1
    8000259a:	fcf42e23          	sw	a5,-36(s0)
    8000259e:	87ba                	mv	a5,a4
    800025a0:	fcf42c23          	sw	a5,-40(s0)
    800025a4:	fd842783          	lw	a5,-40(s0)
    800025a8:	853e                	mv	a0,a5
    800025aa:	f3dff0ef          	jal	800024e6 <configure_control_register_mode>
    800025ae:	87aa                	mv	a5,a0
    800025b0:	fef42623          	sw	a5,-20(s0)
    800025b4:	fec42703          	lw	a4,-20(s0)
    800025b8:	fdc42783          	lw	a5,-36(s0)
    800025bc:	85ba                	mv	a1,a4
    800025be:	853e                	mv	a0,a5
    800025c0:	d1bff0ef          	jal	800022da <set_pwm_control_register>
    800025c4:	87aa                	mv	a5,a0
    800025c6:	cb91                	beqz	a5,800025da <pwm_start+0x4c>
    800025c8:	fdc42783          	lw	a5,-36(s0)
    800025cc:	85be                	mv	a1,a5
    800025ce:	00002517          	auipc	a0,0x2
    800025d2:	35a50513          	addi	a0,a0,858 # 80004928 <__rodata_start+0xc80>
    800025d6:	d21fd0ef          	jal	800002f6 <log_info>
    800025da:	fec42703          	lw	a4,-20(s0)
    800025de:	fdc42783          	lw	a5,-36(s0)
    800025e2:	85ba                	mv	a1,a4
    800025e4:	853e                	mv	a0,a5
    800025e6:	cf5ff0ef          	jal	800022da <set_pwm_control_register>
    800025ea:	87aa                	mv	a5,a0
    800025ec:	eb91                	bnez	a5,80002600 <pwm_start+0x72>
    800025ee:	fdc42783          	lw	a5,-36(s0)
    800025f2:	85be                	mv	a1,a5
    800025f4:	00002517          	auipc	a0,0x2
    800025f8:	35c50513          	addi	a0,a0,860 # 80004950 <__rodata_start+0xca8>
    800025fc:	db3fd0ef          	jal	800003ae <log_error>
    80002600:	0001                	nop
    80002602:	70a2                	ld	ra,40(sp)
    80002604:	7402                	ld	s0,32(sp)
    80002606:	6145                	addi	sp,sp,48
    80002608:	8082                	ret

000000008000260a <pwm_use_external_clock>:
    8000260a:	7179                	addi	sp,sp,-48
    8000260c:	f422                	sd	s0,40(sp)
    8000260e:	1800                	addi	s0,sp,48
    80002610:	87aa                	mv	a5,a0
    80002612:	872e                	mv	a4,a1
    80002614:	fcf42e23          	sw	a5,-36(s0)
    80002618:	87ba                	mv	a5,a4
    8000261a:	fcf40da3          	sb	a5,-37(s0)
    8000261e:	fdc42783          	lw	a5,-36(s0)
    80002622:	3007879b          	addiw	a5,a5,768
    80002626:	2781                	sext.w	a5,a5
    80002628:	0087979b          	slliw	a5,a5,0x8
    8000262c:	2781                	sext.w	a5,a5
    8000262e:	27a1                	addiw	a5,a5,8
    80002630:	2781                	sext.w	a5,a5
    80002632:	fef43423          	sd	a5,-24(s0)
    80002636:	fdb44783          	lbu	a5,-37(s0)
    8000263a:	0ff7f793          	zext.b	a5,a5
    8000263e:	c799                	beqz	a5,8000264c <pwm_use_external_clock+0x42>
    80002640:	fe843783          	ld	a5,-24(s0)
    80002644:	0785                	addi	a5,a5,1
    80002646:	fef43423          	sd	a5,-24(s0)
    8000264a:	a809                	j	8000265c <pwm_use_external_clock+0x52>
    8000264c:	fe843783          	ld	a5,-24(s0)
    80002650:	c791                	beqz	a5,8000265c <pwm_use_external_clock+0x52>
    80002652:	fe843783          	ld	a5,-24(s0)
    80002656:	17fd                	addi	a5,a5,-1
    80002658:	fef43423          	sd	a5,-24(s0)
    8000265c:	0001                	nop
    8000265e:	7422                	ld	s0,40(sp)
    80002660:	6145                	addi	sp,sp,48
    80002662:	8082                	ret

0000000080002664 <pwm_set_clock>:
    80002664:	1101                	addi	sp,sp,-32
    80002666:	ec06                	sd	ra,24(sp)
    80002668:	e822                	sd	s0,16(sp)
    8000266a:	1000                	addi	s0,sp,32
    8000266c:	87aa                	mv	a5,a0
    8000266e:	872e                	mv	a4,a1
    80002670:	fef42623          	sw	a5,-20(s0)
    80002674:	87ba                	mv	a5,a4
    80002676:	fef42423          	sw	a5,-24(s0)
    8000267a:	fe842703          	lw	a4,-24(s0)
    8000267e:	fec42783          	lw	a5,-20(s0)
    80002682:	85ba                	mv	a1,a4
    80002684:	853e                	mv	a0,a5
    80002686:	d4fff0ef          	jal	800023d4 <set_pwm_clock_register>
    8000268a:	87aa                	mv	a5,a0
    8000268c:	e799                	bnez	a5,8000269a <pwm_set_clock+0x36>
    8000268e:	00002517          	auipc	a0,0x2
    80002692:	2ea50513          	addi	a0,a0,746 # 80004978 <__rodata_start+0xcd0>
    80002696:	d19fd0ef          	jal	800003ae <log_error>
    8000269a:	0001                	nop
    8000269c:	60e2                	ld	ra,24(sp)
    8000269e:	6442                	ld	s0,16(sp)
    800026a0:	6105                	addi	sp,sp,32
    800026a2:	8082                	ret

00000000800026a4 <pwm_set_duty_cycle>:
    800026a4:	1101                	addi	sp,sp,-32
    800026a6:	ec06                	sd	ra,24(sp)
    800026a8:	e822                	sd	s0,16(sp)
    800026aa:	1000                	addi	s0,sp,32
    800026ac:	87aa                	mv	a5,a0
    800026ae:	872e                	mv	a4,a1
    800026b0:	fef42623          	sw	a5,-20(s0)
    800026b4:	87ba                	mv	a5,a4
    800026b6:	fef42423          	sw	a5,-24(s0)
    800026ba:	fe842703          	lw	a4,-24(s0)
    800026be:	fec42783          	lw	a5,-20(s0)
    800026c2:	85ba                	mv	a1,a4
    800026c4:	853e                	mv	a0,a5
    800026c6:	b8bff0ef          	jal	80002250 <set_pwm_duty_register>
    800026ca:	87aa                	mv	a5,a0
    800026cc:	e799                	bnez	a5,800026da <pwm_set_duty_cycle+0x36>
    800026ce:	00002517          	auipc	a0,0x2
    800026d2:	2d250513          	addi	a0,a0,722 # 800049a0 <__rodata_start+0xcf8>
    800026d6:	cd9fd0ef          	jal	800003ae <log_error>
    800026da:	0001                	nop
    800026dc:	60e2                	ld	ra,24(sp)
    800026de:	6442                	ld	s0,16(sp)
    800026e0:	6105                	addi	sp,sp,32
    800026e2:	8082                	ret

00000000800026e4 <pwm_set_periodic_cycle>:
    800026e4:	1101                	addi	sp,sp,-32
    800026e6:	ec06                	sd	ra,24(sp)
    800026e8:	e822                	sd	s0,16(sp)
    800026ea:	1000                	addi	s0,sp,32
    800026ec:	87aa                	mv	a5,a0
    800026ee:	872e                	mv	a4,a1
    800026f0:	fef42623          	sw	a5,-20(s0)
    800026f4:	87ba                	mv	a5,a4
    800026f6:	fef42423          	sw	a5,-24(s0)
    800026fa:	fe842703          	lw	a4,-24(s0)
    800026fe:	fec42783          	lw	a5,-20(s0)
    80002702:	85ba                	mv	a1,a4
    80002704:	853e                	mv	a0,a5
    80002706:	ac5ff0ef          	jal	800021ca <set_pwm_period_register>
    8000270a:	87aa                	mv	a5,a0
    8000270c:	e799                	bnez	a5,8000271a <pwm_set_periodic_cycle+0x36>
    8000270e:	00002517          	auipc	a0,0x2
    80002712:	2ba50513          	addi	a0,a0,698 # 800049c8 <__rodata_start+0xd20>
    80002716:	c99fd0ef          	jal	800003ae <log_error>
    8000271a:	0001                	nop
    8000271c:	60e2                	ld	ra,24(sp)
    8000271e:	6442                	ld	s0,16(sp)
    80002720:	6105                	addi	sp,sp,32
    80002722:	8082                	ret

0000000080002724 <pwm_configure>:
    80002724:	7179                	addi	sp,sp,-48
    80002726:	f406                	sd	ra,40(sp)
    80002728:	f022                	sd	s0,32(sp)
    8000272a:	1800                	addi	s0,sp,48
    8000272c:	87aa                	mv	a5,a0
    8000272e:	fef42623          	sw	a5,-20(s0)
    80002732:	87ae                	mv	a5,a1
    80002734:	fef42423          	sw	a5,-24(s0)
    80002738:	87b2                	mv	a5,a2
    8000273a:	fef42223          	sw	a5,-28(s0)
    8000273e:	87b6                	mv	a5,a3
    80002740:	fef42023          	sw	a5,-32(s0)
    80002744:	87ba                	mv	a5,a4
    80002746:	fcf40fa3          	sb	a5,-33(s0)
    8000274a:	fe442703          	lw	a4,-28(s0)
    8000274e:	fec42783          	lw	a5,-20(s0)
    80002752:	85ba                	mv	a1,a4
    80002754:	853e                	mv	a0,a5
    80002756:	f8fff0ef          	jal	800026e4 <pwm_set_periodic_cycle>
    8000275a:	fe042703          	lw	a4,-32(s0)
    8000275e:	fec42783          	lw	a5,-20(s0)
    80002762:	85ba                	mv	a1,a4
    80002764:	853e                	mv	a0,a5
    80002766:	f3fff0ef          	jal	800026a4 <pwm_set_duty_cycle>
    8000276a:	fe842703          	lw	a4,-24(s0)
    8000276e:	fec42783          	lw	a5,-20(s0)
    80002772:	85ba                	mv	a1,a4
    80002774:	853e                	mv	a0,a5
    80002776:	eefff0ef          	jal	80002664 <pwm_set_clock>
    8000277a:	fdf44703          	lbu	a4,-33(s0)
    8000277e:	fec42783          	lw	a5,-20(s0)
    80002782:	85ba                	mv	a1,a4
    80002784:	853e                	mv	a0,a5
    80002786:	e85ff0ef          	jal	8000260a <pwm_use_external_clock>
    8000278a:	fec42783          	lw	a5,-20(s0)
    8000278e:	85be                	mv	a1,a5
    80002790:	00002517          	auipc	a0,0x2
    80002794:	26050513          	addi	a0,a0,608 # 800049f0 <__rodata_start+0xd48>
    80002798:	b5ffd0ef          	jal	800002f6 <log_info>
    8000279c:	0001                	nop
    8000279e:	70a2                	ld	ra,40(sp)
    800027a0:	7402                	ld	s0,32(sp)
    800027a2:	6145                	addi	sp,sp,48
    800027a4:	8082                	ret

00000000800027a6 <pwm_stop>:
    800027a6:	1101                	addi	sp,sp,-32
    800027a8:	ec06                	sd	ra,24(sp)
    800027aa:	e822                	sd	s0,16(sp)
    800027ac:	1000                	addi	s0,sp,32
    800027ae:	87aa                	mv	a5,a0
    800027b0:	fef42623          	sw	a5,-20(s0)
    800027b4:	fec42783          	lw	a5,-20(s0)
    800027b8:	4581                	li	a1,0
    800027ba:	853e                	mv	a0,a5
    800027bc:	b1fff0ef          	jal	800022da <set_pwm_control_register>
    800027c0:	fec42783          	lw	a5,-20(s0)
    800027c4:	85be                	mv	a1,a5
    800027c6:	00002517          	auipc	a0,0x2
    800027ca:	24a50513          	addi	a0,a0,586 # 80004a10 <__rodata_start+0xd68>
    800027ce:	b29fd0ef          	jal	800002f6 <log_info>
    800027d2:	0001                	nop
    800027d4:	60e2                	ld	ra,24(sp)
    800027d6:	6442                	ld	s0,16(sp)
    800027d8:	6105                	addi	sp,sp,32
    800027da:	8082                	ret

00000000800027dc <show_register_values>:
    800027dc:	7139                	addi	sp,sp,-64
    800027de:	fc06                	sd	ra,56(sp)
    800027e0:	f822                	sd	s0,48(sp)
    800027e2:	0080                	addi	s0,sp,64
    800027e4:	87aa                	mv	a5,a0
    800027e6:	fcf42623          	sw	a5,-52(s0)
    800027ea:	fcc42783          	lw	a5,-52(s0)
    800027ee:	3007879b          	addiw	a5,a5,768
    800027f2:	2781                	sext.w	a5,a5
    800027f4:	0087979b          	slliw	a5,a5,0x8
    800027f8:	2781                	sext.w	a5,a5
    800027fa:	fef43423          	sd	a5,-24(s0)
    800027fe:	fcc42783          	lw	a5,-52(s0)
    80002802:	3007879b          	addiw	a5,a5,768
    80002806:	2781                	sext.w	a5,a5
    80002808:	0087979b          	slliw	a5,a5,0x8
    8000280c:	2781                	sext.w	a5,a5
    8000280e:	2791                	addiw	a5,a5,4
    80002810:	2781                	sext.w	a5,a5
    80002812:	fef43023          	sd	a5,-32(s0)
    80002816:	fcc42783          	lw	a5,-52(s0)
    8000281a:	3007879b          	addiw	a5,a5,768
    8000281e:	2781                	sext.w	a5,a5
    80002820:	0087979b          	slliw	a5,a5,0x8
    80002824:	2781                	sext.w	a5,a5
    80002826:	27a1                	addiw	a5,a5,8
    80002828:	2781                	sext.w	a5,a5
    8000282a:	fcf43c23          	sd	a5,-40(s0)
    8000282e:	fcc42783          	lw	a5,-52(s0)
    80002832:	3007879b          	addiw	a5,a5,768
    80002836:	2781                	sext.w	a5,a5
    80002838:	0087979b          	slliw	a5,a5,0x8
    8000283c:	2781                	sext.w	a5,a5
    8000283e:	27b1                	addiw	a5,a5,12
    80002840:	2781                	sext.w	a5,a5
    80002842:	fcf43823          	sd	a5,-48(s0)
    80002846:	fe843783          	ld	a5,-24(s0)
    8000284a:	0007d783          	lhu	a5,0(a5)
    8000284e:	17c2                	slli	a5,a5,0x30
    80002850:	93c1                	srli	a5,a5,0x30
    80002852:	2781                	sext.w	a5,a5
    80002854:	85be                	mv	a1,a5
    80002856:	00002517          	auipc	a0,0x2
    8000285a:	1e250513          	addi	a0,a0,482 # 80004a38 <__rodata_start+0xd90>
    8000285e:	a99fd0ef          	jal	800002f6 <log_info>
    80002862:	fe043783          	ld	a5,-32(s0)
    80002866:	0007d783          	lhu	a5,0(a5)
    8000286a:	17c2                	slli	a5,a5,0x30
    8000286c:	93c1                	srli	a5,a5,0x30
    8000286e:	2781                	sext.w	a5,a5
    80002870:	85be                	mv	a1,a5
    80002872:	00002517          	auipc	a0,0x2
    80002876:	1ee50513          	addi	a0,a0,494 # 80004a60 <__rodata_start+0xdb8>
    8000287a:	a7dfd0ef          	jal	800002f6 <log_info>
    8000287e:	fd843783          	ld	a5,-40(s0)
    80002882:	0007c783          	lbu	a5,0(a5)
    80002886:	0ff7f793          	zext.b	a5,a5
    8000288a:	2781                	sext.w	a5,a5
    8000288c:	85be                	mv	a1,a5
    8000288e:	00002517          	auipc	a0,0x2
    80002892:	1fa50513          	addi	a0,a0,506 # 80004a88 <__rodata_start+0xde0>
    80002896:	a61fd0ef          	jal	800002f6 <log_info>
    8000289a:	fd043783          	ld	a5,-48(s0)
    8000289e:	0007d783          	lhu	a5,0(a5)
    800028a2:	17c2                	slli	a5,a5,0x30
    800028a4:	93c1                	srli	a5,a5,0x30
    800028a6:	2781                	sext.w	a5,a5
    800028a8:	85be                	mv	a1,a5
    800028aa:	00002517          	auipc	a0,0x2
    800028ae:	20650513          	addi	a0,a0,518 # 80004ab0 <__rodata_start+0xe08>
    800028b2:	a45fd0ef          	jal	800002f6 <log_info>
    800028b6:	0001                	nop
    800028b8:	70e2                	ld	ra,56(sp)
    800028ba:	7442                	ld	s0,48(sp)
    800028bc:	6121                	addi	sp,sp,64
    800028be:	8082                	ret

00000000800028c0 <rdcycle>:
    800028c0:	1101                	addi	sp,sp,-32
    800028c2:	ec22                	sd	s0,24(sp)
    800028c4:	1000                	addi	s0,sp,32
    800028c6:	c00027f3          	rdcycle	a5
    800028ca:	fef43423          	sd	a5,-24(s0)
    800028ce:	fe843783          	ld	a5,-24(s0)
    800028d2:	853e                	mv	a0,a5
    800028d4:	6462                	ld	s0,24(sp)
    800028d6:	6105                	addi	sp,sp,32
    800028d8:	8082                	ret

00000000800028da <gpio_set>:
    800028da:	7179                	addi	sp,sp,-48
    800028dc:	f406                	sd	ra,40(sp)
    800028de:	f022                	sd	s0,32(sp)
    800028e0:	1800                	addi	s0,sp,48
    800028e2:	87aa                	mv	a5,a0
    800028e4:	fcf42e23          	sw	a5,-36(s0)
    800028e8:	000407b7          	lui	a5,0x40
    800028ec:	10878513          	addi	a0,a5,264 # 40108 <_tbss_end+0x40108>
    800028f0:	f01fe0ef          	jal	800017f0 <read_word>
    800028f4:	87aa                	mv	a5,a0
    800028f6:	fef42623          	sw	a5,-20(s0)
    800028fa:	fec42783          	lw	a5,-20(s0)
    800028fe:	873e                	mv	a4,a5
    80002900:	fdc42783          	lw	a5,-36(s0)
    80002904:	8fd9                	or	a5,a5,a4
    80002906:	2781                	sext.w	a5,a5
    80002908:	1782                	slli	a5,a5,0x20
    8000290a:	9381                	srli	a5,a5,0x20
    8000290c:	85be                	mv	a1,a5
    8000290e:	000407b7          	lui	a5,0x40
    80002912:	10878513          	addi	a0,a5,264 # 40108 <_tbss_end+0x40108>
    80002916:	f13fe0ef          	jal	80001828 <write_word>
    8000291a:	0001                	nop
    8000291c:	70a2                	ld	ra,40(sp)
    8000291e:	7402                	ld	s0,32(sp)
    80002920:	6145                	addi	sp,sp,48
    80002922:	8082                	ret

0000000080002924 <gpio_clr>:
    80002924:	7179                	addi	sp,sp,-48
    80002926:	f406                	sd	ra,40(sp)
    80002928:	f022                	sd	s0,32(sp)
    8000292a:	1800                	addi	s0,sp,48
    8000292c:	87aa                	mv	a5,a0
    8000292e:	fcf42e23          	sw	a5,-36(s0)
    80002932:	000407b7          	lui	a5,0x40
    80002936:	10878513          	addi	a0,a5,264 # 40108 <_tbss_end+0x40108>
    8000293a:	eb7fe0ef          	jal	800017f0 <read_word>
    8000293e:	87aa                	mv	a5,a0
    80002940:	fef42623          	sw	a5,-20(s0)
    80002944:	fdc42783          	lw	a5,-36(s0)
    80002948:	fff7c793          	not	a5,a5
    8000294c:	2781                	sext.w	a5,a5
    8000294e:	fec42703          	lw	a4,-20(s0)
    80002952:	8ff9                	and	a5,a5,a4
    80002954:	2781                	sext.w	a5,a5
    80002956:	1782                	slli	a5,a5,0x20
    80002958:	9381                	srli	a5,a5,0x20
    8000295a:	85be                	mv	a1,a5
    8000295c:	000407b7          	lui	a5,0x40
    80002960:	10878513          	addi	a0,a5,264 # 40108 <_tbss_end+0x40108>
    80002964:	ec5fe0ef          	jal	80001828 <write_word>
    80002968:	0001                	nop
    8000296a:	70a2                	ld	ra,40(sp)
    8000296c:	7402                	ld	s0,32(sp)
    8000296e:	6145                	addi	sp,sp,48
    80002970:	8082                	ret

0000000080002972 <busy_ticks>:
    80002972:	1101                	addi	sp,sp,-32
    80002974:	ec22                	sd	s0,24(sp)
    80002976:	1000                	addi	s0,sp,32
    80002978:	fea43423          	sd	a0,-24(s0)
    8000297c:	a011                	j	80002980 <busy_ticks+0xe>
    8000297e:	0001                	nop
    80002980:	fe843783          	ld	a5,-24(s0)
    80002984:	fff78713          	addi	a4,a5,-1
    80002988:	fee43423          	sd	a4,-24(s0)
    8000298c:	fbed                	bnez	a5,8000297e <busy_ticks+0xc>
    8000298e:	0001                	nop
    80002990:	0001                	nop
    80002992:	6462                	ld	s0,24(sp)
    80002994:	6105                	addi	sp,sp,32
    80002996:	8082                	ret

0000000080002998 <trigger_sensor>:
    80002998:	1101                	addi	sp,sp,-32
    8000299a:	ec06                	sd	ra,24(sp)
    8000299c:	e822                	sd	s0,16(sp)
    8000299e:	1000                	addi	s0,sp,32
    800029a0:	87aa                	mv	a5,a0
    800029a2:	fef42623          	sw	a5,-20(s0)
    800029a6:	fec42783          	lw	a5,-20(s0)
    800029aa:	853e                	mv	a0,a5
    800029ac:	f79ff0ef          	jal	80002924 <gpio_clr>
    800029b0:	06400593          	li	a1,100
    800029b4:	06400513          	li	a0,100
    800029b8:	df1fe0ef          	jal	800017a8 <delay_loop>
    800029bc:	fec42783          	lw	a5,-20(s0)
    800029c0:	853e                	mv	a0,a5
    800029c2:	f19ff0ef          	jal	800028da <gpio_set>
    800029c6:	45a9                	li	a1,10
    800029c8:	4529                	li	a0,10
    800029ca:	ddffe0ef          	jal	800017a8 <delay_loop>
    800029ce:	fec42783          	lw	a5,-20(s0)
    800029d2:	853e                	mv	a0,a5
    800029d4:	f51ff0ef          	jal	80002924 <gpio_clr>
    800029d8:	0001                	nop
    800029da:	60e2                	ld	ra,24(sp)
    800029dc:	6442                	ld	s0,16(sp)
    800029de:	6105                	addi	sp,sp,32
    800029e0:	8082                	ret

00000000800029e2 <measure_echo_us>:
    800029e2:	715d                	addi	sp,sp,-80
    800029e4:	e486                	sd	ra,72(sp)
    800029e6:	e0a2                	sd	s0,64(sp)
    800029e8:	0880                	addi	s0,sp,80
    800029ea:	87aa                	mv	a5,a0
    800029ec:	faf42e23          	sw	a5,-68(s0)
    800029f0:	ed1ff0ef          	jal	800028c0 <rdcycle>
    800029f4:	872a                	mv	a4,a0
    800029f6:	0016e7b7          	lui	a5,0x16e
    800029fa:	36078793          	addi	a5,a5,864 # 16e360 <_tbss_end+0x16e360>
    800029fe:	97ba                	add	a5,a5,a4
    80002a00:	fef43423          	sd	a5,-24(s0)
    80002a04:	0016e7b7          	lui	a5,0x16e
    80002a08:	36078793          	addi	a5,a5,864 # 16e360 <_tbss_end+0x16e360>
    80002a0c:	fef43023          	sd	a5,-32(s0)
    80002a10:	a811                	j	80002a24 <measure_echo_us+0x42>
    80002a12:	eafff0ef          	jal	800028c0 <rdcycle>
    80002a16:	872a                	mv	a4,a0
    80002a18:	fe843783          	ld	a5,-24(s0)
    80002a1c:	00e7f463          	bgeu	a5,a4,80002a24 <measure_echo_us+0x42>
    80002a20:	4781                	li	a5,0
    80002a22:	a85d                	j	80002ad8 <measure_echo_us+0xf6>
    80002a24:	000407b7          	lui	a5,0x40
    80002a28:	10878513          	addi	a0,a5,264 # 40108 <_tbss_end+0x40108>
    80002a2c:	dc5fe0ef          	jal	800017f0 <read_word>
    80002a30:	872a                	mv	a4,a0
    80002a32:	fbc46783          	lwu	a5,-68(s0)
    80002a36:	8ff9                	and	a5,a5,a4
    80002a38:	ffe9                	bnez	a5,80002a12 <measure_echo_us+0x30>
    80002a3a:	a811                	j	80002a4e <measure_echo_us+0x6c>
    80002a3c:	e85ff0ef          	jal	800028c0 <rdcycle>
    80002a40:	872a                	mv	a4,a0
    80002a42:	fe843783          	ld	a5,-24(s0)
    80002a46:	00e7f463          	bgeu	a5,a4,80002a4e <measure_echo_us+0x6c>
    80002a4a:	4781                	li	a5,0
    80002a4c:	a071                	j	80002ad8 <measure_echo_us+0xf6>
    80002a4e:	000407b7          	lui	a5,0x40
    80002a52:	10878513          	addi	a0,a5,264 # 40108 <_tbss_end+0x40108>
    80002a56:	d9bfe0ef          	jal	800017f0 <read_word>
    80002a5a:	872a                	mv	a4,a0
    80002a5c:	fbc46783          	lwu	a5,-68(s0)
    80002a60:	8ff9                	and	a5,a5,a4
    80002a62:	dfe9                	beqz	a5,80002a3c <measure_echo_us+0x5a>
    80002a64:	e5dff0ef          	jal	800028c0 <rdcycle>
    80002a68:	fca43c23          	sd	a0,-40(s0)
    80002a6c:	fd843703          	ld	a4,-40(s0)
    80002a70:	fe043783          	ld	a5,-32(s0)
    80002a74:	97ba                	add	a5,a5,a4
    80002a76:	fcf43823          	sd	a5,-48(s0)
    80002a7a:	a821                	j	80002a92 <measure_echo_us+0xb0>
    80002a7c:	e45ff0ef          	jal	800028c0 <rdcycle>
    80002a80:	872a                	mv	a4,a0
    80002a82:	fd043783          	ld	a5,-48(s0)
    80002a86:	00e7f663          	bgeu	a5,a4,80002a92 <measure_echo_us+0xb0>
    80002a8a:	679d                	lui	a5,0x7
    80002a8c:	53078793          	addi	a5,a5,1328 # 7530 <_tbss_end+0x7530>
    80002a90:	a0a1                	j	80002ad8 <measure_echo_us+0xf6>
    80002a92:	000407b7          	lui	a5,0x40
    80002a96:	10878513          	addi	a0,a5,264 # 40108 <_tbss_end+0x40108>
    80002a9a:	d57fe0ef          	jal	800017f0 <read_word>
    80002a9e:	872a                	mv	a4,a0
    80002aa0:	fbc46783          	lwu	a5,-68(s0)
    80002aa4:	8ff9                	and	a5,a5,a4
    80002aa6:	fbf9                	bnez	a5,80002a7c <measure_echo_us+0x9a>
    80002aa8:	e19ff0ef          	jal	800028c0 <rdcycle>
    80002aac:	872a                	mv	a4,a0
    80002aae:	fd843783          	ld	a5,-40(s0)
    80002ab2:	40f707b3          	sub	a5,a4,a5
    80002ab6:	fcf43423          	sd	a5,-56(s0)
    80002aba:	fc843703          	ld	a4,-56(s0)
    80002abe:	000f47b7          	lui	a5,0xf4
    80002ac2:	24078793          	addi	a5,a5,576 # f4240 <_tbss_end+0xf4240>
    80002ac6:	02f70733          	mul	a4,a4,a5
    80002aca:	02faf7b7          	lui	a5,0x2faf
    80002ace:	08078793          	addi	a5,a5,128 # 2faf080 <_tbss_end+0x2faf080>
    80002ad2:	02f757b3          	divu	a5,a4,a5
    80002ad6:	2781                	sext.w	a5,a5
    80002ad8:	853e                	mv	a0,a5
    80002ada:	60a6                	ld	ra,72(sp)
    80002adc:	6406                	ld	s0,64(sp)
    80002ade:	6161                	addi	sp,sp,80
    80002ae0:	8082                	ret

0000000080002ae2 <us_to_tenths_cm>:
    80002ae2:	1101                	addi	sp,sp,-32
    80002ae4:	ec22                	sd	s0,24(sp)
    80002ae6:	1000                	addi	s0,sp,32
    80002ae8:	87aa                	mv	a5,a0
    80002aea:	fef42623          	sw	a5,-20(s0)
    80002aee:	fec42783          	lw	a5,-20(s0)
    80002af2:	873e                	mv	a4,a5
    80002af4:	15700793          	li	a5,343
    80002af8:	02f707bb          	mulw	a5,a4,a5
    80002afc:	2781                	sext.w	a5,a5
    80002afe:	873e                	mv	a4,a5
    80002b00:	0c800793          	li	a5,200
    80002b04:	02f757bb          	divuw	a5,a4,a5
    80002b08:	2781                	sext.w	a5,a5
    80002b0a:	853e                	mv	a0,a5
    80002b0c:	6462                	ld	s0,24(sp)
    80002b0e:	6105                	addi	sp,sp,32
    80002b10:	8082                	ret

0000000080002b12 <en_high>:
    80002b12:	1141                	addi	sp,sp,-16
    80002b14:	e406                	sd	ra,8(sp)
    80002b16:	e022                	sd	s0,0(sp)
    80002b18:	0800                	addi	s0,sp,16
    80002b1a:	6505                	lui	a0,0x1
    80002b1c:	dbfff0ef          	jal	800028da <gpio_set>
    80002b20:	6509                	lui	a0,0x2
    80002b22:	db9ff0ef          	jal	800028da <gpio_set>
    80002b26:	0001                	nop
    80002b28:	60a2                	ld	ra,8(sp)
    80002b2a:	6402                	ld	s0,0(sp)
    80002b2c:	0141                	addi	sp,sp,16
    80002b2e:	8082                	ret

0000000080002b30 <motors_stop>:
    80002b30:	1101                	addi	sp,sp,-32
    80002b32:	ec06                	sd	ra,24(sp)
    80002b34:	e822                	sd	s0,16(sp)
    80002b36:	1000                	addi	s0,sp,32
    80002b38:	000407b7          	lui	a5,0x40
    80002b3c:	10878513          	addi	a0,a5,264 # 40108 <_tbss_end+0x40108>
    80002b40:	cb1fe0ef          	jal	800017f0 <read_word>
    80002b44:	87aa                	mv	a5,a0
    80002b46:	fef42623          	sw	a5,-20(s0)
    80002b4a:	fec42783          	lw	a5,-20(s0)
    80002b4e:	87f7f793          	andi	a5,a5,-1921
    80002b52:	fef42623          	sw	a5,-20(s0)
    80002b56:	fec46783          	lwu	a5,-20(s0)
    80002b5a:	85be                	mv	a1,a5
    80002b5c:	000407b7          	lui	a5,0x40
    80002b60:	10878513          	addi	a0,a5,264 # 40108 <_tbss_end+0x40108>
    80002b64:	cc5fe0ef          	jal	80001828 <write_word>
    80002b68:	0001                	nop
    80002b6a:	60e2                	ld	ra,24(sp)
    80002b6c:	6442                	ld	s0,16(sp)
    80002b6e:	6105                	addi	sp,sp,32
    80002b70:	8082                	ret

0000000080002b72 <motors_forward>:
    80002b72:	1101                	addi	sp,sp,-32
    80002b74:	ec06                	sd	ra,24(sp)
    80002b76:	e822                	sd	s0,16(sp)
    80002b78:	1000                	addi	s0,sp,32
    80002b7a:	f99ff0ef          	jal	80002b12 <en_high>
    80002b7e:	000407b7          	lui	a5,0x40
    80002b82:	10878513          	addi	a0,a5,264 # 40108 <_tbss_end+0x40108>
    80002b86:	c6bfe0ef          	jal	800017f0 <read_word>
    80002b8a:	87aa                	mv	a5,a0
    80002b8c:	fef42623          	sw	a5,-20(s0)
    80002b90:	fec42783          	lw	a5,-20(s0)
    80002b94:	aff7f793          	andi	a5,a5,-1281
    80002b98:	fef42623          	sw	a5,-20(s0)
    80002b9c:	fec42783          	lw	a5,-20(s0)
    80002ba0:	2807e793          	ori	a5,a5,640
    80002ba4:	fef42623          	sw	a5,-20(s0)
    80002ba8:	fec46783          	lwu	a5,-20(s0)
    80002bac:	85be                	mv	a1,a5
    80002bae:	000407b7          	lui	a5,0x40
    80002bb2:	10878513          	addi	a0,a5,264 # 40108 <_tbss_end+0x40108>
    80002bb6:	c73fe0ef          	jal	80001828 <write_word>
    80002bba:	0001                	nop
    80002bbc:	60e2                	ld	ra,24(sp)
    80002bbe:	6442                	ld	s0,16(sp)
    80002bc0:	6105                	addi	sp,sp,32
    80002bc2:	8082                	ret

0000000080002bc4 <motors_turn_left>:
    80002bc4:	1101                	addi	sp,sp,-32
    80002bc6:	ec06                	sd	ra,24(sp)
    80002bc8:	e822                	sd	s0,16(sp)
    80002bca:	1000                	addi	s0,sp,32
    80002bcc:	f47ff0ef          	jal	80002b12 <en_high>
    80002bd0:	000407b7          	lui	a5,0x40
    80002bd4:	10878513          	addi	a0,a5,264 # 40108 <_tbss_end+0x40108>
    80002bd8:	c19fe0ef          	jal	800017f0 <read_word>
    80002bdc:	87aa                	mv	a5,a0
    80002bde:	fef42623          	sw	a5,-20(s0)
    80002be2:	fec42783          	lw	a5,-20(s0)
    80002be6:	a7f7f793          	andi	a5,a5,-1409
    80002bea:	fef42623          	sw	a5,-20(s0)
    80002bee:	fec42783          	lw	a5,-20(s0)
    80002bf2:	2007e793          	ori	a5,a5,512
    80002bf6:	fef42623          	sw	a5,-20(s0)
    80002bfa:	fec46783          	lwu	a5,-20(s0)
    80002bfe:	85be                	mv	a1,a5
    80002c00:	000407b7          	lui	a5,0x40
    80002c04:	10878513          	addi	a0,a5,264 # 40108 <_tbss_end+0x40108>
    80002c08:	c21fe0ef          	jal	80001828 <write_word>
    80002c0c:	0001                	nop
    80002c0e:	60e2                	ld	ra,24(sp)
    80002c10:	6442                	ld	s0,16(sp)
    80002c12:	6105                	addi	sp,sp,32
    80002c14:	8082                	ret

0000000080002c16 <motors_turn_right>:
    80002c16:	1101                	addi	sp,sp,-32
    80002c18:	ec06                	sd	ra,24(sp)
    80002c1a:	e822                	sd	s0,16(sp)
    80002c1c:	1000                	addi	s0,sp,32
    80002c1e:	ef5ff0ef          	jal	80002b12 <en_high>
    80002c22:	000407b7          	lui	a5,0x40
    80002c26:	10878513          	addi	a0,a5,264 # 40108 <_tbss_end+0x40108>
    80002c2a:	bc7fe0ef          	jal	800017f0 <read_word>
    80002c2e:	87aa                	mv	a5,a0
    80002c30:	fef42623          	sw	a5,-20(s0)
    80002c34:	fec42783          	lw	a5,-20(s0)
    80002c38:	8ff7f793          	andi	a5,a5,-1793
    80002c3c:	fef42623          	sw	a5,-20(s0)
    80002c40:	fec42783          	lw	a5,-20(s0)
    80002c44:	0807e793          	ori	a5,a5,128
    80002c48:	fef42623          	sw	a5,-20(s0)
    80002c4c:	fec46783          	lwu	a5,-20(s0)
    80002c50:	85be                	mv	a1,a5
    80002c52:	000407b7          	lui	a5,0x40
    80002c56:	10878513          	addi	a0,a5,264 # 40108 <_tbss_end+0x40108>
    80002c5a:	bcffe0ef          	jal	80001828 <write_word>
    80002c5e:	0001                	nop
    80002c60:	60e2                	ld	ra,24(sp)
    80002c62:	6442                	ld	s0,16(sp)
    80002c64:	6105                	addi	sp,sp,32
    80002c66:	8082                	ret

0000000080002c68 <buzzer_beep_blocking>:
    80002c68:	1141                	addi	sp,sp,-16
    80002c6a:	e406                	sd	ra,8(sp)
    80002c6c:	e022                	sd	s0,0(sp)
    80002c6e:	0800                	addi	s0,sp,16
    80002c70:	4505                	li	a0,1
    80002c72:	c69ff0ef          	jal	800028da <gpio_set>
    80002c76:	67b1                	lui	a5,0xc
    80002c78:	35078513          	addi	a0,a5,848 # c350 <_tbss_end+0xc350>
    80002c7c:	cf7ff0ef          	jal	80002972 <busy_ticks>
    80002c80:	4505                	li	a0,1
    80002c82:	ca3ff0ef          	jal	80002924 <gpio_clr>
    80002c86:	67b1                	lui	a5,0xc
    80002c88:	35078513          	addi	a0,a5,848 # c350 <_tbss_end+0xc350>
    80002c8c:	ce7ff0ef          	jal	80002972 <busy_ticks>
    80002c90:	b7c5                	j	80002c70 <buzzer_beep_blocking+0x8>

0000000080002c92 <main>:
    80002c92:	7179                	addi	sp,sp,-48
    80002c94:	f406                	sd	ra,40(sp)
    80002c96:	f022                	sd	s0,32(sp)
    80002c98:	1800                	addi	s0,sp,48
    80002c9a:	678d                	lui	a5,0x3
    80002c9c:	7ab78793          	addi	a5,a5,1963 # 37ab <_tbss_end+0x37ab>
    80002ca0:	fef42623          	sw	a5,-20(s0)
    80002ca4:	fec46783          	lwu	a5,-20(s0)
    80002ca8:	85be                	mv	a1,a5
    80002caa:	000407b7          	lui	a5,0x40
    80002cae:	10078513          	addi	a0,a5,256 # 40100 <_tbss_end+0x40100>
    80002cb2:	b77fe0ef          	jal	80001828 <write_word>
    80002cb6:	e7bff0ef          	jal	80002b30 <motors_stop>
    80002cba:	4505                	li	a0,1
    80002cbc:	c69ff0ef          	jal	80002924 <gpio_clr>
    80002cc0:	e53ff0ef          	jal	80002b12 <en_high>
    80002cc4:	eafff0ef          	jal	80002b72 <motors_forward>
    80002cc8:	4509                	li	a0,2
    80002cca:	ccfff0ef          	jal	80002998 <trigger_sensor>
    80002cce:	4511                	li	a0,4
    80002cd0:	d13ff0ef          	jal	800029e2 <measure_echo_us>
    80002cd4:	87aa                	mv	a5,a0
    80002cd6:	fef42423          	sw	a5,-24(s0)
    80002cda:	fe842783          	lw	a5,-24(s0)
    80002cde:	2781                	sext.w	a5,a5
    80002ce0:	cb89                	beqz	a5,80002cf2 <main+0x60>
    80002ce2:	fe842783          	lw	a5,-24(s0)
    80002ce6:	853e                	mv	a0,a5
    80002ce8:	dfbff0ef          	jal	80002ae2 <us_to_tenths_cm>
    80002cec:	87aa                	mv	a5,a0
    80002cee:	2781                	sext.w	a5,a5
    80002cf0:	a011                	j	80002cf4 <main+0x62>
    80002cf2:	4781                	li	a5,0
    80002cf4:	fef42223          	sw	a5,-28(s0)
    80002cf8:	fe442783          	lw	a5,-28(s0)
    80002cfc:	873e                	mv	a4,a5
    80002cfe:	47a9                	li	a5,10
    80002d00:	02f757bb          	divuw	a5,a4,a5
    80002d04:	0007871b          	sext.w	a4,a5
    80002d08:	fe442783          	lw	a5,-28(s0)
    80002d0c:	86be                	mv	a3,a5
    80002d0e:	47a9                	li	a5,10
    80002d10:	02f6f7bb          	remuw	a5,a3,a5
    80002d14:	0007869b          	sext.w	a3,a5
    80002d18:	fe842783          	lw	a5,-24(s0)
    80002d1c:	863a                	mv	a2,a4
    80002d1e:	85be                	mv	a1,a5
    80002d20:	00002517          	auipc	a0,0x2
    80002d24:	db850513          	addi	a0,a0,-584 # 80004ad8 <__rodata_start+0xe30>
    80002d28:	ba1fd0ef          	jal	800008c8 <printf>
    80002d2c:	fe842783          	lw	a5,-24(s0)
    80002d30:	2781                	sext.w	a5,a5
    80002d32:	1c078d63          	beqz	a5,80002f0c <main+0x27a>
    80002d36:	fe442783          	lw	a5,-28(s0)
    80002d3a:	0007871b          	sext.w	a4,a5
    80002d3e:	3e800793          	li	a5,1000
    80002d42:	1ce7e563          	bltu	a5,a4,80002f0c <main+0x27a>
    80002d46:	debff0ef          	jal	80002b30 <motors_stop>
    80002d4a:	00002517          	auipc	a0,0x2
    80002d4e:	dae50513          	addi	a0,a0,-594 # 80004af8 <__rodata_start+0xe50>
    80002d52:	b77fd0ef          	jal	800008c8 <printf>
    80002d56:	3e800593          	li	a1,1000
    80002d5a:	3e800513          	li	a0,1000
    80002d5e:	a4bfe0ef          	jal	800017a8 <delay_loop>
    80002d62:	4521                	li	a0,8
    80002d64:	c35ff0ef          	jal	80002998 <trigger_sensor>
    80002d68:	4541                	li	a0,16
    80002d6a:	c79ff0ef          	jal	800029e2 <measure_echo_us>
    80002d6e:	87aa                	mv	a5,a0
    80002d70:	fef42023          	sw	a5,-32(s0)
    80002d74:	fe042783          	lw	a5,-32(s0)
    80002d78:	2781                	sext.w	a5,a5
    80002d7a:	cb89                	beqz	a5,80002d8c <main+0xfa>
    80002d7c:	fe042783          	lw	a5,-32(s0)
    80002d80:	853e                	mv	a0,a5
    80002d82:	d61ff0ef          	jal	80002ae2 <us_to_tenths_cm>
    80002d86:	87aa                	mv	a5,a0
    80002d88:	2781                	sext.w	a5,a5
    80002d8a:	a011                	j	80002d8e <main+0xfc>
    80002d8c:	4781                	li	a5,0
    80002d8e:	fcf42e23          	sw	a5,-36(s0)
    80002d92:	fdc42783          	lw	a5,-36(s0)
    80002d96:	873e                	mv	a4,a5
    80002d98:	47a9                	li	a5,10
    80002d9a:	02f757bb          	divuw	a5,a4,a5
    80002d9e:	0007871b          	sext.w	a4,a5
    80002da2:	fdc42783          	lw	a5,-36(s0)
    80002da6:	86be                	mv	a3,a5
    80002da8:	47a9                	li	a5,10
    80002daa:	02f6f7bb          	remuw	a5,a3,a5
    80002dae:	0007869b          	sext.w	a3,a5
    80002db2:	fe042783          	lw	a5,-32(s0)
    80002db6:	863a                	mv	a2,a4
    80002db8:	85be                	mv	a1,a5
    80002dba:	00002517          	auipc	a0,0x2
    80002dbe:	d6650513          	addi	a0,a0,-666 # 80004b20 <__rodata_start+0xe78>
    80002dc2:	b07fd0ef          	jal	800008c8 <printf>
    80002dc6:	3e800593          	li	a1,1000
    80002dca:	3e800513          	li	a0,1000
    80002dce:	9dbfe0ef          	jal	800017a8 <delay_loop>
    80002dd2:	02000513          	li	a0,32
    80002dd6:	bc3ff0ef          	jal	80002998 <trigger_sensor>
    80002dda:	04000513          	li	a0,64
    80002dde:	c05ff0ef          	jal	800029e2 <measure_echo_us>
    80002de2:	87aa                	mv	a5,a0
    80002de4:	fcf42c23          	sw	a5,-40(s0)
    80002de8:	fd842783          	lw	a5,-40(s0)
    80002dec:	2781                	sext.w	a5,a5
    80002dee:	cb89                	beqz	a5,80002e00 <main+0x16e>
    80002df0:	fd842783          	lw	a5,-40(s0)
    80002df4:	853e                	mv	a0,a5
    80002df6:	cedff0ef          	jal	80002ae2 <us_to_tenths_cm>
    80002dfa:	87aa                	mv	a5,a0
    80002dfc:	2781                	sext.w	a5,a5
    80002dfe:	a011                	j	80002e02 <main+0x170>
    80002e00:	4781                	li	a5,0
    80002e02:	fcf42a23          	sw	a5,-44(s0)
    80002e06:	fd442783          	lw	a5,-44(s0)
    80002e0a:	873e                	mv	a4,a5
    80002e0c:	47a9                	li	a5,10
    80002e0e:	02f757bb          	divuw	a5,a4,a5
    80002e12:	0007871b          	sext.w	a4,a5
    80002e16:	fd442783          	lw	a5,-44(s0)
    80002e1a:	86be                	mv	a3,a5
    80002e1c:	47a9                	li	a5,10
    80002e1e:	02f6f7bb          	remuw	a5,a3,a5
    80002e22:	0007869b          	sext.w	a3,a5
    80002e26:	fd842783          	lw	a5,-40(s0)
    80002e2a:	863a                	mv	a2,a4
    80002e2c:	85be                	mv	a1,a5
    80002e2e:	00002517          	auipc	a0,0x2
    80002e32:	d1250513          	addi	a0,a0,-750 # 80004b40 <__rodata_start+0xe98>
    80002e36:	a93fd0ef          	jal	800008c8 <printf>
    80002e3a:	fe042783          	lw	a5,-32(s0)
    80002e3e:	2781                	sext.w	a5,a5
    80002e40:	cb99                	beqz	a5,80002e56 <main+0x1c4>
    80002e42:	fdc42783          	lw	a5,-36(s0)
    80002e46:	0007871b          	sext.w	a4,a5
    80002e4a:	3e800793          	li	a5,1000
    80002e4e:	00e7f463          	bgeu	a5,a4,80002e56 <main+0x1c4>
    80002e52:	4785                	li	a5,1
    80002e54:	a011                	j	80002e58 <main+0x1c6>
    80002e56:	4781                	li	a5,0
    80002e58:	fcf409a3          	sb	a5,-45(s0)
    80002e5c:	fd842783          	lw	a5,-40(s0)
    80002e60:	2781                	sext.w	a5,a5
    80002e62:	cb99                	beqz	a5,80002e78 <main+0x1e6>
    80002e64:	fd442783          	lw	a5,-44(s0)
    80002e68:	0007871b          	sext.w	a4,a5
    80002e6c:	3e800793          	li	a5,1000
    80002e70:	00e7f463          	bgeu	a5,a4,80002e78 <main+0x1e6>
    80002e74:	4785                	li	a5,1
    80002e76:	a011                	j	80002e7a <main+0x1e8>
    80002e78:	4781                	li	a5,0
    80002e7a:	fcf40923          	sb	a5,-46(s0)
    80002e7e:	fd344783          	lbu	a5,-45(s0)
    80002e82:	0ff7f793          	zext.b	a5,a5
    80002e86:	e791                	bnez	a5,80002e92 <main+0x200>
    80002e88:	fd244783          	lbu	a5,-46(s0)
    80002e8c:	0ff7f793          	zext.b	a5,a5
    80002e90:	c7a5                	beqz	a5,80002ef8 <main+0x266>
    80002e92:	fd344783          	lbu	a5,-45(s0)
    80002e96:	0ff7f793          	zext.b	a5,a5
    80002e9a:	cb85                	beqz	a5,80002eca <main+0x238>
    80002e9c:	fd244783          	lbu	a5,-46(s0)
    80002ea0:	0ff7f793          	zext.b	a5,a5
    80002ea4:	cb91                	beqz	a5,80002eb8 <main+0x226>
    80002ea6:	fdc42783          	lw	a5,-36(s0)
    80002eaa:	873e                	mv	a4,a5
    80002eac:	fd442783          	lw	a5,-44(s0)
    80002eb0:	2701                	sext.w	a4,a4
    80002eb2:	2781                	sext.w	a5,a5
    80002eb4:	00f76b63          	bltu	a4,a5,80002eca <main+0x238>
    80002eb8:	00002517          	auipc	a0,0x2
    80002ebc:	ca850513          	addi	a0,a0,-856 # 80004b60 <__rodata_start+0xeb8>
    80002ec0:	a09fd0ef          	jal	800008c8 <printf>
    80002ec4:	d01ff0ef          	jal	80002bc4 <motors_turn_left>
    80002ec8:	a809                	j	80002eda <main+0x248>
    80002eca:	00002517          	auipc	a0,0x2
    80002ece:	ca650513          	addi	a0,a0,-858 # 80004b70 <__rodata_start+0xec8>
    80002ed2:	9f7fd0ef          	jal	800008c8 <printf>
    80002ed6:	d41ff0ef          	jal	80002c16 <motors_turn_right>
    80002eda:	3e800593          	li	a1,1000
    80002ede:	3e800513          	li	a0,1000
    80002ee2:	8c7fe0ef          	jal	800017a8 <delay_loop>
    80002ee6:	c4bff0ef          	jal	80002b30 <motors_stop>
    80002eea:	3e800593          	li	a1,1000
    80002eee:	3e800513          	li	a0,1000
    80002ef2:	8b7fe0ef          	jal	800017a8 <delay_loop>
    80002ef6:	a819                	j	80002f0c <main+0x27a>
    80002ef8:	00002517          	auipc	a0,0x2
    80002efc:	c8850513          	addi	a0,a0,-888 # 80004b80 <__rodata_start+0xed8>
    80002f00:	9c9fd0ef          	jal	800008c8 <printf>
    80002f04:	c2dff0ef          	jal	80002b30 <motors_stop>
    80002f08:	d61ff0ef          	jal	80002c68 <buzzer_beep_blocking>
    80002f0c:	3e800593          	li	a1,1000
    80002f10:	3e800513          	li	a0,1000
    80002f14:	895fe0ef          	jal	800017a8 <delay_loop>
    80002f18:	b375                	j	80002cc4 <main+0x32>

0000000080002f1a <__adddf3>:
    80002f1a:	56fd                	li	a3,-1
    80002f1c:	1101                	addi	sp,sp,-32
    80002f1e:	82b1                	srli	a3,a3,0xc
    80002f20:	0345d613          	srli	a2,a1,0x34
    80002f24:	03455713          	srli	a4,a0,0x34
    80002f28:	00a6f833          	and	a6,a3,a0
    80002f2c:	e822                	sd	s0,16(sp)
    80002f2e:	8eed                	and	a3,a3,a1
    80002f30:	e04a                	sd	s2,0(sp)
    80002f32:	7ff67613          	andi	a2,a2,2047
    80002f36:	7ff77913          	andi	s2,a4,2047
    80002f3a:	ec06                	sd	ra,24(sp)
    80002f3c:	e426                	sd	s1,8(sp)
    80002f3e:	03f55413          	srli	s0,a0,0x3f
    80002f42:	91fd                	srli	a1,a1,0x3f
    80002f44:	00369793          	slli	a5,a3,0x3
    80002f48:	080e                	slli	a6,a6,0x3
    80002f4a:	40c906bb          	subw	a3,s2,a2
    80002f4e:	12b41c63          	bne	s0,a1,80003086 <__adddf3+0x16c>
    80002f52:	0006859b          	sext.w	a1,a3
    80002f56:	06b05a63          	blez	a1,80002fca <__adddf3+0xb0>
    80002f5a:	ee1d                	bnez	a2,80002f98 <__adddf3+0x7e>
    80002f5c:	cf85                	beqz	a5,80002f94 <__adddf3+0x7a>
    80002f5e:	fff6859b          	addiw	a1,a3,-1
    80002f62:	e58d                	bnez	a1,80002f8c <__adddf3+0x72>
    80002f64:	97c2                	add	a5,a5,a6
    80002f66:	00879713          	slli	a4,a5,0x8
    80002f6a:	0e075263          	bgez	a4,8000304e <__adddf3+0x134>
    80002f6e:	0905                	addi	s2,s2,1
    80002f70:	7ff00713          	li	a4,2047
    80002f74:	2ce90563          	beq	s2,a4,8000323e <__adddf3+0x324>
    80002f78:	1ff00713          	li	a4,511
    80002f7c:	175a                	slli	a4,a4,0x36
    80002f7e:	0017f693          	andi	a3,a5,1
    80002f82:	177d                	addi	a4,a4,-1
    80002f84:	8385                	srli	a5,a5,0x1
    80002f86:	8ff9                	and	a5,a5,a4
    80002f88:	8fd5                	or	a5,a5,a3
    80002f8a:	a0d1                	j	8000304e <__adddf3+0x134>
    80002f8c:	7ff00713          	li	a4,2047
    80002f90:	00e91b63          	bne	s2,a4,80002fa6 <__adddf3+0x8c>
    80002f94:	87c2                	mv	a5,a6
    80002f96:	a865                	j	8000304e <__adddf3+0x134>
    80002f98:	7ff00713          	li	a4,2047
    80002f9c:	fee90ce3          	beq	s2,a4,80002f94 <__adddf3+0x7a>
    80002fa0:	4705                	li	a4,1
    80002fa2:	175e                	slli	a4,a4,0x37
    80002fa4:	8fd9                	or	a5,a5,a4
    80002fa6:	03800693          	li	a3,56
    80002faa:	4705                	li	a4,1
    80002fac:	00b6cc63          	blt	a3,a1,80002fc4 <__adddf3+0xaa>
    80002fb0:	04000693          	li	a3,64
    80002fb4:	9e8d                	subw	a3,a3,a1
    80002fb6:	00d796b3          	sll	a3,a5,a3
    80002fba:	00b7d733          	srl	a4,a5,a1
    80002fbe:	00d036b3          	snez	a3,a3
    80002fc2:	8f55                	or	a4,a4,a3
    80002fc4:	010707b3          	add	a5,a4,a6
    80002fc8:	bf79                	j	80002f66 <__adddf3+0x4c>
    80002fca:	cdb1                	beqz	a1,80003026 <__adddf3+0x10c>
    80002fcc:	02091263          	bnez	s2,80002ff0 <__adddf3+0xd6>
    80002fd0:	26080363          	beqz	a6,80003236 <__adddf3+0x31c>
    80002fd4:	fff6c693          	not	a3,a3
    80002fd8:	2681                	sext.w	a3,a3
    80002fda:	e681                	bnez	a3,80002fe2 <__adddf3+0xc8>
    80002fdc:	97c2                	add	a5,a5,a6
    80002fde:	8932                	mv	s2,a2
    80002fe0:	b759                	j	80002f66 <__adddf3+0x4c>
    80002fe2:	7ff00713          	li	a4,2047
    80002fe6:	00e61f63          	bne	a2,a4,80003004 <__adddf3+0xea>
    80002fea:	7ff00913          	li	s2,2047
    80002fee:	a085                	j	8000304e <__adddf3+0x134>
    80002ff0:	7ff00713          	li	a4,2047
    80002ff4:	fee60be3          	beq	a2,a4,80002fea <__adddf3+0xd0>
    80002ff8:	4705                	li	a4,1
    80002ffa:	175e                	slli	a4,a4,0x37
    80002ffc:	40d006bb          	negw	a3,a3
    80003000:	00e86833          	or	a6,a6,a4
    80003004:	03800593          	li	a1,56
    80003008:	4705                	li	a4,1
    8000300a:	00d5cc63          	blt	a1,a3,80003022 <__adddf3+0x108>
    8000300e:	04000713          	li	a4,64
    80003012:	9f15                	subw	a4,a4,a3
    80003014:	00e81733          	sll	a4,a6,a4
    80003018:	00d855b3          	srl	a1,a6,a3
    8000301c:	00e03733          	snez	a4,a4
    80003020:	8f4d                	or	a4,a4,a1
    80003022:	97ba                	add	a5,a5,a4
    80003024:	bf6d                	j	80002fde <__adddf3+0xc4>
    80003026:	00190713          	addi	a4,s2,1
    8000302a:	7fe77693          	andi	a3,a4,2046
    8000302e:	e6a1                	bnez	a3,80003076 <__adddf3+0x15c>
    80003030:	02091a63          	bnez	s2,80003064 <__adddf3+0x14a>
    80003034:	00080d63          	beqz	a6,8000304e <__adddf3+0x134>
    80003038:	dfb1                	beqz	a5,80002f94 <__adddf3+0x7a>
    8000303a:	97c2                	add	a5,a5,a6
    8000303c:	00879713          	slli	a4,a5,0x8
    80003040:	00075763          	bgez	a4,8000304e <__adddf3+0x134>
    80003044:	577d                	li	a4,-1
    80003046:	175e                	slli	a4,a4,0x37
    80003048:	177d                	addi	a4,a4,-1
    8000304a:	8ff9                	and	a5,a5,a4
    8000304c:	4905                	li	s2,1
    8000304e:	0077f713          	andi	a4,a5,7
    80003052:	12070e63          	beqz	a4,8000318e <__adddf3+0x274>
    80003056:	00f7f713          	andi	a4,a5,15
    8000305a:	4691                	li	a3,4
    8000305c:	12d70963          	beq	a4,a3,8000318e <__adddf3+0x274>
    80003060:	0791                	addi	a5,a5,4
    80003062:	a235                	j	8000318e <__adddf3+0x274>
    80003064:	f80803e3          	beqz	a6,80002fea <__adddf3+0xd0>
    80003068:	1e078263          	beqz	a5,8000324c <__adddf3+0x332>
    8000306c:	4785                	li	a5,1
    8000306e:	17da                	slli	a5,a5,0x36
    80003070:	7ff00913          	li	s2,2047
    80003074:	a0e5                	j	8000315c <__adddf3+0x242>
    80003076:	7ff00693          	li	a3,2047
    8000307a:	1cd70063          	beq	a4,a3,8000323a <__adddf3+0x320>
    8000307e:	97c2                	add	a5,a5,a6
    80003080:	8385                	srli	a5,a5,0x1
    80003082:	893a                	mv	s2,a4
    80003084:	b7e9                	j	8000304e <__adddf3+0x134>
    80003086:	0006851b          	sext.w	a0,a3
    8000308a:	04a05f63          	blez	a0,800030e8 <__adddf3+0x1ce>
    8000308e:	e629                	bnez	a2,800030d8 <__adddf3+0x1be>
    80003090:	d391                	beqz	a5,80002f94 <__adddf3+0x7a>
    80003092:	fff6851b          	addiw	a0,a3,-1
    80003096:	e919                	bnez	a0,800030ac <__adddf3+0x192>
    80003098:	40f807b3          	sub	a5,a6,a5
    8000309c:	00879713          	slli	a4,a5,0x8
    800030a0:	fa0757e3          	bgez	a4,8000304e <__adddf3+0x134>
    800030a4:	00979493          	slli	s1,a5,0x9
    800030a8:	80a5                	srli	s1,s1,0x9
    800030aa:	a299                	j	800031f0 <__adddf3+0x2d6>
    800030ac:	7ff00713          	li	a4,2047
    800030b0:	eee902e3          	beq	s2,a4,80002f94 <__adddf3+0x7a>
    800030b4:	03800693          	li	a3,56
    800030b8:	4705                	li	a4,1
    800030ba:	00a6cc63          	blt	a3,a0,800030d2 <__adddf3+0x1b8>
    800030be:	04000693          	li	a3,64
    800030c2:	9e89                	subw	a3,a3,a0
    800030c4:	00d796b3          	sll	a3,a5,a3
    800030c8:	00a7d733          	srl	a4,a5,a0
    800030cc:	00d036b3          	snez	a3,a3
    800030d0:	8f55                	or	a4,a4,a3
    800030d2:	40e807b3          	sub	a5,a6,a4
    800030d6:	b7d9                	j	8000309c <__adddf3+0x182>
    800030d8:	7ff00713          	li	a4,2047
    800030dc:	eae90ce3          	beq	s2,a4,80002f94 <__adddf3+0x7a>
    800030e0:	4705                	li	a4,1
    800030e2:	175e                	slli	a4,a4,0x37
    800030e4:	8fd9                	or	a5,a5,a4
    800030e6:	b7f9                	j	800030b4 <__adddf3+0x19a>
    800030e8:	c125                	beqz	a0,80003148 <__adddf3+0x22e>
    800030ea:	02091463          	bnez	s2,80003112 <__adddf3+0x1f8>
    800030ee:	14080a63          	beqz	a6,80003242 <__adddf3+0x328>
    800030f2:	fff6c693          	not	a3,a3
    800030f6:	2681                	sext.w	a3,a3
    800030f8:	e691                	bnez	a3,80003104 <__adddf3+0x1ea>
    800030fa:	410787b3          	sub	a5,a5,a6
    800030fe:	8932                	mv	s2,a2
    80003100:	842e                	mv	s0,a1
    80003102:	bf69                	j	8000309c <__adddf3+0x182>
    80003104:	7ff00713          	li	a4,2047
    80003108:	00e61f63          	bne	a2,a4,80003126 <__adddf3+0x20c>
    8000310c:	7ff00913          	li	s2,2047
    80003110:	aa15                	j	80003244 <__adddf3+0x32a>
    80003112:	7ff00713          	li	a4,2047
    80003116:	fee60be3          	beq	a2,a4,8000310c <__adddf3+0x1f2>
    8000311a:	4705                	li	a4,1
    8000311c:	175e                	slli	a4,a4,0x37
    8000311e:	40d006bb          	negw	a3,a3
    80003122:	00e86833          	or	a6,a6,a4
    80003126:	03800513          	li	a0,56
    8000312a:	4705                	li	a4,1
    8000312c:	00d54c63          	blt	a0,a3,80003144 <__adddf3+0x22a>
    80003130:	04000713          	li	a4,64
    80003134:	9f15                	subw	a4,a4,a3
    80003136:	00e81733          	sll	a4,a6,a4
    8000313a:	00d85533          	srl	a0,a6,a3
    8000313e:	00e03733          	snez	a4,a4
    80003142:	8f49                	or	a4,a4,a0
    80003144:	8f99                	sub	a5,a5,a4
    80003146:	bf65                	j	800030fe <__adddf3+0x1e4>
    80003148:	00190713          	addi	a4,s2,1
    8000314c:	7fe77713          	andi	a4,a4,2046
    80003150:	e759                	bnez	a4,800031de <__adddf3+0x2c4>
    80003152:	02091663          	bnez	s2,8000317e <__adddf3+0x264>
    80003156:	00081563          	bnez	a6,80003160 <__adddf3+0x246>
    8000315a:	e7ed                	bnez	a5,80003244 <__adddf3+0x32a>
    8000315c:	4401                	li	s0,0
    8000315e:	a805                	j	8000318e <__adddf3+0x274>
    80003160:	e2078ae3          	beqz	a5,80002f94 <__adddf3+0x7a>
    80003164:	40f80733          	sub	a4,a6,a5
    80003168:	00871693          	slli	a3,a4,0x8
    8000316c:	410787b3          	sub	a5,a5,a6
    80003170:	0c06ca63          	bltz	a3,80003244 <__adddf3+0x32a>
    80003174:	87ba                	mv	a5,a4
    80003176:	ec071ce3          	bnez	a4,8000304e <__adddf3+0x134>
    8000317a:	4781                	li	a5,0
    8000317c:	b7c5                	j	8000315c <__adddf3+0x242>
    8000317e:	ee0815e3          	bnez	a6,80003068 <__adddf3+0x14e>
    80003182:	e3f9                	bnez	a5,80003248 <__adddf3+0x32e>
    80003184:	4785                	li	a5,1
    80003186:	4401                	li	s0,0
    80003188:	17da                	slli	a5,a5,0x36
    8000318a:	7ff00913          	li	s2,2047
    8000318e:	00879713          	slli	a4,a5,0x8
    80003192:	00075b63          	bgez	a4,800031a8 <__adddf3+0x28e>
    80003196:	0905                	addi	s2,s2,1
    80003198:	7ff00713          	li	a4,2047
    8000319c:	0ae90a63          	beq	s2,a4,80003250 <__adddf3+0x336>
    800031a0:	577d                	li	a4,-1
    800031a2:	175e                	slli	a4,a4,0x37
    800031a4:	177d                	addi	a4,a4,-1
    800031a6:	8ff9                	and	a5,a5,a4
    800031a8:	7ff00713          	li	a4,2047
    800031ac:	838d                	srli	a5,a5,0x3
    800031ae:	00e91663          	bne	s2,a4,800031ba <__adddf3+0x2a0>
    800031b2:	c781                	beqz	a5,800031ba <__adddf3+0x2a0>
    800031b4:	4785                	li	a5,1
    800031b6:	17ce                	slli	a5,a5,0x33
    800031b8:	4401                	li	s0,0
    800031ba:	7ff00693          	li	a3,2047
    800031be:	60e2                	ld	ra,24(sp)
    800031c0:	03491713          	slli	a4,s2,0x34
    800031c4:	03f41513          	slli	a0,s0,0x3f
    800031c8:	16d2                	slli	a3,a3,0x34
    800031ca:	6442                	ld	s0,16(sp)
    800031cc:	07b2                	slli	a5,a5,0xc
    800031ce:	8f75                	and	a4,a4,a3
    800031d0:	83b1                	srli	a5,a5,0xc
    800031d2:	8fd9                	or	a5,a5,a4
    800031d4:	64a2                	ld	s1,8(sp)
    800031d6:	6902                	ld	s2,0(sp)
    800031d8:	8d5d                	or	a0,a0,a5
    800031da:	6105                	addi	sp,sp,32
    800031dc:	8082                	ret
    800031de:	40f804b3          	sub	s1,a6,a5
    800031e2:	00849713          	slli	a4,s1,0x8
    800031e6:	02075d63          	bgez	a4,80003220 <__adddf3+0x306>
    800031ea:	410784b3          	sub	s1,a5,a6
    800031ee:	842e                	mv	s0,a1
    800031f0:	8526                	mv	a0,s1
    800031f2:	1cd000ef          	jal	80003bbe <__clzdi2>
    800031f6:	ff85079b          	addiw	a5,a0,-8
    800031fa:	00f494b3          	sll	s1,s1,a5
    800031fe:	0327c563          	blt	a5,s2,80003228 <__adddf3+0x30e>
    80003202:	4127853b          	subw	a0,a5,s2
    80003206:	2505                	addiw	a0,a0,1
    80003208:	04000713          	li	a4,64
    8000320c:	9f09                	subw	a4,a4,a0
    8000320e:	00a4d7b3          	srl	a5,s1,a0
    80003212:	00e494b3          	sll	s1,s1,a4
    80003216:	009034b3          	snez	s1,s1
    8000321a:	8fc5                	or	a5,a5,s1
    8000321c:	4901                	li	s2,0
    8000321e:	bd05                	j	8000304e <__adddf3+0x134>
    80003220:	f8e1                	bnez	s1,800031f0 <__adddf3+0x2d6>
    80003222:	4781                	li	a5,0
    80003224:	4901                	li	s2,0
    80003226:	bf1d                	j	8000315c <__adddf3+0x242>
    80003228:	40f90933          	sub	s2,s2,a5
    8000322c:	57fd                	li	a5,-1
    8000322e:	17de                	slli	a5,a5,0x37
    80003230:	17fd                	addi	a5,a5,-1
    80003232:	8fe5                	and	a5,a5,s1
    80003234:	bd29                	j	8000304e <__adddf3+0x134>
    80003236:	8932                	mv	s2,a2
    80003238:	bd19                	j	8000304e <__adddf3+0x134>
    8000323a:	7ff00913          	li	s2,2047
    8000323e:	4781                	li	a5,0
    80003240:	b7b9                	j	8000318e <__adddf3+0x274>
    80003242:	8932                	mv	s2,a2
    80003244:	842e                	mv	s0,a1
    80003246:	b521                	j	8000304e <__adddf3+0x134>
    80003248:	842e                	mv	s0,a1
    8000324a:	b345                	j	80002fea <__adddf3+0xd0>
    8000324c:	87c2                	mv	a5,a6
    8000324e:	bb71                	j	80002fea <__adddf3+0xd0>
    80003250:	4781                	li	a5,0
    80003252:	bf99                	j	800031a8 <__adddf3+0x28e>

0000000080003254 <__eqsf2>:
    80003254:	008007b7          	lui	a5,0x800
    80003258:	17fd                	addi	a5,a5,-1 # 7fffff <_tbss_end+0x7fffff>
    8000325a:	00a7f833          	and	a6,a5,a0
    8000325e:	0175561b          	srliw	a2,a0,0x17
    80003262:	8fed                	and	a5,a5,a1
    80003264:	0175d89b          	srliw	a7,a1,0x17
    80003268:	1802                	slli	a6,a6,0x20
    8000326a:	1782                	slli	a5,a5,0x20
    8000326c:	0ff67613          	zext.b	a2,a2
    80003270:	0ff00693          	li	a3,255
    80003274:	02085813          	srli	a6,a6,0x20
    80003278:	01f5571b          	srliw	a4,a0,0x1f
    8000327c:	9381                	srli	a5,a5,0x20
    8000327e:	0ff8f893          	zext.b	a7,a7
    80003282:	01f5d59b          	srliw	a1,a1,0x1f
    80003286:	00d61a63          	bne	a2,a3,8000329a <__eqsf2+0x46>
    8000328a:	4505                	li	a0,1
    8000328c:	02081a63          	bnez	a6,800032c0 <__eqsf2+0x6c>
    80003290:	4685                	li	a3,1
    80003292:	02c89263          	bne	a7,a2,800032b6 <__eqsf2+0x62>
    80003296:	cb89                	beqz	a5,800032a8 <__eqsf2+0x54>
    80003298:	8082                	ret
    8000329a:	02d88063          	beq	a7,a3,800032ba <__eqsf2+0x66>
    8000329e:	4685                	li	a3,1
    800032a0:	01161b63          	bne	a2,a7,800032b6 <__eqsf2+0x62>
    800032a4:	00f81963          	bne	a6,a5,800032b6 <__eqsf2+0x62>
    800032a8:	4681                	li	a3,0
    800032aa:	00b70663          	beq	a4,a1,800032b6 <__eqsf2+0x62>
    800032ae:	4685                	li	a3,1
    800032b0:	e219                	bnez	a2,800032b6 <__eqsf2+0x62>
    800032b2:	010036b3          	snez	a3,a6
    800032b6:	8536                	mv	a0,a3
    800032b8:	8082                	ret
    800032ba:	4505                	li	a0,1
    800032bc:	4685                	li	a3,1
    800032be:	dfe5                	beqz	a5,800032b6 <__eqsf2+0x62>
    800032c0:	8082                	ret

00000000800032c2 <__lesf2>:
    800032c2:	008007b7          	lui	a5,0x800
    800032c6:	17fd                	addi	a5,a5,-1 # 7fffff <_tbss_end+0x7fffff>
    800032c8:	00a7f6b3          	and	a3,a5,a0
    800032cc:	0175561b          	srliw	a2,a0,0x17
    800032d0:	8fed                	and	a5,a5,a1
    800032d2:	1682                	slli	a3,a3,0x20
    800032d4:	01f5571b          	srliw	a4,a0,0x1f
    800032d8:	1782                	slli	a5,a5,0x20
    800032da:	0175d51b          	srliw	a0,a1,0x17
    800032de:	0ff67613          	zext.b	a2,a2
    800032e2:	0ff00813          	li	a6,255
    800032e6:	9281                	srli	a3,a3,0x20
    800032e8:	9381                	srli	a5,a5,0x20
    800032ea:	0ff57513          	zext.b	a0,a0
    800032ee:	01f5d59b          	srliw	a1,a1,0x1f
    800032f2:	01061363          	bne	a2,a6,800032f8 <__lesf2+0x36>
    800032f6:	e695                	bnez	a3,80003322 <__lesf2+0x60>
    800032f8:	0ff00813          	li	a6,255
    800032fc:	01051363          	bne	a0,a6,80003302 <__lesf2+0x40>
    80003300:	e38d                	bnez	a5,80003322 <__lesf2+0x60>
    80003302:	ea15                	bnez	a2,80003336 <__lesf2+0x74>
    80003304:	e10d                	bnez	a0,80003326 <__lesf2+0x64>
    80003306:	ea8d                	bnez	a3,80003338 <__lesf2+0x76>
    80003308:	c795                	beqz	a5,80003334 <__lesf2+0x72>
    8000330a:	4505                	li	a0,1
    8000330c:	e585                	bnez	a1,80003334 <__lesf2+0x72>
    8000330e:	557d                	li	a0,-1
    80003310:	8082                	ret
    80003312:	fea64ce3          	blt	a2,a0,8000330a <__lesf2+0x48>
    80003316:	00d7ed63          	bltu	a5,a3,80003330 <__lesf2+0x6e>
    8000331a:	4501                	li	a0,0
    8000331c:	00f6fc63          	bgeu	a3,a5,80003334 <__lesf2+0x72>
    80003320:	b7ed                	j	8000330a <__lesf2+0x48>
    80003322:	4509                	li	a0,2
    80003324:	8082                	ret
    80003326:	d2f5                	beqz	a3,8000330a <__lesf2+0x48>
    80003328:	00e59963          	bne	a1,a4,8000333a <__lesf2+0x78>
    8000332c:	fec553e3          	bge	a0,a2,80003312 <__lesf2+0x50>
    80003330:	557d                	li	a0,-1
    80003332:	c591                	beqz	a1,8000333e <__lesf2+0x7c>
    80003334:	8082                	ret
    80003336:	f96d                	bnez	a0,80003328 <__lesf2+0x66>
    80003338:	fbe5                	bnez	a5,80003328 <__lesf2+0x66>
    8000333a:	557d                	li	a0,-1
    8000333c:	ff65                	bnez	a4,80003334 <__lesf2+0x72>
    8000333e:	4505                	li	a0,1
    80003340:	8082                	ret

0000000080003342 <__mulsf3>:
    80003342:	7139                	addi	sp,sp,-64
    80003344:	f04a                	sd	s2,32(sp)
    80003346:	0175591b          	srliw	s2,a0,0x17
    8000334a:	f426                	sd	s1,40(sp)
    8000334c:	ec4e                	sd	s3,24(sp)
    8000334e:	e456                	sd	s5,8(sp)
    80003350:	02951493          	slli	s1,a0,0x29
    80003354:	fc06                	sd	ra,56(sp)
    80003356:	f822                	sd	s0,48(sp)
    80003358:	e852                	sd	s4,16(sp)
    8000335a:	0ff97913          	zext.b	s2,s2
    8000335e:	8aae                	mv	s5,a1
    80003360:	90a5                	srli	s1,s1,0x29
    80003362:	01f5599b          	srliw	s3,a0,0x1f
    80003366:	08090863          	beqz	s2,800033f6 <__mulsf3+0xb4>
    8000336a:	0ff00793          	li	a5,255
    8000336e:	0af90363          	beq	s2,a5,80003414 <__mulsf3+0xd2>
    80003372:	048e                	slli	s1,s1,0x3
    80003374:	040007b7          	lui	a5,0x4000
    80003378:	8cdd                	or	s1,s1,a5
    8000337a:	f8190913          	addi	s2,s2,-127
    8000337e:	4a01                	li	s4,0
    80003380:	017ad79b          	srliw	a5,s5,0x17
    80003384:	029a9413          	slli	s0,s5,0x29
    80003388:	0ff7f793          	zext.b	a5,a5
    8000338c:	9025                	srli	s0,s0,0x29
    8000338e:	01fada9b          	srliw	s5,s5,0x1f
    80003392:	cbd1                	beqz	a5,80003426 <__mulsf3+0xe4>
    80003394:	0ff00713          	li	a4,255
    80003398:	0ae78563          	beq	a5,a4,80003442 <__mulsf3+0x100>
    8000339c:	040e                	slli	s0,s0,0x3
    8000339e:	04000737          	lui	a4,0x4000
    800033a2:	8c59                	or	s0,s0,a4
    800033a4:	f8178793          	addi	a5,a5,-127 # 3ffff81 <_HEAP_SIZE+0x646d>
    800033a8:	4701                	li	a4,0
    800033aa:	993e                	add	s2,s2,a5
    800033ac:	002a1793          	slli	a5,s4,0x2
    800033b0:	8fd9                	or	a5,a5,a4
    800033b2:	46a9                	li	a3,10
    800033b4:	00190613          	addi	a2,s2,1
    800033b8:	12f6c463          	blt	a3,a5,800034e0 <__mulsf3+0x19e>
    800033bc:	4689                	li	a3,2
    800033be:	0159c9b3          	xor	s3,s3,s5
    800033c2:	08f6c963          	blt	a3,a5,80003454 <__mulsf3+0x112>
    800033c6:	17fd                	addi	a5,a5,-1
    800033c8:	4685                	li	a3,1
    800033ca:	0af6f263          	bgeu	a3,a5,8000346e <__mulsf3+0x12c>
    800033ce:	028484b3          	mul	s1,s1,s0
    800033d2:	01a4d793          	srli	a5,s1,0x1a
    800033d6:	149a                	slli	s1,s1,0x26
    800033d8:	009034b3          	snez	s1,s1
    800033dc:	02479713          	slli	a4,a5,0x24
    800033e0:	0097e433          	or	s0,a5,s1
    800033e4:	00075763          	bgez	a4,800033f2 <__mulsf3+0xb0>
    800033e8:	00145793          	srli	a5,s0,0x1
    800033ec:	8805                	andi	s0,s0,1
    800033ee:	8c5d                	or	s0,s0,a5
    800033f0:	8932                	mv	s2,a2
    800033f2:	864a                	mv	a2,s2
    800033f4:	a071                	j	80003480 <__mulsf3+0x13e>
    800033f6:	c48d                	beqz	s1,80003420 <__mulsf3+0xde>
    800033f8:	8526                	mv	a0,s1
    800033fa:	7c4000ef          	jal	80003bbe <__clzdi2>
    800033fe:	0005079b          	sext.w	a5,a0
    80003402:	faa00913          	li	s2,-86
    80003406:	fdb5051b          	addiw	a0,a0,-37
    8000340a:	00a494b3          	sll	s1,s1,a0
    8000340e:	40f90933          	sub	s2,s2,a5
    80003412:	b7b5                	j	8000337e <__mulsf3+0x3c>
    80003414:	0ff00913          	li	s2,255
    80003418:	4a09                	li	s4,2
    8000341a:	d0bd                	beqz	s1,80003380 <__mulsf3+0x3e>
    8000341c:	4a0d                	li	s4,3
    8000341e:	b78d                	j	80003380 <__mulsf3+0x3e>
    80003420:	4901                	li	s2,0
    80003422:	4a05                	li	s4,1
    80003424:	bfb1                	j	80003380 <__mulsf3+0x3e>
    80003426:	c405                	beqz	s0,8000344e <__mulsf3+0x10c>
    80003428:	8522                	mv	a0,s0
    8000342a:	794000ef          	jal	80003bbe <__clzdi2>
    8000342e:	0005071b          	sext.w	a4,a0
    80003432:	faa00793          	li	a5,-86
    80003436:	fdb5051b          	addiw	a0,a0,-37
    8000343a:	00a41433          	sll	s0,s0,a0
    8000343e:	8f99                	sub	a5,a5,a4
    80003440:	b7a5                	j	800033a8 <__mulsf3+0x66>
    80003442:	0ff00793          	li	a5,255
    80003446:	4709                	li	a4,2
    80003448:	d02d                	beqz	s0,800033aa <__mulsf3+0x68>
    8000344a:	470d                	li	a4,3
    8000344c:	bfb9                	j	800033aa <__mulsf3+0x68>
    8000344e:	4781                	li	a5,0
    80003450:	4705                	li	a4,1
    80003452:	bfa1                	j	800033aa <__mulsf3+0x68>
    80003454:	4685                	li	a3,1
    80003456:	00f697b3          	sll	a5,a3,a5
    8000345a:	5307f693          	andi	a3,a5,1328
    8000345e:	e6d9                	bnez	a3,800034ec <__mulsf3+0x1aa>
    80003460:	2407f693          	andi	a3,a5,576
    80003464:	eaf9                	bnez	a3,8000353a <__mulsf3+0x1f8>
    80003466:	0887f793          	andi	a5,a5,136
    8000346a:	d3b5                	beqz	a5,800033ce <__mulsf3+0x8c>
    8000346c:	89d6                	mv	s3,s5
    8000346e:	4789                	li	a5,2
    80003470:	0cf70163          	beq	a4,a5,80003532 <__mulsf3+0x1f0>
    80003474:	478d                	li	a5,3
    80003476:	0cf70263          	beq	a4,a5,8000353a <__mulsf3+0x1f8>
    8000347a:	4785                	li	a5,1
    8000347c:	0cf70563          	beq	a4,a5,80003546 <__mulsf3+0x204>
    80003480:	07f60713          	addi	a4,a2,127 # 207f <_tbss_end+0x207f>
    80003484:	06e05763          	blez	a4,800034f2 <__mulsf3+0x1b0>
    80003488:	00747793          	andi	a5,s0,7
    8000348c:	c799                	beqz	a5,8000349a <__mulsf3+0x158>
    8000348e:	00f47793          	andi	a5,s0,15
    80003492:	4691                	li	a3,4
    80003494:	00d78363          	beq	a5,a3,8000349a <__mulsf3+0x158>
    80003498:	0411                	addi	s0,s0,4
    8000349a:	02441793          	slli	a5,s0,0x24
    8000349e:	0007d863          	bgez	a5,800034ae <__mulsf3+0x16c>
    800034a2:	f80007b7          	lui	a5,0xf8000
    800034a6:	17fd                	addi	a5,a5,-1 # fffffffff7ffffff <__stack_pointer$+0xffffffff700003ff>
    800034a8:	8c7d                	and	s0,s0,a5
    800034aa:	08060713          	addi	a4,a2,128
    800034ae:	0fe00793          	li	a5,254
    800034b2:	08e7c063          	blt	a5,a4,80003532 <__mulsf3+0x1f0>
    800034b6:	00345793          	srli	a5,s0,0x3
    800034ba:	70e2                	ld	ra,56(sp)
    800034bc:	7442                	ld	s0,48(sp)
    800034be:	02979513          	slli	a0,a5,0x29
    800034c2:	0177171b          	slliw	a4,a4,0x17
    800034c6:	9125                	srli	a0,a0,0x29
    800034c8:	01f9999b          	slliw	s3,s3,0x1f
    800034cc:	8d59                	or	a0,a0,a4
    800034ce:	74a2                	ld	s1,40(sp)
    800034d0:	7902                	ld	s2,32(sp)
    800034d2:	6a42                	ld	s4,16(sp)
    800034d4:	6aa2                	ld	s5,8(sp)
    800034d6:	01356533          	or	a0,a0,s3
    800034da:	69e2                	ld	s3,24(sp)
    800034dc:	6121                	addi	sp,sp,64
    800034de:	8082                	ret
    800034e0:	46bd                	li	a3,15
    800034e2:	04d78c63          	beq	a5,a3,8000353a <__mulsf3+0x1f8>
    800034e6:	46ad                	li	a3,11
    800034e8:	f8d782e3          	beq	a5,a3,8000346c <__mulsf3+0x12a>
    800034ec:	8426                	mv	s0,s1
    800034ee:	8752                	mv	a4,s4
    800034f0:	bfbd                	j	8000346e <__mulsf3+0x12c>
    800034f2:	4685                	li	a3,1
    800034f4:	8e99                	sub	a3,a3,a4
    800034f6:	47ed                	li	a5,27
    800034f8:	04d7c763          	blt	a5,a3,80003546 <__mulsf3+0x204>
    800034fc:	04000713          	li	a4,64
    80003500:	9f15                	subw	a4,a4,a3
    80003502:	00e41733          	sll	a4,s0,a4
    80003506:	00e03733          	snez	a4,a4
    8000350a:	00d457b3          	srl	a5,s0,a3
    8000350e:	8fd9                	or	a5,a5,a4
    80003510:	0077f713          	andi	a4,a5,7
    80003514:	c719                	beqz	a4,80003522 <__mulsf3+0x1e0>
    80003516:	00f7f713          	andi	a4,a5,15
    8000351a:	4691                	li	a3,4
    8000351c:	00d70363          	beq	a4,a3,80003522 <__mulsf3+0x1e0>
    80003520:	0791                	addi	a5,a5,4
    80003522:	02579713          	slli	a4,a5,0x25
    80003526:	838d                	srli	a5,a5,0x3
    80003528:	02075063          	bgez	a4,80003548 <__mulsf3+0x206>
    8000352c:	4781                	li	a5,0
    8000352e:	4705                	li	a4,1
    80003530:	b769                	j	800034ba <__mulsf3+0x178>
    80003532:	4781                	li	a5,0
    80003534:	0ff00713          	li	a4,255
    80003538:	b749                	j	800034ba <__mulsf3+0x178>
    8000353a:	004007b7          	lui	a5,0x400
    8000353e:	0ff00713          	li	a4,255
    80003542:	4981                	li	s3,0
    80003544:	bf9d                	j	800034ba <__mulsf3+0x178>
    80003546:	4781                	li	a5,0
    80003548:	4701                	li	a4,0
    8000354a:	bf85                	j	800034ba <__mulsf3+0x178>

000000008000354c <__subsf3>:
    8000354c:	008007b7          	lui	a5,0x800
    80003550:	17fd                	addi	a5,a5,-1 # 7fffff <_tbss_end+0x7fffff>
    80003552:	00a7f733          	and	a4,a5,a0
    80003556:	02071693          	slli	a3,a4,0x20
    8000355a:	8fed                	and	a5,a5,a1
    8000355c:	1101                	addi	sp,sp,-32
    8000355e:	0175d61b          	srliw	a2,a1,0x17
    80003562:	0175581b          	srliw	a6,a0,0x17
    80003566:	01d6d713          	srli	a4,a3,0x1d
    8000356a:	02079693          	slli	a3,a5,0x20
    8000356e:	e822                	sd	s0,16(sp)
    80003570:	e426                	sd	s1,8(sp)
    80003572:	0ff87813          	zext.b	a6,a6
    80003576:	01d6d793          	srli	a5,a3,0x1d
    8000357a:	ec06                	sd	ra,24(sp)
    8000357c:	e04a                	sd	s2,0(sp)
    8000357e:	0ff67613          	zext.b	a2,a2
    80003582:	0ff00693          	li	a3,255
    80003586:	8442                	mv	s0,a6
    80003588:	01f5549b          	srliw	s1,a0,0x1f
    8000358c:	01f5d59b          	srliw	a1,a1,0x1f
    80003590:	00d61363          	bne	a2,a3,80003596 <__subsf3+0x4a>
    80003594:	e399                	bnez	a5,8000359a <__subsf3+0x4e>
    80003596:	0015c593          	xori	a1,a1,1
    8000359a:	40c806bb          	subw	a3,a6,a2
    8000359e:	0006851b          	sext.w	a0,a3
    800035a2:	12959663          	bne	a1,s1,800036ce <__subsf3+0x182>
    800035a6:	06a05a63          	blez	a0,8000361a <__subsf3+0xce>
    800035aa:	ee1d                	bnez	a2,800035e8 <__subsf3+0x9c>
    800035ac:	cf85                	beqz	a5,800035e4 <__subsf3+0x98>
    800035ae:	fff6851b          	addiw	a0,a3,-1
    800035b2:	e50d                	bnez	a0,800035dc <__subsf3+0x90>
    800035b4:	97ba                	add	a5,a5,a4
    800035b6:	02579713          	slli	a4,a5,0x25
    800035ba:	0e075163          	bgez	a4,8000369c <__subsf3+0x150>
    800035be:	0405                	addi	s0,s0,1
    800035c0:	0ff00713          	li	a4,255
    800035c4:	26e40b63          	beq	s0,a4,8000383a <__subsf3+0x2ee>
    800035c8:	fc000737          	lui	a4,0xfc000
    800035cc:	177d                	addi	a4,a4,-1 # fffffffffbffffff <__stack_pointer$+0xffffffff740003ff>
    800035ce:	0017f693          	andi	a3,a5,1
    800035d2:	8305                	srli	a4,a4,0x1
    800035d4:	8385                	srli	a5,a5,0x1
    800035d6:	8ff9                	and	a5,a5,a4
    800035d8:	8fd5                	or	a5,a5,a3
    800035da:	a0c9                	j	8000369c <__subsf3+0x150>
    800035dc:	0ff00693          	li	a3,255
    800035e0:	00d81b63          	bne	a6,a3,800035f6 <__subsf3+0xaa>
    800035e4:	87ba                	mv	a5,a4
    800035e6:	a85d                	j	8000369c <__subsf3+0x150>
    800035e8:	0ff00693          	li	a3,255
    800035ec:	fed80ce3          	beq	a6,a3,800035e4 <__subsf3+0x98>
    800035f0:	040006b7          	lui	a3,0x4000
    800035f4:	8fd5                	or	a5,a5,a3
    800035f6:	466d                	li	a2,27
    800035f8:	4685                	li	a3,1
    800035fa:	00a64d63          	blt	a2,a0,80003614 <__subsf3+0xc8>
    800035fe:	04000693          	li	a3,64
    80003602:	9e89                	subw	a3,a3,a0
    80003604:	00a7d633          	srl	a2,a5,a0
    80003608:	00d797b3          	sll	a5,a5,a3
    8000360c:	00f037b3          	snez	a5,a5
    80003610:	00f666b3          	or	a3,a2,a5
    80003614:	00e687b3          	add	a5,a3,a4
    80003618:	bf79                	j	800035b6 <__subsf3+0x6a>
    8000361a:	cd31                	beqz	a0,80003676 <__subsf3+0x12a>
    8000361c:	02081263          	bnez	a6,80003640 <__subsf3+0xf4>
    80003620:	20070963          	beqz	a4,80003832 <__subsf3+0x2e6>
    80003624:	fff6c693          	not	a3,a3
    80003628:	2681                	sext.w	a3,a3
    8000362a:	e681                	bnez	a3,80003632 <__subsf3+0xe6>
    8000362c:	97ba                	add	a5,a5,a4
    8000362e:	8432                	mv	s0,a2
    80003630:	b759                	j	800035b6 <__subsf3+0x6a>
    80003632:	0ff00593          	li	a1,255
    80003636:	00b61e63          	bne	a2,a1,80003652 <__subsf3+0x106>
    8000363a:	0ff00413          	li	s0,255
    8000363e:	a8b9                	j	8000369c <__subsf3+0x150>
    80003640:	0ff00593          	li	a1,255
    80003644:	feb60be3          	beq	a2,a1,8000363a <__subsf3+0xee>
    80003648:	040005b7          	lui	a1,0x4000
    8000364c:	40d006bb          	negw	a3,a3
    80003650:	8f4d                	or	a4,a4,a1
    80003652:	456d                	li	a0,27
    80003654:	4585                	li	a1,1
    80003656:	00d54e63          	blt	a0,a3,80003672 <__subsf3+0x126>
    8000365a:	04000593          	li	a1,64
    8000365e:	00d75533          	srl	a0,a4,a3
    80003662:	40d586bb          	subw	a3,a1,a3
    80003666:	00d71733          	sll	a4,a4,a3
    8000366a:	00e03733          	snez	a4,a4
    8000366e:	00e565b3          	or	a1,a0,a4
    80003672:	97ae                	add	a5,a5,a1
    80003674:	bf6d                	j	8000362e <__subsf3+0xe2>
    80003676:	00180693          	addi	a3,a6,1
    8000367a:	0fe6f613          	andi	a2,a3,254
    8000367e:	ee1d                	bnez	a2,800036bc <__subsf3+0x170>
    80003680:	02081963          	bnez	a6,800036b2 <__subsf3+0x166>
    80003684:	cf01                	beqz	a4,8000369c <__subsf3+0x150>
    80003686:	dfb9                	beqz	a5,800035e4 <__subsf3+0x98>
    80003688:	97ba                	add	a5,a5,a4
    8000368a:	02579713          	slli	a4,a5,0x25
    8000368e:	00075763          	bgez	a4,8000369c <__subsf3+0x150>
    80003692:	fc000737          	lui	a4,0xfc000
    80003696:	177d                	addi	a4,a4,-1 # fffffffffbffffff <__stack_pointer$+0xffffffff740003ff>
    80003698:	8ff9                	and	a5,a5,a4
    8000369a:	4405                	li	s0,1
    8000369c:	0077f713          	andi	a4,a5,7
    800036a0:	18070e63          	beqz	a4,8000383c <__subsf3+0x2f0>
    800036a4:	00f7f713          	andi	a4,a5,15
    800036a8:	4691                	li	a3,4
    800036aa:	18d70963          	beq	a4,a3,8000383c <__subsf3+0x2f0>
    800036ae:	0791                	addi	a5,a5,4
    800036b0:	a271                	j	8000383c <__subsf3+0x2f0>
    800036b2:	d741                	beqz	a4,8000363a <__subsf3+0xee>
    800036b4:	10079b63          	bnez	a5,800037ca <__subsf3+0x27e>
    800036b8:	87ba                	mv	a5,a4
    800036ba:	b741                	j	8000363a <__subsf3+0xee>
    800036bc:	0ff00613          	li	a2,255
    800036c0:	16c68b63          	beq	a3,a2,80003836 <__subsf3+0x2ea>
    800036c4:	973e                	add	a4,a4,a5
    800036c6:	00175793          	srli	a5,a4,0x1
    800036ca:	8436                	mv	s0,a3
    800036cc:	bfc1                	j	8000369c <__subsf3+0x150>
    800036ce:	06a05163          	blez	a0,80003730 <__subsf3+0x1e4>
    800036d2:	e639                	bnez	a2,80003720 <__subsf3+0x1d4>
    800036d4:	db81                	beqz	a5,800035e4 <__subsf3+0x98>
    800036d6:	fff6851b          	addiw	a0,a3,-1 # 3ffffff <_HEAP_SIZE+0x64eb>
    800036da:	ed09                	bnez	a0,800036f4 <__subsf3+0x1a8>
    800036dc:	40f707b3          	sub	a5,a4,a5
    800036e0:	02579713          	slli	a4,a5,0x25
    800036e4:	fa075ce3          	bgez	a4,8000369c <__subsf3+0x150>
    800036e8:	04000937          	lui	s2,0x4000
    800036ec:	197d                	addi	s2,s2,-1 # 3ffffff <_HEAP_SIZE+0x64eb>
    800036ee:	0127f933          	and	s2,a5,s2
    800036f2:	a8dd                	j	800037e8 <__subsf3+0x29c>
    800036f4:	0ff00693          	li	a3,255
    800036f8:	eed806e3          	beq	a6,a3,800035e4 <__subsf3+0x98>
    800036fc:	466d                	li	a2,27
    800036fe:	4685                	li	a3,1
    80003700:	00a64d63          	blt	a2,a0,8000371a <__subsf3+0x1ce>
    80003704:	04000693          	li	a3,64
    80003708:	9e89                	subw	a3,a3,a0
    8000370a:	00a7d633          	srl	a2,a5,a0
    8000370e:	00d797b3          	sll	a5,a5,a3
    80003712:	00f037b3          	snez	a5,a5
    80003716:	00f666b3          	or	a3,a2,a5
    8000371a:	40d707b3          	sub	a5,a4,a3
    8000371e:	b7c9                	j	800036e0 <__subsf3+0x194>
    80003720:	0ff00693          	li	a3,255
    80003724:	ecd800e3          	beq	a6,a3,800035e4 <__subsf3+0x98>
    80003728:	040006b7          	lui	a3,0x4000
    8000372c:	8fd5                	or	a5,a5,a3
    8000372e:	b7f9                	j	800036fc <__subsf3+0x1b0>
    80003730:	cd39                	beqz	a0,8000378e <__subsf3+0x242>
    80003732:	02081363          	bnez	a6,80003758 <__subsf3+0x20c>
    80003736:	14070963          	beqz	a4,80003888 <__subsf3+0x33c>
    8000373a:	fff6c693          	not	a3,a3
    8000373e:	2681                	sext.w	a3,a3
    80003740:	e689                	bnez	a3,8000374a <__subsf3+0x1fe>
    80003742:	8f99                	sub	a5,a5,a4
    80003744:	8432                	mv	s0,a2
    80003746:	84ae                	mv	s1,a1
    80003748:	bf61                	j	800036e0 <__subsf3+0x194>
    8000374a:	0ff00513          	li	a0,255
    8000374e:	00a61e63          	bne	a2,a0,8000376a <__subsf3+0x21e>
    80003752:	0ff00413          	li	s0,255
    80003756:	aa15                	j	8000388a <__subsf3+0x33e>
    80003758:	0ff00513          	li	a0,255
    8000375c:	fea60be3          	beq	a2,a0,80003752 <__subsf3+0x206>
    80003760:	04000537          	lui	a0,0x4000
    80003764:	40d006bb          	negw	a3,a3
    80003768:	8f49                	or	a4,a4,a0
    8000376a:	486d                	li	a6,27
    8000376c:	4505                	li	a0,1
    8000376e:	00d84e63          	blt	a6,a3,8000378a <__subsf3+0x23e>
    80003772:	04000513          	li	a0,64
    80003776:	00d75833          	srl	a6,a4,a3
    8000377a:	40d506bb          	subw	a3,a0,a3
    8000377e:	00d71733          	sll	a4,a4,a3
    80003782:	00e03733          	snez	a4,a4
    80003786:	00e86533          	or	a0,a6,a4
    8000378a:	8f89                	sub	a5,a5,a0
    8000378c:	bf65                	j	80003744 <__subsf3+0x1f8>
    8000378e:	00180693          	addi	a3,a6,1
    80003792:	0fe6f693          	andi	a3,a3,254
    80003796:	e2a1                	bnez	a3,800037d6 <__subsf3+0x28a>
    80003798:	02081463          	bnez	a6,800037c0 <__subsf3+0x274>
    8000379c:	e701                	bnez	a4,800037a4 <__subsf3+0x258>
    8000379e:	e7f5                	bnez	a5,8000388a <__subsf3+0x33e>
    800037a0:	4481                	li	s1,0
    800037a2:	a869                	j	8000383c <__subsf3+0x2f0>
    800037a4:	e40780e3          	beqz	a5,800035e4 <__subsf3+0x98>
    800037a8:	40f706b3          	sub	a3,a4,a5
    800037ac:	02569613          	slli	a2,a3,0x25
    800037b0:	8f99                	sub	a5,a5,a4
    800037b2:	0c064c63          	bltz	a2,8000388a <__subsf3+0x33e>
    800037b6:	87b6                	mv	a5,a3
    800037b8:	ee0692e3          	bnez	a3,8000369c <__subsf3+0x150>
    800037bc:	4781                	li	a5,0
    800037be:	b7cd                	j	800037a0 <__subsf3+0x254>
    800037c0:	ee071ae3          	bnez	a4,800036b4 <__subsf3+0x168>
    800037c4:	84ae                	mv	s1,a1
    800037c6:	e6079ae3          	bnez	a5,8000363a <__subsf3+0xee>
    800037ca:	4481                	li	s1,0
    800037cc:	020007b7          	lui	a5,0x2000
    800037d0:	0ff00413          	li	s0,255
    800037d4:	a0a5                	j	8000383c <__subsf3+0x2f0>
    800037d6:	40f70933          	sub	s2,a4,a5
    800037da:	02591693          	slli	a3,s2,0x25
    800037de:	0206de63          	bgez	a3,8000381a <__subsf3+0x2ce>
    800037e2:	40e78933          	sub	s2,a5,a4
    800037e6:	84ae                	mv	s1,a1
    800037e8:	854a                	mv	a0,s2
    800037ea:	3d4000ef          	jal	80003bbe <__clzdi2>
    800037ee:	fdb5079b          	addiw	a5,a0,-37 # 3ffffdb <_HEAP_SIZE+0x64c7>
    800037f2:	00f91933          	sll	s2,s2,a5
    800037f6:	0287c763          	blt	a5,s0,80003824 <__subsf3+0x2d8>
    800037fa:	4087853b          	subw	a0,a5,s0
    800037fe:	2505                	addiw	a0,a0,1
    80003800:	04000713          	li	a4,64
    80003804:	9f09                	subw	a4,a4,a0
    80003806:	00a957b3          	srl	a5,s2,a0
    8000380a:	00e91933          	sll	s2,s2,a4
    8000380e:	01203933          	snez	s2,s2
    80003812:	0127e7b3          	or	a5,a5,s2
    80003816:	4401                	li	s0,0
    80003818:	b551                	j	8000369c <__subsf3+0x150>
    8000381a:	fc0917e3          	bnez	s2,800037e8 <__subsf3+0x29c>
    8000381e:	4781                	li	a5,0
    80003820:	4401                	li	s0,0
    80003822:	bfbd                	j	800037a0 <__subsf3+0x254>
    80003824:	8c1d                	sub	s0,s0,a5
    80003826:	fc0007b7          	lui	a5,0xfc000
    8000382a:	17fd                	addi	a5,a5,-1 # fffffffffbffffff <__stack_pointer$+0xffffffff740003ff>
    8000382c:	00f977b3          	and	a5,s2,a5
    80003830:	b5b5                	j	8000369c <__subsf3+0x150>
    80003832:	8432                	mv	s0,a2
    80003834:	b5a5                	j	8000369c <__subsf3+0x150>
    80003836:	0ff00413          	li	s0,255
    8000383a:	4781                	li	a5,0
    8000383c:	02579713          	slli	a4,a5,0x25
    80003840:	00075b63          	bgez	a4,80003856 <__subsf3+0x30a>
    80003844:	0405                	addi	s0,s0,1
    80003846:	0ff00713          	li	a4,255
    8000384a:	04e40263          	beq	s0,a4,8000388e <__subsf3+0x342>
    8000384e:	fc000737          	lui	a4,0xfc000
    80003852:	177d                	addi	a4,a4,-1 # fffffffffbffffff <__stack_pointer$+0xffffffff740003ff>
    80003854:	8ff9                	and	a5,a5,a4
    80003856:	0ff00713          	li	a4,255
    8000385a:	838d                	srli	a5,a5,0x3
    8000385c:	00e41663          	bne	s0,a4,80003868 <__subsf3+0x31c>
    80003860:	c781                	beqz	a5,80003868 <__subsf3+0x31c>
    80003862:	004007b7          	lui	a5,0x400
    80003866:	4481                	li	s1,0
    80003868:	0ff47413          	zext.b	s0,s0
    8000386c:	17a6                	slli	a5,a5,0x29
    8000386e:	0174141b          	slliw	s0,s0,0x17
    80003872:	93a5                	srli	a5,a5,0x29
    80003874:	60e2                	ld	ra,24(sp)
    80003876:	8fc1                	or	a5,a5,s0
    80003878:	6442                	ld	s0,16(sp)
    8000387a:	01f4951b          	slliw	a0,s1,0x1f
    8000387e:	6902                	ld	s2,0(sp)
    80003880:	64a2                	ld	s1,8(sp)
    80003882:	8d5d                	or	a0,a0,a5
    80003884:	6105                	addi	sp,sp,32
    80003886:	8082                	ret
    80003888:	8432                	mv	s0,a2
    8000388a:	84ae                	mv	s1,a1
    8000388c:	bd01                	j	8000369c <__subsf3+0x150>
    8000388e:	4781                	li	a5,0
    80003890:	b7d9                	j	80003856 <__subsf3+0x30a>

0000000080003892 <__fixsfsi>:
    80003892:	00800637          	lui	a2,0x800
    80003896:	fff60793          	addi	a5,a2,-1 # 7fffff <_tbss_end+0x7fffff>
    8000389a:	0175569b          	srliw	a3,a0,0x17
    8000389e:	8fe9                	and	a5,a5,a0
    800038a0:	0ff6f693          	zext.b	a3,a3
    800038a4:	07e00593          	li	a1,126
    800038a8:	2781                	sext.w	a5,a5
    800038aa:	01f5571b          	srliw	a4,a0,0x1f
    800038ae:	04d5d563          	bge	a1,a3,800038f8 <__fixsfsi+0x66>
    800038b2:	09d00593          	li	a1,157
    800038b6:	00d5d763          	bge	a1,a3,800038c4 <__fixsfsi+0x32>
    800038ba:	80000537          	lui	a0,0x80000
    800038be:	357d                	addiw	a0,a0,-1 # 7fffffff <_free_space+0x7800c9d7>
    800038c0:	9d39                	addw	a0,a0,a4
    800038c2:	8082                	ret
    800038c4:	02079513          	slli	a0,a5,0x20
    800038c8:	9101                	srli	a0,a0,0x20
    800038ca:	8d51                	or	a0,a0,a2
    800038cc:	09500613          	li	a2,149
    800038d0:	0006879b          	sext.w	a5,a3
    800038d4:	00d65a63          	bge	a2,a3,800038e8 <__fixsfsi+0x56>
    800038d8:	f6a7879b          	addiw	a5,a5,-150 # 3fff6a <_tbss_end+0x3fff6a>
    800038dc:	00f5153b          	sllw	a0,a0,a5
    800038e0:	cf09                	beqz	a4,800038fa <__fixsfsi+0x68>
    800038e2:	40a0053b          	negw	a0,a0
    800038e6:	8082                	ret
    800038e8:	09600693          	li	a3,150
    800038ec:	40f687bb          	subw	a5,a3,a5
    800038f0:	00f55533          	srl	a0,a0,a5
    800038f4:	2501                	sext.w	a0,a0
    800038f6:	b7ed                	j	800038e0 <__fixsfsi+0x4e>
    800038f8:	4501                	li	a0,0
    800038fa:	8082                	ret

00000000800038fc <__floatsisf>:
    800038fc:	1101                	addi	sp,sp,-32
    800038fe:	ec06                	sd	ra,24(sp)
    80003900:	e822                	sd	s0,16(sp)
    80003902:	e426                	sd	s1,8(sp)
    80003904:	e04a                	sd	s2,0(sp)
    80003906:	cd4d                	beqz	a0,800039c0 <__floatsisf+0xc4>
    80003908:	0005049b          	sext.w	s1,a0
    8000390c:	03f55913          	srli	s2,a0,0x3f
    80003910:	00055463          	bgez	a0,80003918 <__floatsisf+0x1c>
    80003914:	409004bb          	negw	s1,s1
    80003918:	02049413          	slli	s0,s1,0x20
    8000391c:	9001                	srli	s0,s0,0x20
    8000391e:	8522                	mv	a0,s0
    80003920:	29e000ef          	jal	80003bbe <__clzdi2>
    80003924:	0be00793          	li	a5,190
    80003928:	9f89                	subw	a5,a5,a0
    8000392a:	09600713          	li	a4,150
    8000392e:	02f74663          	blt	a4,a5,8000395a <__floatsisf+0x5e>
    80003932:	00e78663          	beq	a5,a4,8000393e <__floatsisf+0x42>
    80003936:	fd85051b          	addiw	a0,a0,-40
    8000393a:	00a41433          	sll	s0,s0,a0
    8000393e:	1426                	slli	s0,s0,0x29
    80003940:	0177979b          	slliw	a5,a5,0x17
    80003944:	9025                	srli	s0,s0,0x29
    80003946:	8c5d                	or	s0,s0,a5
    80003948:	01f9151b          	slliw	a0,s2,0x1f
    8000394c:	60e2                	ld	ra,24(sp)
    8000394e:	8d41                	or	a0,a0,s0
    80003950:	6442                	ld	s0,16(sp)
    80003952:	64a2                	ld	s1,8(sp)
    80003954:	6902                	ld	s2,0(sp)
    80003956:	6105                	addi	sp,sp,32
    80003958:	8082                	ret
    8000395a:	09900713          	li	a4,153
    8000395e:	02f75063          	bge	a4,a5,8000397e <__floatsisf+0x82>
    80003962:	02500713          	li	a4,37
    80003966:	9f09                	subw	a4,a4,a0
    80003968:	ffb5069b          	addiw	a3,a0,-5
    8000396c:	00e4d73b          	srlw	a4,s1,a4
    80003970:	00d494bb          	sllw	s1,s1,a3
    80003974:	009034b3          	snez	s1,s1
    80003978:	8f45                	or	a4,a4,s1
    8000397a:	0007049b          	sext.w	s1,a4
    8000397e:	1482                	slli	s1,s1,0x20
    80003980:	09900713          	li	a4,153
    80003984:	9081                	srli	s1,s1,0x20
    80003986:	00e7d663          	bge	a5,a4,80003992 <__floatsisf+0x96>
    8000398a:	fdb5051b          	addiw	a0,a0,-37
    8000398e:	00a494b3          	sll	s1,s1,a0
    80003992:	fc000437          	lui	s0,0xfc000
    80003996:	147d                	addi	s0,s0,-1 # fffffffffbffffff <__stack_pointer$+0xffffffff740003ff>
    80003998:	0074f713          	andi	a4,s1,7
    8000399c:	8c65                	and	s0,s0,s1
    8000399e:	c711                	beqz	a4,800039aa <__floatsisf+0xae>
    800039a0:	88bd                	andi	s1,s1,15
    800039a2:	4711                	li	a4,4
    800039a4:	00e48363          	beq	s1,a4,800039aa <__floatsisf+0xae>
    800039a8:	0411                	addi	s0,s0,4
    800039aa:	02541713          	slli	a4,s0,0x25
    800039ae:	00075763          	bgez	a4,800039bc <__floatsisf+0xc0>
    800039b2:	fc000737          	lui	a4,0xfc000
    800039b6:	177d                	addi	a4,a4,-1 # fffffffffbffffff <__stack_pointer$+0xffffffff740003ff>
    800039b8:	8c79                	and	s0,s0,a4
    800039ba:	0785                	addi	a5,a5,1
    800039bc:	800d                	srli	s0,s0,0x3
    800039be:	b741                	j	8000393e <__floatsisf+0x42>
    800039c0:	4401                	li	s0,0
    800039c2:	4781                	li	a5,0
    800039c4:	4901                	li	s2,0
    800039c6:	bfa5                	j	8000393e <__floatsisf+0x42>

00000000800039c8 <__floatunsisf>:
    800039c8:	1101                	addi	sp,sp,-32
    800039ca:	ec06                	sd	ra,24(sp)
    800039cc:	e822                	sd	s0,16(sp)
    800039ce:	e426                	sd	s1,8(sp)
    800039d0:	c155                	beqz	a0,80003a74 <__floatunsisf+0xac>
    800039d2:	02051413          	slli	s0,a0,0x20
    800039d6:	9001                	srli	s0,s0,0x20
    800039d8:	84aa                	mv	s1,a0
    800039da:	8522                	mv	a0,s0
    800039dc:	1e2000ef          	jal	80003bbe <__clzdi2>
    800039e0:	0be00793          	li	a5,190
    800039e4:	9f89                	subw	a5,a5,a0
    800039e6:	09600713          	li	a4,150
    800039ea:	02f74263          	blt	a4,a5,80003a0e <__floatunsisf+0x46>
    800039ee:	00e78663          	beq	a5,a4,800039fa <__floatunsisf+0x32>
    800039f2:	fd85051b          	addiw	a0,a0,-40
    800039f6:	00a41433          	sll	s0,s0,a0
    800039fa:	1426                	slli	s0,s0,0x29
    800039fc:	9025                	srli	s0,s0,0x29
    800039fe:	0177951b          	slliw	a0,a5,0x17
    80003a02:	60e2                	ld	ra,24(sp)
    80003a04:	8d41                	or	a0,a0,s0
    80003a06:	6442                	ld	s0,16(sp)
    80003a08:	64a2                	ld	s1,8(sp)
    80003a0a:	6105                	addi	sp,sp,32
    80003a0c:	8082                	ret
    80003a0e:	09900713          	li	a4,153
    80003a12:	02f75063          	bge	a4,a5,80003a32 <__floatunsisf+0x6a>
    80003a16:	ffb5071b          	addiw	a4,a0,-5
    80003a1a:	02500693          	li	a3,37
    80003a1e:	00e4973b          	sllw	a4,s1,a4
    80003a22:	9e89                	subw	a3,a3,a0
    80003a24:	00d4d4bb          	srlw	s1,s1,a3
    80003a28:	00e03733          	snez	a4,a4
    80003a2c:	8f45                	or	a4,a4,s1
    80003a2e:	0007049b          	sext.w	s1,a4
    80003a32:	1482                	slli	s1,s1,0x20
    80003a34:	09900713          	li	a4,153
    80003a38:	9081                	srli	s1,s1,0x20
    80003a3a:	00e7d663          	bge	a5,a4,80003a46 <__floatunsisf+0x7e>
    80003a3e:	fdb5051b          	addiw	a0,a0,-37
    80003a42:	00a494b3          	sll	s1,s1,a0
    80003a46:	fc000437          	lui	s0,0xfc000
    80003a4a:	147d                	addi	s0,s0,-1 # fffffffffbffffff <__stack_pointer$+0xffffffff740003ff>
    80003a4c:	0074f713          	andi	a4,s1,7
    80003a50:	8c65                	and	s0,s0,s1
    80003a52:	c711                	beqz	a4,80003a5e <__floatunsisf+0x96>
    80003a54:	88bd                	andi	s1,s1,15
    80003a56:	4711                	li	a4,4
    80003a58:	00e48363          	beq	s1,a4,80003a5e <__floatunsisf+0x96>
    80003a5c:	0411                	addi	s0,s0,4
    80003a5e:	02541713          	slli	a4,s0,0x25
    80003a62:	00075763          	bgez	a4,80003a70 <__floatunsisf+0xa8>
    80003a66:	fc000737          	lui	a4,0xfc000
    80003a6a:	177d                	addi	a4,a4,-1 # fffffffffbffffff <__stack_pointer$+0xffffffff740003ff>
    80003a6c:	8c79                	and	s0,s0,a4
    80003a6e:	0785                	addi	a5,a5,1
    80003a70:	800d                	srli	s0,s0,0x3
    80003a72:	b761                	j	800039fa <__floatunsisf+0x32>
    80003a74:	4401                	li	s0,0
    80003a76:	4781                	li	a5,0
    80003a78:	b749                	j	800039fa <__floatunsisf+0x32>

0000000080003a7a <__extendsfdf2>:
    80003a7a:	0175579b          	srliw	a5,a0,0x17
    80003a7e:	0ff7f793          	zext.b	a5,a5
    80003a82:	1101                	addi	sp,sp,-32
    80003a84:	00178713          	addi	a4,a5,1
    80003a88:	e822                	sd	s0,16(sp)
    80003a8a:	e426                	sd	s1,8(sp)
    80003a8c:	02951413          	slli	s0,a0,0x29
    80003a90:	ec06                	sd	ra,24(sp)
    80003a92:	0fe77713          	andi	a4,a4,254
    80003a96:	9025                	srli	s0,s0,0x29
    80003a98:	01f5549b          	srliw	s1,a0,0x1f
    80003a9c:	c305                	beqz	a4,80003abc <__extendsfdf2+0x42>
    80003a9e:	38078793          	addi	a5,a5,896
    80003aa2:	0476                	slli	s0,s0,0x1d
    80003aa4:	0432                	slli	s0,s0,0xc
    80003aa6:	8031                	srli	s0,s0,0xc
    80003aa8:	17d2                	slli	a5,a5,0x34
    80003aaa:	60e2                	ld	ra,24(sp)
    80003aac:	8fc1                	or	a5,a5,s0
    80003aae:	6442                	ld	s0,16(sp)
    80003ab0:	03f49513          	slli	a0,s1,0x3f
    80003ab4:	8d5d                	or	a0,a0,a5
    80003ab6:	64a2                	ld	s1,8(sp)
    80003ab8:	6105                	addi	sp,sp,32
    80003aba:	8082                	ret
    80003abc:	ef89                	bnez	a5,80003ad6 <__extendsfdf2+0x5c>
    80003abe:	d07d                	beqz	s0,80003aa4 <__extendsfdf2+0x2a>
    80003ac0:	8522                	mv	a0,s0
    80003ac2:	0fc000ef          	jal	80003bbe <__clzdi2>
    80003ac6:	ff55079b          	addiw	a5,a0,-11
    80003aca:	00f41433          	sll	s0,s0,a5
    80003ace:	3a900793          	li	a5,937
    80003ad2:	9f89                	subw	a5,a5,a0
    80003ad4:	bfc1                	j	80003aa4 <__extendsfdf2+0x2a>
    80003ad6:	7ff00793          	li	a5,2047
    80003ada:	d469                	beqz	s0,80003aa4 <__extendsfdf2+0x2a>
    80003adc:	4705                	li	a4,1
    80003ade:	0476                	slli	s0,s0,0x1d
    80003ae0:	174e                	slli	a4,a4,0x33
    80003ae2:	8c59                	or	s0,s0,a4
    80003ae4:	b7c1                	j	80003aa4 <__extendsfdf2+0x2a>

0000000080003ae6 <__truncdfsf2>:
    80003ae6:	03455713          	srli	a4,a0,0x34
    80003aea:	7ff77713          	andi	a4,a4,2047
    80003aee:	00170613          	addi	a2,a4,1
    80003af2:	00c51793          	slli	a5,a0,0xc
    80003af6:	7fe67613          	andi	a2,a2,2046
    80003afa:	00c7d693          	srli	a3,a5,0xc
    80003afe:	917d                	srli	a0,a0,0x3f
    80003b00:	83a5                	srli	a5,a5,0x9
    80003b02:	c629                	beqz	a2,80003b4c <__truncdfsf2+0x66>
    80003b04:	c8070713          	addi	a4,a4,-896
    80003b08:	0fe00613          	li	a2,254
    80003b0c:	04e64c63          	blt	a2,a4,80003b64 <__truncdfsf2+0x7e>
    80003b10:	02e04863          	bgtz	a4,80003b40 <__truncdfsf2+0x5a>
    80003b14:	56a5                	li	a3,-23
    80003b16:	08d74963          	blt	a4,a3,80003ba8 <__truncdfsf2+0xc2>
    80003b1a:	4685                	li	a3,1
    80003b1c:	16de                	slli	a3,a3,0x37
    80003b1e:	8fd5                	or	a5,a5,a3
    80003b20:	46f9                	li	a3,30
    80003b22:	9e99                	subw	a3,a3,a4
    80003b24:	0227071b          	addiw	a4,a4,34
    80003b28:	00d7d6b3          	srl	a3,a5,a3
    80003b2c:	00e797b3          	sll	a5,a5,a4
    80003b30:	00f037b3          	snez	a5,a5
    80003b34:	8fd5                	or	a5,a5,a3
    80003b36:	4701                	li	a4,0
    80003b38:	0077f693          	andi	a3,a5,7
    80003b3c:	c69d                	beqz	a3,80003b6a <__truncdfsf2+0x84>
    80003b3e:	a0bd                	j	80003bac <__truncdfsf2+0xc6>
    80003b40:	169a                	slli	a3,a3,0x26
    80003b42:	83f5                	srli	a5,a5,0x1d
    80003b44:	00d036b3          	snez	a3,a3
    80003b48:	8fd5                	or	a5,a5,a3
    80003b4a:	b7fd                	j	80003b38 <__truncdfsf2+0x52>
    80003b4c:	e701                	bnez	a4,80003b54 <__truncdfsf2+0x6e>
    80003b4e:	00f037b3          	snez	a5,a5
    80003b52:	b7dd                	j	80003b38 <__truncdfsf2+0x52>
    80003b54:	0ff00713          	li	a4,255
    80003b58:	cb89                	beqz	a5,80003b6a <__truncdfsf2+0x84>
    80003b5a:	83f5                	srli	a5,a5,0x1d
    80003b5c:	9be1                	andi	a5,a5,-8
    80003b5e:	020006b7          	lui	a3,0x2000
    80003b62:	b7dd                	j	80003b48 <__truncdfsf2+0x62>
    80003b64:	4781                	li	a5,0
    80003b66:	0ff00713          	li	a4,255
    80003b6a:	02579693          	slli	a3,a5,0x25
    80003b6e:	0006db63          	bgez	a3,80003b84 <__truncdfsf2+0x9e>
    80003b72:	0705                	addi	a4,a4,1
    80003b74:	0ff00693          	li	a3,255
    80003b78:	04d70163          	beq	a4,a3,80003bba <__truncdfsf2+0xd4>
    80003b7c:	fc0006b7          	lui	a3,0xfc000
    80003b80:	16fd                	addi	a3,a3,-1 # fffffffffbffffff <__stack_pointer$+0xffffffff740003ff>
    80003b82:	8ff5                	and	a5,a5,a3
    80003b84:	0ff00693          	li	a3,255
    80003b88:	838d                	srli	a5,a5,0x3
    80003b8a:	00d71663          	bne	a4,a3,80003b96 <__truncdfsf2+0xb0>
    80003b8e:	c781                	beqz	a5,80003b96 <__truncdfsf2+0xb0>
    80003b90:	004007b7          	lui	a5,0x400
    80003b94:	4501                	li	a0,0
    80003b96:	0ff77713          	zext.b	a4,a4
    80003b9a:	0177171b          	slliw	a4,a4,0x17
    80003b9e:	8fd9                	or	a5,a5,a4
    80003ba0:	01f5151b          	slliw	a0,a0,0x1f
    80003ba4:	8d5d                	or	a0,a0,a5
    80003ba6:	8082                	ret
    80003ba8:	4785                	li	a5,1
    80003baa:	4701                	li	a4,0
    80003bac:	00f7f693          	andi	a3,a5,15
    80003bb0:	4611                	li	a2,4
    80003bb2:	fac68ce3          	beq	a3,a2,80003b6a <__truncdfsf2+0x84>
    80003bb6:	0791                	addi	a5,a5,4 # 400004 <_tbss_end+0x400004>
    80003bb8:	bf4d                	j	80003b6a <__truncdfsf2+0x84>
    80003bba:	4781                	li	a5,0
    80003bbc:	b7e1                	j	80003b84 <__truncdfsf2+0x9e>

0000000080003bbe <__clzdi2>:
    80003bbe:	03855793          	srli	a5,a0,0x38
    80003bc2:	eb8d                	bnez	a5,80003bf4 <__clzdi2+0x36>
    80003bc4:	03800793          	li	a5,56
    80003bc8:	17e1                	addi	a5,a5,-8
    80003bca:	c791                	beqz	a5,80003bd6 <__clzdi2+0x18>
    80003bcc:	00f55733          	srl	a4,a0,a5
    80003bd0:	0ff77713          	zext.b	a4,a4
    80003bd4:	db75                	beqz	a4,80003bc8 <__clzdi2+0xa>
    80003bd6:	04000713          	li	a4,64
    80003bda:	8f1d                	sub	a4,a4,a5
    80003bdc:	00f55533          	srl	a0,a0,a5
    80003be0:	00001797          	auipc	a5,0x1
    80003be4:	fc078793          	addi	a5,a5,-64 # 80004ba0 <__clz_tab>
    80003be8:	97aa                	add	a5,a5,a0
    80003bea:	0007c503          	lbu	a0,0(a5)
    80003bee:	40a7053b          	subw	a0,a4,a0
    80003bf2:	8082                	ret
    80003bf4:	03800793          	li	a5,56
    80003bf8:	bff9                	j	80003bd6 <__clzdi2+0x18>

Disassembly of section .text.strcpy:

0000000080003bfa <strcpy>:
    80003bfa:	00b567b3          	or	a5,a0,a1
    80003bfe:	8b9d                	andi	a5,a5,7
    80003c00:	e7d1                	bnez	a5,80003c8c <strcpy+0x92>
    80003c02:	0feff737          	lui	a4,0xfeff
    80003c06:	0712                	slli	a4,a4,0x4
    80003c08:	eff70713          	addi	a4,a4,-257 # fefeeff <_free_space+0x7f0b8d7>
    80003c0c:	0742                	slli	a4,a4,0x10
    80003c0e:	6194                	ld	a3,0(a1)
    80003c10:	eff70713          	addi	a4,a4,-257
    80003c14:	073e                	slli	a4,a4,0xf
    80003c16:	f7f70713          	addi	a4,a4,-129
    80003c1a:	00e6f7b3          	and	a5,a3,a4
    80003c1e:	97ba                	add	a5,a5,a4
    80003c20:	8fd5                	or	a5,a5,a3
    80003c22:	8fd9                	or	a5,a5,a4
    80003c24:	567d                	li	a2,-1
    80003c26:	06c79c63          	bne	a5,a2,80003c9e <strcpy+0xa4>
    80003c2a:	862a                	mv	a2,a0
    80003c2c:	587d                	li	a6,-1
    80003c2e:	e214                	sd	a3,0(a2)
    80003c30:	6594                	ld	a3,8(a1)
    80003c32:	05a1                	addi	a1,a1,8 # 4000008 <_HEAP_SIZE+0x64f4>
    80003c34:	0621                	addi	a2,a2,8
    80003c36:	00e6f7b3          	and	a5,a3,a4
    80003c3a:	97ba                	add	a5,a5,a4
    80003c3c:	8fd5                	or	a5,a5,a3
    80003c3e:	8fd9                	or	a5,a5,a4
    80003c40:	ff0787e3          	beq	a5,a6,80003c2e <strcpy+0x34>
    80003c44:	0005c783          	lbu	a5,0(a1)
    80003c48:	0015c703          	lbu	a4,1(a1)
    80003c4c:	0025c683          	lbu	a3,2(a1)
    80003c50:	00f60023          	sb	a5,0(a2)
    80003c54:	cb9d                	beqz	a5,80003c8a <strcpy+0x90>
    80003c56:	00e600a3          	sb	a4,1(a2)
    80003c5a:	cb05                	beqz	a4,80003c8a <strcpy+0x90>
    80003c5c:	0035c783          	lbu	a5,3(a1)
    80003c60:	00d60123          	sb	a3,2(a2)
    80003c64:	c29d                	beqz	a3,80003c8a <strcpy+0x90>
    80003c66:	0045c703          	lbu	a4,4(a1)
    80003c6a:	00f601a3          	sb	a5,3(a2)
    80003c6e:	cf91                	beqz	a5,80003c8a <strcpy+0x90>
    80003c70:	0055c783          	lbu	a5,5(a1)
    80003c74:	00e60223          	sb	a4,4(a2)
    80003c78:	cb09                	beqz	a4,80003c8a <strcpy+0x90>
    80003c7a:	0065c703          	lbu	a4,6(a1)
    80003c7e:	00f602a3          	sb	a5,5(a2)
    80003c82:	c781                	beqz	a5,80003c8a <strcpy+0x90>
    80003c84:	00e60323          	sb	a4,6(a2)
    80003c88:	ef09                	bnez	a4,80003ca2 <strcpy+0xa8>
    80003c8a:	8082                	ret
    80003c8c:	87aa                	mv	a5,a0
    80003c8e:	0005c703          	lbu	a4,0(a1)
    80003c92:	0785                	addi	a5,a5,1
    80003c94:	0585                	addi	a1,a1,1
    80003c96:	fee78fa3          	sb	a4,-1(a5)
    80003c9a:	fb75                	bnez	a4,80003c8e <strcpy+0x94>
    80003c9c:	8082                	ret
    80003c9e:	862a                	mv	a2,a0
    80003ca0:	b755                	j	80003c44 <strcpy+0x4a>
    80003ca2:	000603a3          	sb	zero,7(a2)
    80003ca6:	8082                	ret

Disassembly of section .rodata:

0000000080003ca8 <__rodata_start>:
    80003ca8:	650a                	ld	a0,128(sp)
    80003caa:	7478                	ld	a4,232(s0)
    80003cac:	6172                	ld	sp,280(sp)
    80003cae:	695f7463          	bgeu	t5,s5,80004336 <__rodata_start+0x68e>
    80003cb2:	5f65                	li	t5,-7
    80003cb4:	65646f63          	bltu	s0,s6,80004312 <__rodata_start+0x66a>
    80003cb8:	6520                	ld	s0,72(a0)
    80003cba:	746e                	ld	s0,248(sp)
    80003cbc:	7265                	lui	tp,0xffff9
    80003cbe:	6465                	lui	s0,0x19
    80003cc0:	000a                	c.slli	zero,0x2
    80003cc2:	0000                	unimp
    80003cc4:	0000                	unimp
    80003cc6:	0000                	unimp
    80003cc8:	7865                	lui	a6,0xffff9
    80003cca:	74706563          	bltu	zero,t2,80004414 <__rodata_start+0x76c>
    80003cce:	6f69                	lui	t5,0x1a
    80003cd0:	206e                	.insn	2, 0x206e
    80003cd2:	65646f63          	bltu	s0,s6,80004330 <__rodata_start+0x688>
    80003cd6:	3d20                	.insn	2, 0x3d20
    80003cd8:	2520                	.insn	2, 0x2520
    80003cda:	0a78                	addi	a4,sp,284
    80003cdc:	0000                	unimp
    80003cde:	0000                	unimp
    80003ce0:	7865                	lui	a6,0xffff9
    80003ce2:	7274                	ld	a3,224(a2)
    80003ce4:	6361                	lui	t1,0x18
    80003ce6:	5f74                	lw	a3,124(a4)
    80003ce8:	6569                	lui	a0,0x1a
    80003cea:	635f 646f 2065      	.insn	6, 0x2065646f635f
    80003cf0:	7865                	lui	a6,0xffff9
    80003cf2:	7469                	lui	s0,0xffffa
    80003cf4:	6465                	lui	s0,0x19
    80003cf6:	000a                	c.slli	zero,0x2
    80003cf8:	640a                	ld	s0,128(sp)
    80003cfa:	6665                	lui	a2,0x19
    80003cfc:	7561                	lui	a0,0xffff8
    80003cfe:	746c                	ld	a1,232(s0)
    80003d00:	685f 6e61 6c64      	.insn	6, 0x6c646e61685f
    80003d06:	7265                	lui	tp,0xffff9
    80003d08:	6520                	ld	s0,72(a0)
    80003d0a:	746e                	ld	s0,248(sp)
    80003d0c:	7265                	lui	tp,0xffff9
    80003d0e:	6465                	lui	s0,0x19
    80003d10:	000a                	c.slli	zero,0x2
    80003d12:	0000                	unimp
    80003d14:	0000                	unimp
    80003d16:	0000                	unimp
    80003d18:	680a                	ld	a6,128(sp)
    80003d1a:	6e61                	lui	t3,0x18
    80003d1c:	6c64                	ld	s1,216(s0)
    80003d1e:	5f65                	li	t5,-7
    80003d20:	7274                	ld	a3,224(a2)
    80003d22:	7061                	c.lui	zero,0xffff8
    80003d24:	6520                	ld	s0,72(a0)
    80003d26:	746e                	ld	s0,248(sp)
    80003d28:	7265                	lui	tp,0xffff9
    80003d2a:	6465                	lui	s0,0x19
    80003d2c:	000a                	c.slli	zero,0x2
    80003d2e:	0000                	unimp
    80003d30:	657a6973          	.insn	4, 0x657a6973
    80003d34:	7528666f          	jal	a2,8008a486 <__bss_end+0x7deae>
    80003d38:	6e69                	lui	t3,0x1a
    80003d3a:	7074                	ld	a3,224(s0)
    80003d3c:	7274                	ld	a3,224(a2)
    80003d3e:	2029                	.insn	2, 0x2029
    80003d40:	3d20                	.insn	2, 0x3d20
    80003d42:	2520                	.insn	2, 0x2520
    80003d44:	2064                	.insn	2, 0x2064
    80003d46:	000a                	c.slli	zero,0x2
    80003d48:	490a                	lw	s2,128(sp)
    80003d4a:	746e                	ld	s0,248(sp)
    80003d4c:	7265                	lui	tp,0xffff9
    80003d4e:	7572                	ld	a0,312(sp)
    80003d50:	7470                	ld	a2,232(s0)
    80003d52:	203a                	.insn	2, 0x203a
    80003d54:	636d                	lui	t1,0x1b
    80003d56:	7561                	lui	a0,0xffff8
    80003d58:	3d206573          	.insn	4, 0x3d206573
    80003d5c:	2520                	.insn	2, 0x2520
    80003d5e:	2c78                	.insn	2, 0x2c78
    80003d60:	6520                	ld	s0,72(a0)
    80003d62:	6370                	ld	a2,192(a4)
    80003d64:	3d20                	.insn	2, 0x3d20
    80003d66:	2520                	.insn	2, 0x2520
    80003d68:	0a78                	addi	a4,sp,284
    80003d6a:	0000                	unimp
    80003d6c:	0000                	unimp
    80003d6e:	0000                	unimp
    80003d70:	450a                	lw	a0,128(sp)
    80003d72:	6378                	ld	a4,192(a4)
    80003d74:	7065                	c.lui	zero,0xffff9
    80003d76:	6974                	ld	a3,208(a0)
    80003d78:	203a6e6f          	jal	t3,800aa77a <__bss_end+0x9e1a2>
    80003d7c:	636d                	lui	t1,0x1b
    80003d7e:	7561                	lui	a0,0xffff8
    80003d80:	3d206573          	.insn	4, 0x3d206573
    80003d84:	2520                	.insn	2, 0x2520
    80003d86:	2c78                	.insn	2, 0x2c78
    80003d88:	6520                	ld	s0,72(a0)
    80003d8a:	6370                	ld	a2,192(a4)
    80003d8c:	3d20                	.insn	2, 0x3d20
    80003d8e:	2520                	.insn	2, 0x2520
    80003d90:	0a78                	addi	a4,sp,284
    80003d92:	0000                	unimp
    80003d94:	0000                	unimp
    80003d96:	0000                	unimp
    80003d98:	6168                	ld	a0,192(a0)
    80003d9a:	646e                	ld	s0,216(sp)
    80003d9c:	656c                	ld	a1,200(a0)
    80003d9e:	745f 6172 2070      	.insn	6, 0x20706172745f
    80003da4:	7865                	lui	a6,0xffff9
    80003da6:	7469                	lui	s0,0xffffa
    80003da8:	6465                	lui	s0,0x19
    80003daa:	000a                	c.slli	zero,0x2
    80003dac:	0000                	unimp
    80003dae:	0000                	unimp
    80003db0:	200a                	.insn	2, 0x200a
    80003db2:	6170                	ld	a2,192(a0)
    80003db4:	696e                	ld	s2,216(sp)
    80003db6:	000a2063          	.insn	4, 0x000a2063
    80003dba:	0000                	unimp
    80003dbc:	0000                	unimp
    80003dbe:	0000                	unimp
    80003dc0:	6e28                	ld	a0,88(a2)
    80003dc2:	6c75                	lui	s8,0x1d
    80003dc4:	296c                	.insn	2, 0x296c
    80003dc6:	0000                	unimp
    80003dc8:	c846                	sw	a7,16(sp)
    80003dca:	ffff                	.insn	2, 0xffff
    80003dcc:	c88e                	sw	gp,80(sp)
    80003dce:	ffff                	.insn	2, 0xffff
    80003dd0:	cacc                	sw	a1,20(a3)
    80003dd2:	ffff                	.insn	2, 0xffff
    80003dd4:	c916                	sw	t0,144(sp)
    80003dd6:	ffff                	.insn	2, 0xffff
    80003dd8:	cacc                	sw	a1,20(a3)
    80003dda:	ffff                	.insn	2, 0xffff
    80003ddc:	cacc                	sw	a1,20(a3)
    80003dde:	ffff                	.insn	2, 0xffff
    80003de0:	cacc                	sw	a1,20(a3)
    80003de2:	ffff                	.insn	2, 0xffff
    80003de4:	cacc                	sw	a1,20(a3)
    80003de6:	ffff                	.insn	2, 0xffff
    80003de8:	cacc                	sw	a1,20(a3)
    80003dea:	ffff                	.insn	2, 0xffff
    80003dec:	c834                	sw	a3,80(s0)
    80003dee:	ffff                	.insn	2, 0xffff
    80003df0:	cacc                	sw	a1,20(a3)
    80003df2:	ffff                	.insn	2, 0xffff
    80003df4:	cacc                	sw	a1,20(a3)
    80003df6:	ffff                	.insn	2, 0xffff
    80003df8:	c9f0                	sw	a2,84(a1)
    80003dfa:	ffff                	.insn	2, 0xffff
    80003dfc:	cacc                	sw	a1,20(a3)
    80003dfe:	ffff                	.insn	2, 0xffff
    80003e00:	cacc                	sw	a1,20(a3)
    80003e02:	ffff                	.insn	2, 0xffff
    80003e04:	cacc                	sw	a1,20(a3)
    80003e06:	ffff                	.insn	2, 0xffff
    80003e08:	c85c                	sw	a5,20(s0)
    80003e0a:	ffff                	.insn	2, 0xffff
    80003e0c:	cacc                	sw	a1,20(a3)
    80003e0e:	ffff                	.insn	2, 0xffff
    80003e10:	c986                	sw	ra,208(sp)
    80003e12:	ffff                	.insn	2, 0xffff
    80003e14:	cacc                	sw	a1,20(a3)
    80003e16:	ffff                	.insn	2, 0xffff
    80003e18:	cacc                	sw	a1,20(a3)
    80003e1a:	ffff                	.insn	2, 0xffff
    80003e1c:	ca5a                	sw	s6,20(sp)
    80003e1e:	ffff                	.insn	2, 0xffff
    80003e20:	7274                	ld	a3,224(a2)
    80003e22:	7061                	c.lui	zero,0xffff8
    80003e24:	695f 696e 2074      	.insn	6, 0x2074696e695f
    80003e2a:	6e65                	lui	t3,0x19
    80003e2c:	6574                	ld	a3,200(a0)
    80003e2e:	6572                	ld	a0,280(sp)
    80003e30:	2064                	.insn	2, 0x2064
    80003e32:	200a                	.insn	2, 0x200a
    80003e34:	0000                	unimp
    80003e36:	0000                	unimp
    80003e38:	7274                	ld	a3,224(a2)
    80003e3a:	7061                	c.lui	zero,0xffff8
    80003e3c:	695f 696e 2074      	.insn	6, 0x2074696e695f
    80003e42:	7865                	lui	a6,0xffff9
    80003e44:	7469                	lui	s0,0xffffa
    80003e46:	6465                	lui	s0,0x19
    80003e48:	0a20                	addi	s0,sp,280
    80003e4a:	0020                	addi	s0,sp,8
    80003e4c:	0000                	unimp
    80003e4e:	0000                	unimp
    80003e50:	6e69                	lui	t3,0x1a
    80003e52:	7469                	lui	s0,0xffffa
    80003e54:	6520                	ld	s0,72(a0)
    80003e56:	746e                	ld	s0,248(sp)
    80003e58:	7265                	lui	tp,0xffff9
    80003e5a:	6465                	lui	s0,0x19
    80003e5c:	0a20                	addi	s0,sp,280
    80003e5e:	0020                	addi	s0,sp,8
    80003e60:	6e69                	lui	t3,0x1a
    80003e62:	7469                	lui	s0,0xffffa
    80003e64:	6520                	ld	s0,72(a0)
    80003e66:	6978                	ld	a4,208(a0)
    80003e68:	6574                	ld	a3,200(a0)
    80003e6a:	0a64                	addi	s1,sp,284
    80003e6c:	0000                	unimp
    80003e6e:	0000                	unimp
    80003e70:	6461                	lui	s0,0x18
    80003e72:	7264                	ld	s1,224(a2)
    80003e74:	3d20                	.insn	2, 0x3d20
    80003e76:	2520                	.insn	2, 0x2520
    80003e78:	2078                	.insn	2, 0x2078
    80003e7a:	6164                	ld	s1,192(a0)
    80003e7c:	6174                	ld	a3,192(a0)
    80003e7e:	3d20                	.insn	2, 0x3d20
    80003e80:	2520                	.insn	2, 0x2520
    80003e82:	0a78                	addi	a4,sp,284
    80003e84:	0000                	unimp
    80003e86:	0000                	unimp
    80003e88:	af48                	.insn	2, 0xaf48
    80003e8a:	9abc                	.insn	2, 0x9abc
    80003e8c:	d7f2                	sw	t3,236(sp)
    80003e8e:	3e7a                	.insn	2, 0x3e7a
    80003e90:	630a                	ld	t1,128(sp)
    80003e92:	69666e6f          	jal	t3,8006a528 <__bss_end+0x5df50>
    80003e96:	65727567          	.insn	4, 0x65727567
    80003e9a:	635f 756f 746e      	.insn	6, 0x746e756f635f
    80003ea0:	7265                	lui	tp,0xffff9
    80003ea2:	6520                	ld	s0,72(a0)
    80003ea4:	746e                	ld	s0,248(sp)
    80003ea6:	7265                	lui	tp,0xffff9
    80003ea8:	6465                	lui	s0,0x19
    80003eaa:	000a                	c.slli	zero,0x2
    80003eac:	0000                	unimp
    80003eae:	0000                	unimp
    80003eb0:	746d                	lui	s0,0xffffb
    80003eb2:	6d69                	lui	s10,0x1a
    80003eb4:	6365                	lui	t1,0x19
    80003eb6:	706d                	c.lui	zero,0xffffb
    80003eb8:	7620                	ld	s0,104(a2)
    80003eba:	6c61                	lui	s8,0x18
    80003ebc:	6575                	lui	a0,0x1d
    80003ebe:	3d20                	.insn	2, 0x3d20
    80003ec0:	2520                	.insn	2, 0x2520
    80003ec2:	0a64                	addi	s1,sp,284
    80003ec4:	0000                	unimp
    80003ec6:	0000                	unimp
    80003ec8:	746d                	lui	s0,0xffffb
    80003eca:	6d69                	lui	s10,0x1a
    80003ecc:	2065                	.insn	2, 0x2065
    80003ece:	6176                	ld	sp,344(sp)
    80003ed0:	756c                	ld	a1,232(a0)
    80003ed2:	2065                	.insn	2, 0x2065
    80003ed4:	203d                	.insn	2, 0x203d
    80003ed6:	6425                	lui	s0,0x9
    80003ed8:	000a                	c.slli	zero,0x2
    80003eda:	0000                	unimp
    80003edc:	0000                	unimp
    80003ede:	0000                	unimp
    80003ee0:	630a                	ld	t1,128(sp)
    80003ee2:	69666e6f          	jal	t3,8006a578 <__bss_end+0x5dfa0>
    80003ee6:	65727567          	.insn	4, 0x65727567
    80003eea:	635f 756f 746e      	.insn	6, 0x746e756f635f
    80003ef0:	7265                	lui	tp,0xffff9
    80003ef2:	6520                	ld	s0,72(a0)
    80003ef4:	6978                	ld	a4,208(a0)
    80003ef6:	6574                	ld	a3,200(a0)
    80003ef8:	0a64                	addi	s1,sp,284
    80003efa:	0000                	unimp
    80003efc:	0000                	unimp
    80003efe:	0000                	unimp
    80003f00:	6d0a                	ld	s10,128(sp)
    80003f02:	6361                	lui	t1,0x18
    80003f04:	5f68                	lw	a0,124(a4)
    80003f06:	6e696c63          	bltu	s2,t1,800045fe <__rodata_start+0x956>
    80003f0a:	5f74                	lw	a3,124(a4)
    80003f0c:	6168                	ld	a0,192(a0)
    80003f0e:	646e                	ld	s0,216(sp)
    80003f10:	656c                	ld	a1,200(a0)
    80003f12:	2072                	.insn	2, 0x2072
    80003f14:	6e65                	lui	t3,0x19
    80003f16:	6574                	ld	a3,200(a0)
    80003f18:	6572                	ld	a0,280(sp)
    80003f1a:	0a64                	addi	s1,sp,284
    80003f1c:	0000                	unimp
    80003f1e:	0000                	unimp
    80003f20:	2031                	.insn	2, 0x2031
    80003f22:	6f636573          	.insn	4, 0x6f636573
    80003f26:	646e                	ld	s0,216(sp)
    80003f28:	6520                	ld	s0,72(a0)
    80003f2a:	616c                	ld	a1,192(a0)
    80003f2c:	7370                	ld	a2,224(a4)
    80003f2e:	6465                	lui	s0,0x19
    80003f30:	0a2e                	slli	s4,s4,0xb
    80003f32:	0000                	unimp
    80003f34:	0000                	unimp
    80003f36:	0000                	unimp
    80003f38:	6954                	ld	a3,144(a0)
    80003f3a:	656d                	lui	a0,0x1b
    80003f3c:	2072                	.insn	2, 0x2072
    80003f3e:	6e69                	lui	t3,0x1a
    80003f40:	6574                	ld	a3,200(a0)
    80003f42:	7272                	ld	tp,312(sp)
    80003f44:	7075                	c.lui	zero,0xffffd
    80003f46:	2074                	.insn	2, 0x2074
    80003f48:	6168                	ld	a0,192(a0)
    80003f4a:	646e                	ld	s0,216(sp)
    80003f4c:	656c                	ld	a1,200(a0)
    80003f4e:	2064                	.insn	2, 0x2064
    80003f50:	000a                	c.slli	zero,0x2
    80003f52:	0000                	unimp
    80003f54:	0000                	unimp
    80003f56:	0000                	unimp
    80003f58:	616d                	addi	sp,sp,240
    80003f5a:	635f6863          	bltu	t5,s5,8000458a <__rodata_start+0x8e2>
    80003f5e:	696c                	ld	a1,208(a0)
    80003f60:	746e                	ld	s0,248(sp)
    80003f62:	685f 6e61 6c64      	.insn	6, 0x6c646e61685f
    80003f68:	7265                	lui	tp,0xffff9
    80003f6a:	6520                	ld	s0,72(a0)
    80003f6c:	6978                	ld	a4,208(a0)
    80003f6e:	6574                	ld	a3,200(a0)
    80003f70:	0a64                	addi	s1,sp,284
    80003f72:	0000                	unimp
    80003f74:	0000                	unimp
    80003f76:	0000                	unimp
    80003f78:	690a                	ld	s2,128(sp)
    80003f7a:	746e                	ld	s0,248(sp)
    80003f7c:	7265                	lui	tp,0xffff9
    80003f7e:	7572                	ld	a0,312(sp)
    80003f80:	7470                	ld	a2,232(s0)
    80003f82:	635f 6d6f 6c70      	.insn	6, 0x6c706d6f635f
    80003f88:	7465                	lui	s0,0xffff9
    80003f8a:	2065                	.insn	2, 0x2065
    80003f8c:	6e65                	lui	t3,0x19
    80003f8e:	6574                	ld	a3,200(a0)
    80003f90:	6572                	ld	a0,280(sp)
    80003f92:	0a64                	addi	s1,sp,284
    80003f94:	0000                	unimp
    80003f96:	0000                	unimp
    80003f98:	6e69                	lui	t3,0x1a
    80003f9a:	6574                	ld	a3,200(a0)
    80003f9c:	7272                	ld	tp,312(sp)
    80003f9e:	7075                	c.lui	zero,0xffffd
    80003fa0:	2074                	.insn	2, 0x2074
    80003fa2:	6469                	lui	s0,0x1a
    80003fa4:	2520                	.insn	2, 0x2520
    80003fa6:	2c64                	.insn	2, 0x2c64
    80003fa8:	7320                	ld	s0,96(a4)
    80003faa:	6174                	ld	a3,192(a0)
    80003fac:	6574                	ld	a3,200(a0)
    80003fae:	6320                	ld	s0,64(a4)
    80003fb0:	6168                	ld	a0,192(a0)
    80003fb2:	676e                	ld	a4,216(sp)
    80003fb4:	6465                	lui	s0,0x19
    80003fb6:	7420                	ld	s0,104(s0)
    80003fb8:	6425206f          	j	800565fa <__bss_end+0x4a022>
    80003fbc:	000a                	c.slli	zero,0x2
    80003fbe:	0000                	unimp
    80003fc0:	6e69                	lui	t3,0x1a
    80003fc2:	6574                	ld	a3,200(a0)
    80003fc4:	7272                	ld	tp,312(sp)
    80003fc6:	7075                	c.lui	zero,0xffffd
    80003fc8:	2074                	.insn	2, 0x2074
    80003fca:	6469                	lui	s0,0x1a
    80003fcc:	3d20                	.insn	2, 0x3d20
    80003fce:	2520                	.insn	2, 0x2520
    80003fd0:	2078                	.insn	2, 0x2078
    80003fd2:	200a                	.insn	2, 0x200a
    80003fd4:	6572                	ld	a0,280(sp)
    80003fd6:	20746573          	.insn	4, 0x20746573
    80003fda:	6f74                	ld	a3,216(a4)
    80003fdc:	6420                	ld	s0,72(s0)
    80003fde:	6665                	lui	a2,0x19
    80003fe0:	7561                	lui	a0,0xffff8
    80003fe2:	746c                	ld	a1,232(s0)
    80003fe4:	7620                	ld	s0,104(a2)
    80003fe6:	6c61                	lui	s8,0x18
    80003fe8:	6575                	lui	a0,0x1d
    80003fea:	74732073          	.insn	4, 0x74732073
    80003fee:	7461                	lui	s0,0xffff8
    80003ff0:	2065                	.insn	2, 0x2065
    80003ff2:	203d                	.insn	2, 0x203d
    80003ff4:	7825                	lui	a6,0xfffe9
    80003ff6:	0920                	addi	s0,sp,152
    80003ff8:	2009                	.insn	2, 0x2009
    80003ffa:	0a20                	addi	s0,sp,280
    80003ffc:	7020                	ld	s0,96(s0)
    80003ffe:	6972                	ld	s2,280(sp)
    80004000:	7469726f          	jal	tp,8009b746 <__bss_end+0x8f16e>
    80004004:	2079                	.insn	2, 0x2079
    80004006:	203d                	.insn	2, 0x203d
    80004008:	7825                	lui	a6,0xfffe9
    8000400a:	200a                	.insn	2, 0x200a
    8000400c:	6e756f63          	bltu	a0,t2,8000470a <__rodata_start+0xa62>
    80004010:	2074                	.insn	2, 0x2074
    80004012:	203d                	.insn	2, 0x203d
    80004014:	7825                	lui	a6,0xfffe9
    80004016:	000a                	c.slli	zero,0x2
    80004018:	6e69                	lui	t3,0x1a
    8000401a:	6574                	ld	a3,200(a0)
    8000401c:	7272                	ld	tp,312(sp)
    8000401e:	7075                	c.lui	zero,0xffffd
    80004020:	5f74                	lw	a3,124(a4)
    80004022:	706d6f63          	bltu	s10,t1,80004740 <__rodata_start+0xa98>
    80004026:	656c                	ld	a1,200(a0)
    80004028:	6574                	ld	a3,200(a0)
    8000402a:	6520                	ld	s0,72(a0)
    8000402c:	6978                	ld	a4,208(a0)
    8000402e:	6574                	ld	a3,200(a0)
    80004030:	0a64                	addi	s1,sp,284
    80004032:	0000                	unimp
    80004034:	0000                	unimp
    80004036:	0000                	unimp
    80004038:	690a                	ld	s2,128(sp)
    8000403a:	746e                	ld	s0,248(sp)
    8000403c:	7265                	lui	tp,0xffff9
    8000403e:	7572                	ld	a0,312(sp)
    80004040:	7470                	ld	a2,232(s0)
    80004042:	635f 616c 6d69      	.insn	6, 0x6d69616c635f
    80004048:	725f 7165 6575      	.insn	6, 0x65757165725f
    8000404e:	65207473          	.insn	4, 0x65207473
    80004052:	746e                	ld	s0,248(sp)
    80004054:	7265                	lui	tp,0xffff9
    80004056:	6465                	lui	s0,0x19
    80004058:	000a                	c.slli	zero,0x2
    8000405a:	0000                	unimp
    8000405c:	0000                	unimp
    8000405e:	0000                	unimp
    80004060:	6e69                	lui	t3,0x1a
    80004062:	6574                	ld	a3,200(a0)
    80004064:	7272                	ld	tp,312(sp)
    80004066:	7075                	c.lui	zero,0xffffd
    80004068:	2074                	.insn	2, 0x2074
    8000406a:	6469                	lui	s0,0x1a
    8000406c:	5b20                	lw	s0,112(a4)
    8000406e:	7825                	lui	a6,0xfffe9
    80004070:	205d                	.insn	2, 0x205d
    80004072:	69616c63          	bltu	sp,s6,8000470a <__rodata_start+0xa62>
    80004076:	656d                	lui	a0,0x1b
    80004078:	2064                	.insn	2, 0x2064
    8000407a:	6120                	ld	s0,64(a0)
    8000407c:	2074                	.insn	2, 0x2074
    8000407e:	6461                	lui	s0,0x18
    80004080:	7264                	ld	s1,224(a2)
    80004082:	7365                	lui	t1,0xffff9
    80004084:	78252073          	.insn	4, 0x78252073
    80004088:	000a                	c.slli	zero,0x2
    8000408a:	0000                	unimp
    8000408c:	0000                	unimp
    8000408e:	0000                	unimp
    80004090:	6e69                	lui	t3,0x1a
    80004092:	6574                	ld	a3,200(a0)
    80004094:	7272                	ld	tp,312(sp)
    80004096:	7075                	c.lui	zero,0xffffd
    80004098:	5f74                	lw	a3,124(a4)
    8000409a:	69616c63          	bltu	sp,s6,80004732 <__rodata_start+0xa8a>
    8000409e:	5f6d                	li	t5,-5
    800040a0:	6572                	ld	a0,280(sp)
    800040a2:	7571                	lui	a0,0xffffc
    800040a4:	7365                	lui	t1,0xffff9
    800040a6:	2074                	.insn	2, 0x2074
    800040a8:	7865                	lui	a6,0xffff9
    800040aa:	7469                	lui	s0,0xffffa
    800040ac:	6465                	lui	s0,0x19
    800040ae:	000a                	c.slli	zero,0x2
    800040b0:	6d0a                	ld	s10,128(sp)
    800040b2:	6361                	lui	t1,0x18
    800040b4:	5f68                	lw	a0,124(a4)
    800040b6:	6c70                	ld	a2,216(s0)
    800040b8:	6369                	lui	t1,0x1a
    800040ba:	685f 6e61 6c64      	.insn	6, 0x6c646e61685f
    800040c0:	7265                	lui	tp,0xffff9
    800040c2:	6520                	ld	s0,72(a0)
    800040c4:	746e                	ld	s0,248(sp)
    800040c6:	7265                	lui	tp,0xffff9
    800040c8:	6465                	lui	s0,0x19
    800040ca:	000a                	c.slli	zero,0x2
    800040cc:	0000                	unimp
    800040ce:	0000                	unimp
    800040d0:	6e69                	lui	t3,0x1a
    800040d2:	6574                	ld	a3,200(a0)
    800040d4:	7272                	ld	tp,312(sp)
    800040d6:	7075                	c.lui	zero,0xffffd
    800040d8:	2074                	.insn	2, 0x2074
    800040da:	6469                	lui	s0,0x1a
    800040dc:	6320                	ld	s0,64(a4)
    800040de:	616c                	ld	a1,192(a0)
    800040e0:	6d69                	lui	s10,0x1a
    800040e2:	6465                	lui	s0,0x19
    800040e4:	3d20                	.insn	2, 0x3d20
    800040e6:	2520                	.insn	2, 0x2520
    800040e8:	0a78                	addi	a4,sp,284
    800040ea:	0000                	unimp
    800040ec:	0000                	unimp
    800040ee:	0000                	unimp
    800040f0:	6146                	ld	sp,80(sp)
    800040f2:	6174                	ld	a3,192(a0)
    800040f4:	206c                	.insn	2, 0x206c
    800040f6:	7265                	lui	tp,0xffff9
    800040f8:	6f72                	ld	t5,280(sp)
    800040fa:	2c72                	.insn	2, 0x2c72
    800040fc:	6920                	ld	s0,80(a0)
    800040fe:	746e                	ld	s0,248(sp)
    80004100:	7265                	lui	tp,0xffff9
    80004102:	7572                	ld	a0,312(sp)
    80004104:	7470                	ld	a2,232(s0)
    80004106:	6920                	ld	s0,80(a0)
    80004108:	2064                	.insn	2, 0x2064
    8000410a:	5d78255b          	.insn	4, 0x5d78255b
    8000410e:	6320                	ld	s0,64(a4)
    80004110:	616c                	ld	a1,192(a0)
    80004112:	6d69                	lui	s10,0x1a
    80004114:	6465                	lui	s0,0x19
    80004116:	6920                	ld	s0,80(a0)
    80004118:	72772073          	.insn	4, 0x72772073
    8000411c:	0a676e6f          	jal	t3,8007a1c2 <__bss_end+0x6dbea>
	...
    80004128:	6e69                	lui	t3,0x1a
    8000412a:	6574                	ld	a3,200(a0)
    8000412c:	7272                	ld	tp,312(sp)
    8000412e:	7075                	c.lui	zero,0xffffd
    80004130:	2074                	.insn	2, 0x2074
    80004132:	6469                	lui	s0,0x1a
    80004134:	2520                	.insn	2, 0x2520
    80004136:	2064                	.insn	2, 0x2064
    80004138:	706d6f63          	bltu	s10,t1,80004856 <__rodata_start+0xbae>
    8000413c:	656c                	ld	a1,200(a0)
    8000413e:	6574                	ld	a3,200(a0)
    80004140:	0a20                	addi	s0,sp,280
    80004142:	0000                	unimp
    80004144:	0000                	unimp
    80004146:	0000                	unimp
    80004148:	6d0a                	ld	s10,128(sp)
    8000414a:	6361                	lui	t1,0x18
    8000414c:	5f68                	lw	a0,124(a4)
    8000414e:	6c70                	ld	a2,216(s0)
    80004150:	6369                	lui	t1,0x1a
    80004152:	685f 6e61 6c64      	.insn	6, 0x6c646e61685f
    80004158:	7265                	lui	tp,0xffff9
    8000415a:	6520                	ld	s0,72(a0)
    8000415c:	6978                	ld	a4,208(a0)
    8000415e:	6574                	ld	a3,200(a0)
    80004160:	0a64                	addi	s1,sp,284
    80004162:	0000                	unimp
    80004164:	0000                	unimp
    80004166:	0000                	unimp
    80004168:	690a                	ld	s2,128(sp)
    8000416a:	645f7273          	.insn	4, 0x645f7273
    8000416e:	6665                	lui	a2,0x19
    80004170:	7561                	lui	a0,0xffff8
    80004172:	746c                	ld	a1,232(s0)
    80004174:	6520                	ld	s0,72(a0)
    80004176:	746e                	ld	s0,248(sp)
    80004178:	7265                	lui	tp,0xffff9
    8000417a:	6465                	lui	s0,0x19
    8000417c:	000a                	c.slli	zero,0x2
    8000417e:	0000                	unimp
    80004180:	6e69                	lui	t3,0x1a
    80004182:	6574                	ld	a3,200(a0)
    80004184:	7272                	ld	tp,312(sp)
    80004186:	7075                	c.lui	zero,0xffffd
    80004188:	2074                	.insn	2, 0x2074
    8000418a:	5d64255b          	.insn	4, 0x5d64255b
    8000418e:	7320                	ld	s0,96(a4)
    80004190:	7265                	lui	tp,0xffff9
    80004192:	6976                	ld	s2,344(sp)
    80004194:	0a646563          	bltu	s0,t1,8000423e <__rodata_start+0x596>
	...
    800041a0:	690a                	ld	s2,128(sp)
    800041a2:	645f7273          	.insn	4, 0x645f7273
    800041a6:	6665                	lui	a2,0x19
    800041a8:	7561                	lui	a0,0xffff8
    800041aa:	746c                	ld	a1,232(s0)
    800041ac:	6520                	ld	s0,72(a0)
    800041ae:	6978                	ld	a4,208(a0)
    800041b0:	6574                	ld	a3,200(a0)
    800041b2:	0a64                	addi	s1,sp,284
    800041b4:	0000                	unimp
    800041b6:	0000                	unimp
    800041b8:	690a                	ld	s2,128(sp)
    800041ba:	746e                	ld	s0,248(sp)
    800041bc:	7265                	lui	tp,0xffff9
    800041be:	7572                	ld	a0,312(sp)
    800041c0:	7470                	ld	a2,232(s0)
    800041c2:	655f 616e 6c62      	.insn	6, 0x6c62616e655f
    800041c8:	2065                	.insn	2, 0x2065
    800041ca:	6e65                	lui	t3,0x19
    800041cc:	6574                	ld	a3,200(a0)
    800041ce:	6572                	ld	a0,280(sp)
    800041d0:	2064                	.insn	2, 0x2064
    800041d2:	000a                	c.slli	zero,0x2
    800041d4:	0000                	unimp
    800041d6:	0000                	unimp
    800041d8:	6e69                	lui	t3,0x1a
    800041da:	6574                	ld	a3,200(a0)
    800041dc:	7272                	ld	tp,312(sp)
    800041de:	7075                	c.lui	zero,0xffffd
    800041e0:	5f74                	lw	a3,124(a4)
    800041e2:	6469                	lui	s0,0x1a
    800041e4:	3d20                	.insn	2, 0x3d20
    800041e6:	2520                	.insn	2, 0x2520
    800041e8:	0a78                	addi	a4,sp,284
    800041ea:	0000                	unimp
    800041ec:	0000                	unimp
    800041ee:	0000                	unimp
    800041f0:	4c50                	lw	a2,28(s0)
    800041f2:	4349                	li	t1,18
    800041f4:	4220                	lw	s0,64(a2)
    800041f6:	5341                	li	t1,-16
    800041f8:	2045                	.insn	2, 0x2045
    800041fa:	4441                	li	s0,16
    800041fc:	5244                	lw	s1,36(a2)
    800041fe:	5345                	li	t1,-15
    80004200:	203d2053          	.insn	4, 0x203d2053
    80004204:	7825                	lui	a6,0xfffe9
    80004206:	202c                	.insn	2, 0x202c
    80004208:	4c50                	lw	a2,28(s0)
    8000420a:	4349                	li	t1,18
    8000420c:	4520                	lw	s0,72(a0)
    8000420e:	414e                	lw	sp,208(sp)
    80004210:	4c42                	lw	s8,16(sp)
    80004212:	2045                	.insn	2, 0x2045
    80004214:	5346464f          	.insn	4, 0x5346464f
    80004218:	5445                	li	s0,-15
    8000421a:	3d20                	.insn	2, 0x3d20
    8000421c:	2520                	.insn	2, 0x2520
    8000421e:	0a78                	addi	a4,sp,284
	...
    80004228:	6e69                	lui	t3,0x1a
    8000422a:	6574                	ld	a3,200(a0)
    8000422c:	7272                	ld	tp,312(sp)
    8000422e:	7075                	c.lui	zero,0xffffd
    80004230:	5f74                	lw	a3,124(a4)
    80004232:	6e65                	lui	t3,0x19
    80004234:	6261                	lui	tp,0x18
    80004236:	656c                	ld	a1,200(a0)
    80004238:	615f 6464 2072      	.insn	6, 0x20726464615f
    8000423e:	203d                	.insn	2, 0x203d
    80004240:	7825                	lui	a6,0xfffe9
    80004242:	6320                	ld	s0,64(a4)
    80004244:	7275                	lui	tp,0xffffd
    80004246:	6572                	ld	a0,280(sp)
    80004248:	746e                	ld	s0,248(sp)
    8000424a:	765f 6c61 6575      	.insn	6, 0x65756c61765f
    80004250:	3d20                	.insn	2, 0x3d20
    80004252:	2520                	.insn	2, 0x2520
    80004254:	2078                	.insn	2, 0x2078
    80004256:	000a                	c.slli	zero,0x2
    80004258:	6176                	ld	sp,344(sp)
    8000425a:	756c                	ld	a1,232(a0)
    8000425c:	2065                	.insn	2, 0x2065
    8000425e:	6572                	ld	a0,280(sp)
    80004260:	6461                	lui	s0,0x18
    80004262:	203a                	.insn	2, 0x203a
    80004264:	656e                	ld	a0,216(sp)
    80004266:	61765f77          	.insn	4, 0x61765f77
    8000426a:	756c                	ld	a1,232(a0)
    8000426c:	2065                	.insn	2, 0x2065
    8000426e:	203d                	.insn	2, 0x203d
    80004270:	7825                	lui	a6,0xfffe9
    80004272:	000a                	c.slli	zero,0x2
    80004274:	0000                	unimp
    80004276:	0000                	unimp
    80004278:	690a                	ld	s2,128(sp)
    8000427a:	746e                	ld	s0,248(sp)
    8000427c:	7265                	lui	tp,0xffff9
    8000427e:	7572                	ld	a0,312(sp)
    80004280:	7470                	ld	a2,232(s0)
    80004282:	655f 616e 6c62      	.insn	6, 0x6c62616e655f
    80004288:	2065                	.insn	2, 0x2065
    8000428a:	7865                	lui	a6,0xffff9
    8000428c:	7469                	lui	s0,0xffffa
    8000428e:	6465                	lui	s0,0x19
    80004290:	0a20                	addi	s0,sp,280
    80004292:	0000                	unimp
    80004294:	0000                	unimp
    80004296:	0000                	unimp
    80004298:	690a                	ld	s2,128(sp)
    8000429a:	746e                	ld	s0,248(sp)
    8000429c:	7265                	lui	tp,0xffff9
    8000429e:	7572                	ld	a0,312(sp)
    800042a0:	7470                	ld	a2,232(s0)
    800042a2:	645f 7369 6261      	.insn	6, 0x62617369645f
    800042a8:	656c                	ld	a1,200(a0)
    800042aa:	6520                	ld	s0,72(a0)
    800042ac:	746e                	ld	s0,248(sp)
    800042ae:	7265                	lui	tp,0xffff9
    800042b0:	6465                	lui	s0,0x19
    800042b2:	0a20                	addi	s0,sp,280
    800042b4:	0000                	unimp
    800042b6:	0000                	unimp
    800042b8:	4c50                	lw	a2,28(s0)
    800042ba:	4349                	li	t1,18
    800042bc:	4220                	lw	s0,64(a2)
    800042be:	5341                	li	t1,-16
    800042c0:	2045                	.insn	2, 0x2045
    800042c2:	4441                	li	s0,16
    800042c4:	5244                	lw	s1,36(a2)
    800042c6:	5345                	li	t1,-15
    800042c8:	203d2053          	.insn	4, 0x203d2053
    800042cc:	7825                	lui	a6,0xfffe9
    800042ce:	202c                	.insn	2, 0x202c
    800042d0:	4c50                	lw	a2,28(s0)
    800042d2:	4349                	li	t1,18
    800042d4:	4520                	lw	s0,72(a0)
    800042d6:	414e                	lw	sp,208(sp)
    800042d8:	4c42                	lw	s8,16(sp)
    800042da:	2045                	.insn	2, 0x2045
    800042dc:	5346464f          	.insn	4, 0x5346464f
    800042e0:	5445                	li	s0,-15
    800042e2:	3d20                	.insn	2, 0x3d20
    800042e4:	2520                	.insn	2, 0x2520
    800042e6:	2078                	.insn	2, 0x2078
    800042e8:	6e69                	lui	t3,0x1a
    800042ea:	6574                	ld	a3,200(a0)
    800042ec:	7272                	ld	tp,312(sp)
    800042ee:	7075                	c.lui	zero,0xffffd
    800042f0:	5f74                	lw	a3,124(a4)
    800042f2:	6469                	lui	s0,0x1a
    800042f4:	3d20                	.insn	2, 0x3d20
    800042f6:	2520                	.insn	2, 0x2520
    800042f8:	0a78                	addi	a4,sp,284
    800042fa:	0000                	unimp
    800042fc:	0000                	unimp
    800042fe:	0000                	unimp
    80004300:	6e69                	lui	t3,0x1a
    80004302:	6574                	ld	a3,200(a0)
    80004304:	7272                	ld	tp,312(sp)
    80004306:	7075                	c.lui	zero,0xffffd
    80004308:	5f74                	lw	a3,124(a4)
    8000430a:	6964                	ld	s1,208(a0)
    8000430c:	6c626173          	.insn	4, 0x6c626173
    80004310:	5f65                	li	t5,-7
    80004312:	6461                	lui	s0,0x18
    80004314:	7264                	ld	s1,224(a2)
    80004316:	3d20                	.insn	2, 0x3d20
    80004318:	2520                	.insn	2, 0x2520
    8000431a:	2078                	.insn	2, 0x2078
    8000431c:	72727563          	bgeu	tp,t2,80004a46 <__rodata_start+0xd9e>
    80004320:	6e65                	lui	t3,0x19
    80004322:	5f74                	lw	a3,124(a4)
    80004324:	6176                	ld	sp,344(sp)
    80004326:	756c                	ld	a1,232(a0)
    80004328:	2065                	.insn	2, 0x2065
    8000432a:	203d                	.insn	2, 0x203d
    8000432c:	7825                	lui	a6,0xfffe9
    8000432e:	0a20                	addi	s0,sp,280
	...
    80004338:	6e69                	lui	t3,0x1a
    8000433a:	6574                	ld	a3,200(a0)
    8000433c:	7272                	ld	tp,312(sp)
    8000433e:	7075                	c.lui	zero,0xffffd
    80004340:	5f74                	lw	a3,124(a4)
    80004342:	6964                	ld	s1,208(a0)
    80004344:	6c626173          	.insn	4, 0x6c626173
    80004348:	2065                	.insn	2, 0x2065
    8000434a:	7865                	lui	a6,0xffff9
    8000434c:	7469                	lui	s0,0xffffa
    8000434e:	6465                	lui	s0,0x19
    80004350:	000a                	c.slli	zero,0x2
    80004352:	0000                	unimp
    80004354:	0000                	unimp
    80004356:	0000                	unimp
    80004358:	730a                	ld	t1,160(sp)
    8000435a:	7465                	lui	s0,0xffff9
    8000435c:	6920                	ld	s0,80(a0)
    8000435e:	746e                	ld	s0,248(sp)
    80004360:	7265                	lui	tp,0xffff9
    80004362:	7572                	ld	a0,312(sp)
    80004364:	7470                	ld	a2,232(s0)
    80004366:	745f 7268 7365      	.insn	6, 0x73657268745f
    8000436c:	6f68                	ld	a0,216(a4)
    8000436e:	646c                	ld	a1,200(s0)
    80004370:	6520                	ld	s0,72(a0)
    80004372:	746e                	ld	s0,248(sp)
    80004374:	7265                	lui	tp,0xffff9
    80004376:	6465                	lui	s0,0x19
    80004378:	000a                	c.slli	zero,0x2
    8000437a:	0000                	unimp
    8000437c:	0000                	unimp
    8000437e:	0000                	unimp
    80004380:	6c70                	ld	a2,216(s0)
    80004382:	6369                	lui	t1,0x1a
    80004384:	7420                	ld	s0,104(s0)
    80004386:	7268                	ld	a0,224(a2)
    80004388:	7365                	lui	t1,0xffff9
    8000438a:	6f68                	ld	a0,216(a4)
    8000438c:	646c                	ld	a1,200(s0)
    8000438e:	7320                	ld	s0,96(a4)
    80004390:	7465                	lui	s0,0xffff9
    80004392:	7420                	ld	s0,104(s0)
    80004394:	6425206f          	j	800569d6 <__bss_end+0x4a3fe>
    80004398:	000a                	c.slli	zero,0x2
    8000439a:	0000                	unimp
    8000439c:	0000                	unimp
    8000439e:	0000                	unimp
    800043a0:	20746573          	.insn	4, 0x20746573
    800043a4:	6e69                	lui	t3,0x1a
    800043a6:	6574                	ld	a3,200(a0)
    800043a8:	7272                	ld	tp,312(sp)
    800043aa:	7075                	c.lui	zero,0xffffd
    800043ac:	5f74                	lw	a3,124(a4)
    800043ae:	6874                	ld	a3,208(s0)
    800043b0:	6572                	ld	a0,280(sp)
    800043b2:	6c6f6873          	.insn	4, 0x6c6f6873
    800043b6:	2064                	.insn	2, 0x2064
    800043b8:	7865                	lui	a6,0xffff9
    800043ba:	7469                	lui	s0,0xffffa
    800043bc:	6465                	lui	s0,0x19
    800043be:	000a                	c.slli	zero,0x2
    800043c0:	200a                	.insn	2, 0x200a
    800043c2:	20746573          	.insn	4, 0x20746573
    800043c6:	6e69                	lui	t3,0x1a
    800043c8:	6574                	ld	a3,200(a0)
    800043ca:	7272                	ld	tp,312(sp)
    800043cc:	7075                	c.lui	zero,0xffffd
    800043ce:	2074                	.insn	2, 0x2074
    800043d0:	7270                	ld	a2,224(a2)
    800043d2:	6f69                	lui	t5,0x1a
    800043d4:	6972                	ld	s2,280(sp)
    800043d6:	7974                	ld	a3,240(a0)
    800043d8:	6520                	ld	s0,72(a0)
    800043da:	746e                	ld	s0,248(sp)
    800043dc:	7265                	lui	tp,0xffff9
    800043de:	6465                	lui	s0,0x19
    800043e0:	2520                	.insn	2, 0x2520
    800043e2:	0a78                	addi	a4,sp,284
    800043e4:	0000                	unimp
    800043e6:	0000                	unimp
    800043e8:	6e69                	lui	t3,0x1a
    800043ea:	6574                	ld	a3,200(a0)
    800043ec:	7272                	ld	tp,312(sp)
    800043ee:	7075                	c.lui	zero,0xffffd
    800043f0:	5f74                	lw	a3,124(a4)
    800043f2:	7270                	ld	a2,224(a2)
    800043f4:	6f69                	lui	t5,0x1a
    800043f6:	6972                	ld	s2,280(sp)
    800043f8:	7974                	ld	a3,240(a0)
    800043fa:	615f 6464 6572      	.insn	6, 0x65726464615f
    80004400:	3d207373          	.insn	4, 0x3d207373
    80004404:	2520                	.insn	2, 0x2520
    80004406:	0a78                	addi	a4,sp,284
	...
    80004410:	72727563          	bgeu	tp,t2,80004b3a <__rodata_start+0xe92>
    80004414:	6e65                	lui	t3,0x19
    80004416:	2074                	.insn	2, 0x2074
    80004418:	6164                	ld	s1,192(a0)
    8000441a:	6174                	ld	a3,192(a0)
    8000441c:	6120                	ld	s0,64(a0)
    8000441e:	2074                	.insn	2, 0x2074
    80004420:	6e69                	lui	t3,0x1a
    80004422:	6574                	ld	a3,200(a0)
    80004424:	7272                	ld	tp,312(sp)
    80004426:	7075                	c.lui	zero,0xffffd
    80004428:	5f74                	lw	a3,124(a4)
    8000442a:	7270                	ld	a2,224(a2)
    8000442c:	6f69                	lui	t5,0x1a
    8000442e:	6972                	ld	s2,280(sp)
    80004430:	7974                	ld	a3,240(a0)
    80004432:	615f 6464 6572      	.insn	6, 0x65726464615f
    80004438:	3d207373          	.insn	4, 0x3d207373
    8000443c:	2520                	.insn	2, 0x2520
    8000443e:	0a78                	addi	a4,sp,284
	...
    80004448:	6e20                	ld	s0,88(a2)
    8000444a:	7765                	lui	a4,0xffff9
    8000444c:	6420                	ld	s0,72(s0)
    8000444e:	7461                	lui	s0,0xffff8
    80004450:	2061                	.insn	2, 0x2061
    80004452:	7461                	lui	s0,0xffff8
    80004454:	6920                	ld	s0,80(a0)
    80004456:	746e                	ld	s0,248(sp)
    80004458:	7265                	lui	tp,0xffff9
    8000445a:	7572                	ld	a0,312(sp)
    8000445c:	7470                	ld	a2,232(s0)
    8000445e:	705f 6972 726f      	.insn	6, 0x726f6972705f
    80004464:	7469                	lui	s0,0xffffa
    80004466:	5f79                	li	t5,-2
    80004468:	6461                	lui	s0,0x18
    8000446a:	7264                	ld	s1,224(a2)
    8000446c:	7365                	lui	t1,0xffff9
    8000446e:	203d2073          	.insn	4, 0x203d2073
    80004472:	7825                	lui	a6,0xfffe9
    80004474:	000a                	c.slli	zero,0x2
    80004476:	0000                	unimp
    80004478:	20746573          	.insn	4, 0x20746573
    8000447c:	6e69                	lui	t3,0x1a
    8000447e:	6574                	ld	a3,200(a0)
    80004480:	7272                	ld	tp,312(sp)
    80004482:	7075                	c.lui	zero,0xffffd
    80004484:	2074                	.insn	2, 0x2074
    80004486:	7270                	ld	a2,224(a2)
    80004488:	6f69                	lui	t5,0x1a
    8000448a:	6972                	ld	s2,280(sp)
    8000448c:	7974                	ld	a3,240(a0)
    8000448e:	6520                	ld	s0,72(a0)
    80004490:	6978                	ld	a4,208(a0)
    80004492:	6574                	ld	a3,200(a0)
    80004494:	0a64                	addi	s1,sp,284
    80004496:	0000                	unimp
    80004498:	630a                	ld	t1,128(sp)
    8000449a:	69666e6f          	jal	t3,8006ab30 <__bss_end+0x5e558>
    8000449e:	65727567          	.insn	4, 0x65727567
    800044a2:	6920                	ld	s0,80(a0)
    800044a4:	746e                	ld	s0,248(sp)
    800044a6:	7265                	lui	tp,0xffff9
    800044a8:	7572                	ld	a0,312(sp)
    800044aa:	7470                	ld	a2,232(s0)
    800044ac:	7020                	ld	s0,96(s0)
    800044ae:	6e69                	lui	t3,0x1a
    800044b0:	6520                	ld	s0,72(a0)
    800044b2:	746e                	ld	s0,248(sp)
    800044b4:	7265                	lui	tp,0xffff9
    800044b6:	6465                	lui	s0,0x19
    800044b8:	000a                	c.slli	zero,0x2
    800044ba:	0000                	unimp
    800044bc:	0000                	unimp
    800044be:	0000                	unimp
    800044c0:	4f495047          	.insn	4, 0x4f495047
    800044c4:	4420                	lw	s0,72(s0)
    800044c6:	5249                	li	tp,-14
    800044c8:	4345                	li	t1,17
    800044ca:	4954                	lw	a3,20(a0)
    800044cc:	52204e4f          	.insn	4, 0x52204e4f
    800044d0:	4745                	li	a4,17
    800044d2:	5349                	li	t1,-14
    800044d4:	4554                	lw	a3,12(a0)
    800044d6:	2052                	.insn	2, 0x2052
    800044d8:	4156                	lw	sp,84(sp)
    800044da:	554c                	lw	a1,44(a0)
    800044dc:	2045                	.insn	2, 0x2045
    800044de:	203d                	.insn	2, 0x203d
    800044e0:	7825                	lui	a6,0xfffe9
    800044e2:	000a                	c.slli	zero,0x2
    800044e4:	0000                	unimp
    800044e6:	0000                	unimp
    800044e8:	6144                	ld	s1,128(a0)
    800044ea:	6174                	ld	a3,192(a0)
    800044ec:	7720                	ld	s0,104(a4)
    800044ee:	6972                	ld	s2,280(sp)
    800044f0:	7474                	ld	a3,232(s0)
    800044f2:	6e65                	lui	t3,0x19
    800044f4:	7420                	ld	s0,104(s0)
    800044f6:	5047206f          	j	800769fa <__bss_end+0x6a422>
    800044fa:	4f49                	li	t5,18
    800044fc:	4420                	lw	s0,72(s0)
    800044fe:	5249                	li	tp,-14
    80004500:	4345                	li	t1,17
    80004502:	4954                	lw	a3,20(a0)
    80004504:	43204e4f          	.insn	4, 0x43204e4f
    80004508:	5254                	lw	a3,36(a2)
    8000450a:	204c                	.insn	2, 0x204c
    8000450c:	4552                	lw	a0,20(sp)
    8000450e:	203d2047          	.insn	4, 0x203d2047
    80004512:	7825                	lui	a6,0xfffe9
    80004514:	000a                	c.slli	zero,0x2
    80004516:	0000                	unimp
    80004518:	666e6f63          	bltu	t3,t1,80004b96 <__rodata_start+0xeee>
    8000451c:	6769                	lui	a4,0x1a
    8000451e:	7275                	lui	tp,0xffffd
    80004520:	2065                	.insn	2, 0x2065
    80004522:	6e69                	lui	t3,0x1a
    80004524:	6574                	ld	a3,200(a0)
    80004526:	7272                	ld	tp,312(sp)
    80004528:	7075                	c.lui	zero,0xffffd
    8000452a:	2074                	.insn	2, 0x2074
    8000452c:	6970                	ld	a2,208(a0)
    8000452e:	206e                	.insn	2, 0x206e
    80004530:	7865                	lui	a6,0xffff9
    80004532:	7469                	lui	s0,0xffffa
    80004534:	6465                	lui	s0,0x19
    80004536:	000a                	c.slli	zero,0x2
    80004538:	700a                	.insn	2, 0x700a
    8000453a:	696c                	ld	a1,208(a0)
    8000453c:	6e695f63          	bge	s2,t1,80004c3a <__clz_tab+0x9a>
    80004540:	7469                	lui	s0,0xffffa
    80004542:	6520                	ld	s0,72(a0)
    80004544:	746e                	ld	s0,248(sp)
    80004546:	7265                	lui	tp,0xffff9
    80004548:	6465                	lui	s0,0x19
    8000454a:	000a                	c.slli	zero,0x2
    8000454c:	0000                	unimp
    8000454e:	0000                	unimp
    80004550:	7341                	lui	t1,0xffff0
    80004552:	6e676973          	.insn	4, 0x6e676973
    80004556:	6465                	lui	s0,0x19
    80004558:	6d20                	ld	s0,88(a0)
    8000455a:	6361                	lui	t1,0x18
    8000455c:	5f68                	lw	a0,124(a4)
    8000455e:	6c70                	ld	a2,216(s0)
    80004560:	6369                	lui	t1,0x1a
    80004562:	685f 6e61 6c64      	.insn	6, 0x6c646e61685f
    80004568:	7265                	lui	tp,0xffff9
    8000456a:	7420                	ld	s0,104(s0)
    8000456c:	7274206f          	j	80047492 <__bss_end+0x3aeba>
    80004570:	7061                	c.lui	zero,0xffff8
    80004572:	6920                	ld	s0,80(a0)
    80004574:	2064                	.insn	2, 0x2064
    80004576:	203a                	.insn	2, 0x203a
    80004578:	6425                	lui	s0,0x9
    8000457a:	000a                	c.slli	zero,0x2
    8000457c:	0000                	unimp
    8000457e:	0000                	unimp
    80004580:	2a0a                	.insn	2, 0x2a0a
    80004582:	2a2a                	.insn	2, 0x2a2a
    80004584:	2a2a                	.insn	2, 0x2a2a
    80004586:	2a2a                	.insn	2, 0x2a2a
    80004588:	2a2a                	.insn	2, 0x2a2a
    8000458a:	2a2a                	.insn	2, 0x2a2a
    8000458c:	2a2a                	.insn	2, 0x2a2a
    8000458e:	2a2a                	.insn	2, 0x2a2a
    80004590:	2a2a                	.insn	2, 0x2a2a
    80004592:	2a2a                	.insn	2, 0x2a2a
    80004594:	2a2a                	.insn	2, 0x2a2a
    80004596:	2a2a                	.insn	2, 0x2a2a
    80004598:	2a2a                	.insn	2, 0x2a2a
    8000459a:	2a2a                	.insn	2, 0x2a2a
    8000459c:	2a2a                	.insn	2, 0x2a2a
    8000459e:	2a2a                	.insn	2, 0x2a2a
    800045a0:	2a2a                	.insn	2, 0x2a2a
    800045a2:	2a2a                	.insn	2, 0x2a2a
    800045a4:	2a2a                	.insn	2, 0x2a2a
    800045a6:	2a2a                	.insn	2, 0x2a2a
    800045a8:	2a2a                	.insn	2, 0x2a2a
    800045aa:	2a2a                	.insn	2, 0x2a2a
    800045ac:	2a2a                	.insn	2, 0x2a2a
    800045ae:	2a2a                	.insn	2, 0x2a2a
    800045b0:	002a                	c.slli	zero,0xa
    800045b2:	0000                	unimp
    800045b4:	0000                	unimp
    800045b6:	0000                	unimp
    800045b8:	690a                	ld	s2,128(sp)
    800045ba:	746e                	ld	s0,248(sp)
    800045bc:	7265                	lui	tp,0xffff9
    800045be:	7572                	ld	a0,312(sp)
    800045c0:	7470                	ld	a2,232(s0)
    800045c2:	6920                	ld	s0,80(a0)
    800045c4:	2064                	.insn	2, 0x2064
    800045c6:	203d                	.insn	2, 0x203d
    800045c8:	7825                	lui	a6,0xfffe9
    800045ca:	0a20                	addi	s0,sp,280
    800045cc:	6572                	ld	a0,280(sp)
    800045ce:	20746573          	.insn	4, 0x20746573
    800045d2:	6f74                	ld	a3,216(a4)
    800045d4:	6420                	ld	s0,72(s0)
    800045d6:	6665                	lui	a2,0x19
    800045d8:	7561                	lui	a0,0xffff8
    800045da:	746c                	ld	a1,232(s0)
    800045dc:	7620                	ld	s0,104(a2)
    800045de:	6c61                	lui	s8,0x18
    800045e0:	6575                	lui	a0,0x1d
    800045e2:	74732073          	.insn	4, 0x74732073
    800045e6:	7461                	lui	s0,0xffff8
    800045e8:	2065                	.insn	2, 0x2065
    800045ea:	203d                	.insn	2, 0x203d
    800045ec:	7825                	lui	a6,0xfffe9
    800045ee:	0920                	addi	s0,sp,152
    800045f0:	0909                	addi	s2,s2,2
    800045f2:	2020                	.insn	2, 0x2020
    800045f4:	700a                	.insn	2, 0x700a
    800045f6:	6972                	ld	s2,280(sp)
    800045f8:	7469726f          	jal	tp,8009bd3e <__bss_end+0x8f766>
    800045fc:	2079                	.insn	2, 0x2079
    800045fe:	203d                	.insn	2, 0x203d
    80004600:	7825                	lui	a6,0xfffe9
    80004602:	630a                	ld	t1,128(sp)
    80004604:	746e756f          	jal	a0,800ebd4a <__bss_end+0xdf772>
    80004608:	3d20                	.insn	2, 0x3d20
    8000460a:	2520                	.insn	2, 0x2520
    8000460c:	0a78                	addi	a4,sp,284
    8000460e:	0920                	addi	s0,sp,152
    80004610:	0909                	addi	s2,s2,2
    80004612:	2020                	.insn	2, 0x2020
    80004614:	2a0a                	.insn	2, 0x2a0a
    80004616:	2a2a                	.insn	2, 0x2a2a
    80004618:	2a2a                	.insn	2, 0x2a2a
    8000461a:	2a2a                	.insn	2, 0x2a2a
    8000461c:	2a2a                	.insn	2, 0x2a2a
    8000461e:	2a2a                	.insn	2, 0x2a2a
    80004620:	2a2a                	.insn	2, 0x2a2a
    80004622:	2a2a                	.insn	2, 0x2a2a
    80004624:	2a2a                	.insn	2, 0x2a2a
    80004626:	2a2a                	.insn	2, 0x2a2a
    80004628:	2a2a                	.insn	2, 0x2a2a
    8000462a:	2a2a                	.insn	2, 0x2a2a
    8000462c:	2a2a                	.insn	2, 0x2a2a
    8000462e:	2a2a                	.insn	2, 0x2a2a
    80004630:	2a2a                	.insn	2, 0x2a2a
    80004632:	2a2a                	.insn	2, 0x2a2a
    80004634:	2a2a                	.insn	2, 0x2a2a
    80004636:	2a2a                	.insn	2, 0x2a2a
    80004638:	2a2a                	.insn	2, 0x2a2a
    8000463a:	2a2a                	.insn	2, 0x2a2a
    8000463c:	2a2a                	.insn	2, 0x2a2a
    8000463e:	2a2a                	.insn	2, 0x2a2a
    80004640:	2a2a                	.insn	2, 0x2a2a
    80004642:	2a2a                	.insn	2, 0x2a2a
    80004644:	2a2a                	.insn	2, 0x2a2a
    80004646:	0000                	unimp
    80004648:	6c70                	ld	a2,216(s0)
    8000464a:	6369                	lui	t1,0x1a
    8000464c:	695f 696e 2074      	.insn	6, 0x2074696e695f
    80004652:	7865                	lui	a6,0xffff9
    80004654:	7469                	lui	s0,0xffffa
    80004656:	6465                	lui	s0,0x19
    80004658:	0a20                	addi	s0,sp,280
    8000465a:	0000                	unimp
    8000465c:	0000                	unimp
    8000465e:	0000                	unimp
    80004660:	630a                	ld	t1,128(sp)
    80004662:	69666e6f          	jal	t3,8006acf8 <__bss_end+0x5e720>
    80004666:	65727567          	.insn	4, 0x65727567
    8000466a:	695f 746e 7265      	.insn	6, 0x7265746e695f
    80004670:	7572                	ld	a0,312(sp)
    80004672:	7470                	ld	a2,232(s0)
    80004674:	6520                	ld	s0,72(a0)
    80004676:	746e                	ld	s0,248(sp)
    80004678:	7265                	lui	tp,0xffff9
    8000467a:	6465                	lui	s0,0x19
    8000467c:	0a20                	addi	s0,sp,280
    8000467e:	0000                	unimp
    80004680:	666e6f63          	bltu	t3,t1,80004cfe <mcause_trap_table+0xe>
    80004684:	6769                	lui	a4,0x1a
    80004686:	7275                	lui	tp,0xffffd
    80004688:	5f65                	li	t5,-7
    8000468a:	6e69                	lui	t3,0x1a
    8000468c:	6574                	ld	a3,200(a0)
    8000468e:	7272                	ld	tp,312(sp)
    80004690:	7075                	c.lui	zero,0xffffd
    80004692:	2074                	.insn	2, 0x2074
    80004694:	7865                	lui	a6,0xffff9
    80004696:	7469                	lui	s0,0xffffa
    80004698:	6465                	lui	s0,0x19
    8000469a:	0a20                	addi	s0,sp,280
    8000469c:	0000                	unimp
    8000469e:	0000                	unimp
    800046a0:	500a                	.insn	2, 0x500a
    800046a2:	7265                	lui	tp,0xffff9
    800046a4:	6f69                	lui	t5,0x1a
    800046a6:	2064                	.insn	2, 0x2064
    800046a8:	6552                	ld	a0,272(sp)
    800046aa:	74736967          	.insn	4, 0x74736967
    800046ae:	7265                	lui	tp,0xffff9
    800046b0:	5620                	lw	s0,104(a2)
    800046b2:	6c61                	lui	s8,0x18
    800046b4:	6575                	lui	a0,0x1d
    800046b6:	6820                	ld	s0,80(s0)
    800046b8:	6769                	lui	a4,0x1a
    800046ba:	6568                	ld	a0,200(a0)
    800046bc:	2072                	.insn	2, 0x2072
    800046be:	6874                	ld	a3,208(s0)
    800046c0:	6e61                	lui	t3,0x18
    800046c2:	6d20                	ld	s0,88(a0)
    800046c4:	7861                	lui	a6,0xffff8
    800046c6:	7620                	ld	s0,104(a2)
    800046c8:	6c61                	lui	s8,0x18
    800046ca:	6575                	lui	a0,0x1d
    800046cc:	2820                	.insn	2, 0x2820
    800046ce:	7825                	lui	a6,0xfffe9
    800046d0:	0029                	c.nop	10
    800046d2:	0000                	unimp
    800046d4:	0000                	unimp
    800046d6:	0000                	unimp
    800046d8:	200a                	.insn	2, 0x200a
    800046da:	6550                	ld	a2,136(a0)
    800046dc:	6972                	ld	s2,280(sp)
    800046de:	5220646f          	jal	s0,8000ac00 <u2_rcv_char+0xfd8>
    800046e2:	6765                	lui	a4,0x19
    800046e4:	7369                	lui	t1,0xffffa
    800046e6:	6574                	ld	a3,200(a0)
    800046e8:	2072                	.insn	2, 0x2072
    800046ea:	6d20666f          	jal	a2,8000adbc <u2_rcv_char+0x1194>
    800046ee:	6c75646f          	jal	s0,8005b5b4 <__bss_end+0x4efdc>
    800046f2:	2065                	.insn	2, 0x2065
    800046f4:	756e                	ld	a0,248(sp)
    800046f6:	626d                	lui	tp,0x1b
    800046f8:	7265                	lui	tp,0xffff9
    800046fa:	2520                	.insn	2, 0x2520
    800046fc:	2064                	.insn	2, 0x2064
    800046fe:	20746573          	.insn	4, 0x20746573
    80004702:	6f74                	ld	a3,216(a4)
    80004704:	2520                	.insn	2, 0x2520
    80004706:	0078                	addi	a4,sp,12
    80004708:	440a                	lw	s0,128(sp)
    8000470a:	7475                	lui	s0,0xffffd
    8000470c:	2079                	.insn	2, 0x2079
    8000470e:	6552                	ld	a0,272(sp)
    80004710:	74736967          	.insn	4, 0x74736967
    80004714:	7265                	lui	tp,0xffff9
    80004716:	5620                	lw	s0,104(a2)
    80004718:	6c61                	lui	s8,0x18
    8000471a:	6575                	lui	a0,0x1d
    8000471c:	6820                	ld	s0,80(s0)
    8000471e:	6769                	lui	a4,0x1a
    80004720:	6568                	ld	a0,200(a0)
    80004722:	2072                	.insn	2, 0x2072
    80004724:	6874                	ld	a3,208(s0)
    80004726:	6e61                	lui	t3,0x18
    80004728:	6d20                	ld	s0,88(a0)
    8000472a:	7861                	lui	a6,0xffff8
    8000472c:	7620                	ld	s0,104(a2)
    8000472e:	6c61                	lui	s8,0x18
    80004730:	6575                	lui	a0,0x1d
    80004732:	2820                	.insn	2, 0x2820
    80004734:	7825                	lui	a6,0xfffe9
    80004736:	0029                	c.nop	10
    80004738:	200a                	.insn	2, 0x200a
    8000473a:	7544                	ld	s1,168(a0)
    8000473c:	7974                	ld	a3,240(a0)
    8000473e:	5220                	lw	s0,96(a2)
    80004740:	6765                	lui	a4,0x19
    80004742:	7369                	lui	t1,0xffffa
    80004744:	6574                	ld	a3,200(a0)
    80004746:	2072                	.insn	2, 0x2072
    80004748:	6d20666f          	jal	a2,8000ae1a <u2_rcv_char+0x11f2>
    8000474c:	6c75646f          	jal	s0,8005b612 <__bss_end+0x4f03a>
    80004750:	2065                	.insn	2, 0x2065
    80004752:	756e                	ld	a0,248(sp)
    80004754:	626d                	lui	tp,0x1b
    80004756:	7265                	lui	tp,0xffff9
    80004758:	2520                	.insn	2, 0x2520
    8000475a:	2064                	.insn	2, 0x2064
    8000475c:	20746573          	.insn	4, 0x20746573
    80004760:	6f74                	ld	a3,216(a4)
    80004762:	2520                	.insn	2, 0x2520
    80004764:	0078                	addi	a4,sp,12
    80004766:	0000                	unimp
    80004768:	430a                	lw	t1,128(sp)
    8000476a:	72746e6f          	jal	t3,8004b690 <__bss_end+0x3f0b8>
    8000476e:	52206c6f          	jal	s8,8000ac90 <u2_rcv_char+0x1068>
    80004772:	6765                	lui	a4,0x19
    80004774:	7369                	lui	t1,0xffffa
    80004776:	6574                	ld	a3,200(a0)
    80004778:	2072                	.insn	2, 0x2072
    8000477a:	6156                	ld	sp,336(sp)
    8000477c:	756c                	ld	a1,232(a0)
    8000477e:	2065                	.insn	2, 0x2065
    80004780:	6968                	ld	a0,208(a0)
    80004782:	72656867          	.insn	4, 0x72656867
    80004786:	7420                	ld	s0,104(s0)
    80004788:	6168                	ld	a0,192(a0)
    8000478a:	206e                	.insn	2, 0x206e
    8000478c:	616d                	addi	sp,sp,240
    8000478e:	2078                	.insn	2, 0x2078
    80004790:	6176                	ld	sp,344(sp)
    80004792:	756c                	ld	a1,232(a0)
    80004794:	2065                	.insn	2, 0x2065
    80004796:	2528                	.insn	2, 0x2528
    80004798:	2978                	.insn	2, 0x2978
    8000479a:	0000                	unimp
    8000479c:	0000                	unimp
    8000479e:	0000                	unimp
    800047a0:	200a                	.insn	2, 0x200a
    800047a2:	746e6f43          	.insn	4, 0x746e6f43
    800047a6:	6f72                	ld	t5,280(sp)
    800047a8:	206c                	.insn	2, 0x206c
    800047aa:	6552                	ld	a0,272(sp)
    800047ac:	74736967          	.insn	4, 0x74736967
    800047b0:	7265                	lui	tp,0xffff9
    800047b2:	6f20                	ld	s0,88(a4)
    800047b4:	2066                	.insn	2, 0x2066
    800047b6:	6f6d                	lui	t5,0x1b
    800047b8:	7564                	ld	s1,232(a0)
    800047ba:	656c                	ld	a1,200(a0)
    800047bc:	6e20                	ld	s0,88(a2)
    800047be:	6d75                	lui	s10,0x1d
    800047c0:	6562                	ld	a0,24(sp)
    800047c2:	2072                	.insn	2, 0x2072
    800047c4:	6425                	lui	s0,0x9
    800047c6:	7320                	ld	s0,96(a4)
    800047c8:	7465                	lui	s0,0xffff9
    800047ca:	7420                	ld	s0,104(s0)
    800047cc:	7825206f          	j	80056f4e <__bss_end+0x4a976>
	...
    800047d8:	200a                	.insn	2, 0x200a
    800047da:	7552                	ld	a0,304(sp)
    800047dc:	6e6e                	ld	t3,216(sp)
    800047de:	6e69                	lui	t3,0x1a
    800047e0:	6e692067          	.insn	4, 0x6e692067
    800047e4:	6320                	ld	s0,64(a4)
    800047e6:	69746e6f          	jal	t3,8004b67c <__bss_end+0x3f0a4>
    800047ea:	756e                	ld	a0,248(sp)
    800047ec:	2073756f          	jal	a0,8003c1f2 <__bss_end+0x2fc1a>
    800047f0:	6f6d                	lui	t5,0x1b
    800047f2:	6564                	ld	s1,200(a0)
    800047f4:	3128                	.insn	2, 0x3128
    800047f6:	3a29302f          	.insn	4, 0x3a29302f
    800047fa:	2520                	.insn	2, 0x2520
    800047fc:	0064                	addi	s1,sp,12
    800047fe:	0000                	unimp
    80004800:	430a                	lw	t1,128(sp)
    80004802:	6f6c                	ld	a1,216(a4)
    80004804:	52206b63          	bltu	zero,sp,80004d3a <mcause_trap_table+0x4a>
    80004808:	6765                	lui	a4,0x19
    8000480a:	7369                	lui	t1,0xffffa
    8000480c:	6574                	ld	a3,200(a0)
    8000480e:	2072                	.insn	2, 0x2072
    80004810:	6156                	ld	sp,336(sp)
    80004812:	756c                	ld	a1,232(a0)
    80004814:	2065                	.insn	2, 0x2065
    80004816:	6968                	ld	a0,208(a0)
    80004818:	72656867          	.insn	4, 0x72656867
    8000481c:	7420                	ld	s0,104(s0)
    8000481e:	6168                	ld	a0,192(a0)
    80004820:	206e                	.insn	2, 0x206e
    80004822:	616d                	addi	sp,sp,240
    80004824:	2078                	.insn	2, 0x2078
    80004826:	6176                	ld	sp,344(sp)
    80004828:	756c                	ld	a1,232(a0)
    8000482a:	2065                	.insn	2, 0x2065
    8000482c:	2528                	.insn	2, 0x2528
    8000482e:	2978                	.insn	2, 0x2978
	...
    80004838:	200a                	.insn	2, 0x200a
    8000483a:	6c41                	lui	s8,0x10
    8000483c:	206c                	.insn	2, 0x206c
    8000483e:	6572                	ld	a0,280(sp)
    80004840:	74736967          	.insn	4, 0x74736967
    80004844:	7265                	lui	tp,0xffff9
    80004846:	666f2073          	.insn	4, 0x666f2073
    8000484a:	6d20                	ld	s0,88(a0)
    8000484c:	6c75646f          	jal	s0,8005b712 <__bss_end+0x4f13a>
    80004850:	2065                	.insn	2, 0x2065
    80004852:	756e                	ld	a0,248(sp)
    80004854:	626d                	lui	tp,0x1b
    80004856:	7265                	lui	tp,0xffff9
    80004858:	2520                	.insn	2, 0x2520
    8000485a:	2064                	.insn	2, 0x2064
    8000485c:	61656c63          	bltu	a0,s6,80004e74 <u0_rcv_char+0x6c>
    80004860:	6572                	ld	a0,280(sp)
    80004862:	0064                	addi	s1,sp,12
    80004864:	0000                	unimp
    80004866:	0000                	unimp
    80004868:	200a                	.insn	2, 0x200a
    8000486a:	6c41                	lui	s8,0x10
    8000486c:	206c                	.insn	2, 0x206c
    8000486e:	6552                	ld	a0,272(sp)
    80004870:	74736967          	.insn	4, 0x74736967
    80004874:	7265                	lui	tp,0xffff9
    80004876:	7620                	ld	s0,104(a2)
    80004878:	6c61                	lui	s8,0x18
    8000487a:	6575                	lui	a0,0x1d
    8000487c:	666f2073          	.insn	4, 0x666f2073
    80004880:	6120                	ld	s0,64(a0)
    80004882:	6c6c                	ld	a1,216(s0)
    80004884:	6d20                	ld	s0,88(a0)
    80004886:	6c75646f          	jal	s0,8005b74c <__bss_end+0x4f174>
    8000488a:	7365                	lui	t1,0xffff9
    8000488c:	6320                	ld	s0,64(a4)
    8000488e:	656c                	ld	a1,200(a0)
    80004890:	7261                	lui	tp,0xffff8
    80004892:	6465                	lui	s0,0x19
    80004894:	0000                	unimp
    80004896:	0000                	unimp
    80004898:	200a                	.insn	2, 0x200a
    8000489a:	72727543          	.insn	4, 0x72727543
    8000489e:	6e65                	lui	t3,0x19
    800048a0:	2074                	.insn	2, 0x2074
    800048a2:	6f4d                	lui	t5,0x13
    800048a4:	7564                	ld	s1,232(a0)
    800048a6:	656c                	ld	a1,200(a0)
    800048a8:	6920                	ld	s0,80(a0)
    800048aa:	65732073          	.insn	4, 0x65732073
    800048ae:	2074                	.insn	2, 0x2074
    800048b0:	6f74                	ld	a3,216(a4)
    800048b2:	5020                	lw	s0,96(s0)
    800048b4:	6d204d57          	.insn	4, 0x6d204d57
    800048b8:	0065646f          	jal	s0,8005a8be <__bss_end+0x4e2e6>
    800048bc:	0000                	unimp
    800048be:	0000                	unimp
    800048c0:	200a                	.insn	2, 0x200a
    800048c2:	72727543          	.insn	4, 0x72727543
    800048c6:	6e65                	lui	t3,0x19
    800048c8:	2074                	.insn	2, 0x2074
    800048ca:	6f4d                	lui	t5,0x13
    800048cc:	7564                	ld	s1,232(a0)
    800048ce:	656c                	ld	a1,200(a0)
    800048d0:	6920                	ld	s0,80(a0)
    800048d2:	65732073          	.insn	4, 0x65732073
    800048d6:	2074                	.insn	2, 0x2074
    800048d8:	6f74                	ld	a3,216(a4)
    800048da:	7420                	ld	s0,104(s0)
    800048dc:	6d69                	lui	s10,0x1a
    800048de:	7265                	lui	tp,0xffff9
    800048e0:	6f20                	ld	s0,88(a4)
    800048e2:	636e                	ld	t1,216(sp)
    800048e4:	2065                	.insn	2, 0x2065
    800048e6:	796c6e6f          	jal	t3,800cb07c <__bss_end+0xbeaa4>
    800048ea:	6d20                	ld	s0,88(a0)
    800048ec:	0065646f          	jal	s0,8005a8f2 <__bss_end+0x4e31a>
    800048f0:	200a                	.insn	2, 0x200a
    800048f2:	72727543          	.insn	4, 0x72727543
    800048f6:	6e65                	lui	t3,0x19
    800048f8:	2074                	.insn	2, 0x2074
    800048fa:	6f4d                	lui	t5,0x13
    800048fc:	7564                	ld	s1,232(a0)
    800048fe:	656c                	ld	a1,200(a0)
    80004900:	6920                	ld	s0,80(a0)
    80004902:	65732073          	.insn	4, 0x65732073
    80004906:	2074                	.insn	2, 0x2074
    80004908:	6f74                	ld	a3,216(a4)
    8000490a:	7420                	ld	s0,104(s0)
    8000490c:	6d69                	lui	s10,0x1a
    8000490e:	7265                	lui	tp,0xffff9
    80004910:	6320                	ld	s0,64(a4)
    80004912:	69746e6f          	jal	t3,8004b7a8 <__bss_end+0x3f1d0>
    80004916:	756e                	ld	a0,248(sp)
    80004918:	2073756f          	jal	a0,8003c31e <__bss_end+0x2fd46>
    8000491c:	6f6d                	lui	t5,0x1b
    8000491e:	6564                	ld	s1,200(a0)
	...
    80004928:	200a                	.insn	2, 0x200a
    8000492a:	5750                	lw	a2,44(a4)
    8000492c:	204d                	.insn	2, 0x204d
    8000492e:	6f6d                	lui	t5,0x1b
    80004930:	7564                	ld	s1,232(a0)
    80004932:	656c                	ld	a1,200(a0)
    80004934:	6e20                	ld	s0,88(a2)
    80004936:	6d75                	lui	s10,0x1d
    80004938:	6562                	ld	a0,24(sp)
    8000493a:	2072                	.insn	2, 0x2072
    8000493c:	6425                	lui	s0,0x9
    8000493e:	6820                	ld	s0,80(s0)
    80004940:	7361                	lui	t1,0xffff8
    80004942:	6220                	ld	s0,64(a2)
    80004944:	6565                	lui	a0,0x19
    80004946:	206e                	.insn	2, 0x206e
    80004948:	6e65                	lui	t3,0x19
    8000494a:	6574                	ld	a3,200(a0)
    8000494c:	6572                	ld	a0,280(sp)
    8000494e:	0064                	addi	s1,sp,12
    80004950:	200a                	.insn	2, 0x200a
    80004952:	5750                	lw	a2,44(a4)
    80004954:	204d                	.insn	2, 0x204d
    80004956:	6f6d                	lui	t5,0x1b
    80004958:	7564                	ld	s1,232(a0)
    8000495a:	656c                	ld	a1,200(a0)
    8000495c:	6e20                	ld	s0,88(a2)
    8000495e:	6d75                	lui	s10,0x1d
    80004960:	6562                	ld	a0,24(sp)
    80004962:	2072                	.insn	2, 0x2072
    80004964:	6425                	lui	s0,0x9
    80004966:	6e20                	ld	s0,88(a2)
    80004968:	6520746f          	jal	s0,8000bfba <u2_rcv_char+0x2392>
    8000496c:	746e                	ld	s0,248(sp)
    8000496e:	7265                	lui	tp,0xffff9
    80004970:	6465                	lui	s0,0x19
    80004972:	0000                	unimp
    80004974:	0000                	unimp
    80004976:	0000                	unimp
    80004978:	200a                	.insn	2, 0x200a
    8000497a:	7245                	lui	tp,0xffff1
    8000497c:	6f72                	ld	t5,280(sp)
    8000497e:	2072                	.insn	2, 0x2072
    80004980:	6e69                	lui	t3,0x1a
    80004982:	7320                	ld	s0,96(a4)
    80004984:	7465                	lui	s0,0xffff9
    80004986:	6974                	ld	a3,208(a0)
    80004988:	676e                	ld	a4,216(sp)
    8000498a:	6320                	ld	s0,64(a4)
    8000498c:	6f6c                	ld	a1,216(a4)
    8000498e:	72206b63          	bltu	zero,sp,800050c4 <u0_rcv_char+0x2bc>
    80004992:	6765                	lui	a4,0x19
    80004994:	7369                	lui	t1,0xffffa
    80004996:	6574                	ld	a3,200(a0)
    80004998:	0072                	c.slli	zero,0x1c
    8000499a:	0000                	unimp
    8000499c:	0000                	unimp
    8000499e:	0000                	unimp
    800049a0:	200a                	.insn	2, 0x200a
    800049a2:	7245                	lui	tp,0xffff1
    800049a4:	6f72                	ld	t5,280(sp)
    800049a6:	2072                	.insn	2, 0x2072
    800049a8:	6e69                	lui	t3,0x1a
    800049aa:	7320                	ld	s0,96(a4)
    800049ac:	7465                	lui	s0,0xffff9
    800049ae:	6974                	ld	a3,208(a0)
    800049b0:	676e                	ld	a4,216(sp)
    800049b2:	6420                	ld	s0,72(s0)
    800049b4:	7475                	lui	s0,0xffffd
    800049b6:	2079                	.insn	2, 0x2079
    800049b8:	6572                	ld	a0,280(sp)
    800049ba:	74736967          	.insn	4, 0x74736967
    800049be:	7265                	lui	tp,0xffff9
	...
    800049c8:	200a                	.insn	2, 0x200a
    800049ca:	7245                	lui	tp,0xffff1
    800049cc:	6f72                	ld	t5,280(sp)
    800049ce:	2072                	.insn	2, 0x2072
    800049d0:	6e69                	lui	t3,0x1a
    800049d2:	7320                	ld	s0,96(a4)
    800049d4:	7465                	lui	s0,0xffff9
    800049d6:	6974                	ld	a3,208(a0)
    800049d8:	676e                	ld	a4,216(sp)
    800049da:	7020                	ld	s0,96(s0)
    800049dc:	7265                	lui	tp,0xffff9
    800049de:	6f69                	lui	t5,0x1a
    800049e0:	2064                	.insn	2, 0x2064
    800049e2:	6572                	ld	a0,280(sp)
    800049e4:	74736967          	.insn	4, 0x74736967
    800049e8:	7265                	lui	tp,0xffff9
    800049ea:	0000                	unimp
    800049ec:	0000                	unimp
    800049ee:	0000                	unimp
    800049f0:	500a                	.insn	2, 0x500a
    800049f2:	25204d57          	.insn	4, 0x25204d57
    800049f6:	2064                	.insn	2, 0x2064
    800049f8:	63637573          	.insn	4, 0x63637573
    800049fc:	7365                	lui	t1,0xffff9
    800049fe:	7566                	ld	a0,120(sp)
    80004a00:	6c6c                	ld	a1,216(s0)
    80004a02:	2079                	.insn	2, 0x2079
    80004a04:	666e6f63          	bltu	t3,t1,80005082 <u0_rcv_char+0x27a>
    80004a08:	6769                	lui	a4,0x1a
    80004a0a:	7275                	lui	tp,0xffffd
    80004a0c:	6465                	lui	s0,0x19
    80004a0e:	0000                	unimp
    80004a10:	200a                	.insn	2, 0x200a
    80004a12:	5750                	lw	a2,44(a4)
    80004a14:	204d                	.insn	2, 0x204d
    80004a16:	6f6d                	lui	t5,0x1b
    80004a18:	7564                	ld	s1,232(a0)
    80004a1a:	656c                	ld	a1,200(a0)
    80004a1c:	6e20                	ld	s0,88(a2)
    80004a1e:	6d75                	lui	s10,0x1d
    80004a20:	6562                	ld	a0,24(sp)
    80004a22:	2072                	.insn	2, 0x2072
    80004a24:	6425                	lui	s0,0x9
    80004a26:	6820                	ld	s0,80(s0)
    80004a28:	7361                	lui	t1,0xffff8
    80004a2a:	6220                	ld	s0,64(a2)
    80004a2c:	6565                	lui	a0,0x19
    80004a2e:	206e                	.insn	2, 0x206e
    80004a30:	706f7473          	.insn	4, 0x706f7473
    80004a34:	6570                	ld	a2,200(a0)
    80004a36:	0064                	addi	s1,sp,12
    80004a38:	540a                	lw	s0,160(sp)
    80004a3a:	6568                	ld	a0,200(a0)
    80004a3c:	7620                	ld	s0,104(a2)
    80004a3e:	6c61                	lui	s8,0x18
    80004a40:	6575                	lui	a0,0x1d
    80004a42:	6f20                	ld	s0,88(a4)
    80004a44:	2066                	.insn	2, 0x2066
    80004a46:	6570                	ld	a2,200(a0)
    80004a48:	6972                	ld	s2,280(sp)
    80004a4a:	7220646f          	jal	s0,8000b16c <u2_rcv_char+0x1544>
    80004a4e:	6765                	lui	a4,0x19
    80004a50:	7369                	lui	t1,0xffffa
    80004a52:	6574                	ld	a3,200(a0)
    80004a54:	2072                	.insn	2, 0x2072
    80004a56:	7369                	lui	t1,0xffffa
    80004a58:	2520                	.insn	2, 0x2520
    80004a5a:	0078                	addi	a4,sp,12
    80004a5c:	0000                	unimp
    80004a5e:	0000                	unimp
    80004a60:	540a                	lw	s0,160(sp)
    80004a62:	6568                	ld	a0,200(a0)
    80004a64:	7620                	ld	s0,104(a2)
    80004a66:	6c61                	lui	s8,0x18
    80004a68:	6575                	lui	a0,0x1d
    80004a6a:	6f20                	ld	s0,88(a4)
    80004a6c:	2066                	.insn	2, 0x2066
    80004a6e:	7564                	ld	s1,232(a0)
    80004a70:	7974                	ld	a3,240(a0)
    80004a72:	7220                	ld	s0,96(a2)
    80004a74:	6765                	lui	a4,0x19
    80004a76:	7369                	lui	t1,0xffffa
    80004a78:	6574                	ld	a3,200(a0)
    80004a7a:	2072                	.insn	2, 0x2072
    80004a7c:	7369                	lui	t1,0xffffa
    80004a7e:	2520                	.insn	2, 0x2520
    80004a80:	0078                	addi	a4,sp,12
    80004a82:	0000                	unimp
    80004a84:	0000                	unimp
    80004a86:	0000                	unimp
    80004a88:	540a                	lw	s0,160(sp)
    80004a8a:	6568                	ld	a0,200(a0)
    80004a8c:	7620                	ld	s0,104(a2)
    80004a8e:	6c61                	lui	s8,0x18
    80004a90:	6575                	lui	a0,0x1d
    80004a92:	6f20                	ld	s0,88(a4)
    80004a94:	2066                	.insn	2, 0x2066
    80004a96:	746e6f63          	bltu	t3,t1,800051f4 <u0_rcv_char+0x3ec>
    80004a9a:	6f72                	ld	t5,280(sp)
    80004a9c:	206c                	.insn	2, 0x206c
    80004a9e:	6572                	ld	a0,280(sp)
    80004aa0:	74736967          	.insn	4, 0x74736967
    80004aa4:	7265                	lui	tp,0xffff9
    80004aa6:	6920                	ld	s0,80(a0)
    80004aa8:	78252073          	.insn	4, 0x78252073
    80004aac:	0000                	unimp
    80004aae:	0000                	unimp
    80004ab0:	540a                	lw	s0,160(sp)
    80004ab2:	6568                	ld	a0,200(a0)
    80004ab4:	7620                	ld	s0,104(a2)
    80004ab6:	6c61                	lui	s8,0x18
    80004ab8:	6575                	lui	a0,0x1d
    80004aba:	6f20                	ld	s0,88(a4)
    80004abc:	2066                	.insn	2, 0x2066
    80004abe:	636f6c63          	bltu	t5,s6,800050f6 <u0_rcv_char+0x2ee>
    80004ac2:	6572206b          	.insn	4, 0x6572206b
    80004ac6:	74736967          	.insn	4, 0x74736967
    80004aca:	7265                	lui	tp,0xffff9
    80004acc:	6920                	ld	s0,80(a0)
    80004ace:	78252073          	.insn	4, 0x78252073
    80004ad2:	0000                	unimp
    80004ad4:	0000                	unimp
    80004ad6:	0000                	unimp
    80004ad8:	460a                	lw	a2,128(sp)
    80004ada:	4f52                	lw	t5,20(sp)
    80004adc:	544e                	lw	s0,240(sp)
    80004ade:	203a                	.insn	2, 0x203a
    80004ae0:	7525                	lui	a0,0xfffe9
    80004ae2:	7520                	ld	s0,104(a0)
    80004ae4:	207c2073          	.insn	4, 0x207c2073
    80004ae8:	7525                	lui	a0,0xfffe9
    80004aea:	252e                	.insn	2, 0x252e
    80004aec:	2075                	.insn	2, 0x2075
    80004aee:	00006d63          	bltu	zero,zero,80004b08 <__rodata_start+0xe60>
    80004af2:	0000                	unimp
    80004af4:	0000                	unimp
    80004af6:	0000                	unimp
    80004af8:	4f0a                	lw	t5,128(sp)
    80004afa:	5342                	lw	t1,48(sp)
    80004afc:	4154                	lw	a3,4(a0)
    80004afe:	20454c43          	.insn	4, 0x20454c43
    80004b02:	3d3c                	.insn	2, 0x3d3c
    80004b04:	3031                	.insn	2, 0x3031
    80004b06:	2030                	.insn	2, 0x2030
    80004b08:	202e6d63          	bltu	t3,sp,80004d22 <mcause_trap_table+0x32>
    80004b0c:	6e616353          	.insn	4, 0x6e616353
    80004b10:	696e                	ld	s2,216(sp)
    80004b12:	676e                	ld	a4,216(sp)
    80004b14:	7320                	ld	s0,96(a4)
    80004b16:	6469                	lui	s0,0x1a
    80004b18:	7365                	lui	t1,0xffff9
    80004b1a:	2e2e                	.insn	2, 0x2e2e
    80004b1c:	002e                	c.slli	zero,0xb
    80004b1e:	0000                	unimp
    80004b20:	4c0a                	lw	s8,128(sp)
    80004b22:	4645                	li	a2,17
    80004b24:	2054                	.insn	2, 0x2054
    80004b26:	203a                	.insn	2, 0x203a
    80004b28:	7525                	lui	a0,0xfffe9
    80004b2a:	7520                	ld	s0,104(a0)
    80004b2c:	207c2073          	.insn	4, 0x207c2073
    80004b30:	7525                	lui	a0,0xfffe9
    80004b32:	252e                	.insn	2, 0x252e
    80004b34:	2075                	.insn	2, 0x2075
    80004b36:	00006d63          	bltu	zero,zero,80004b50 <__rodata_start+0xea8>
    80004b3a:	0000                	unimp
    80004b3c:	0000                	unimp
    80004b3e:	0000                	unimp
    80004b40:	520a                	lw	tp,160(sp)
    80004b42:	4749                	li	a4,18
    80004b44:	5448                	lw	a0,44(s0)
    80004b46:	203a                	.insn	2, 0x203a
    80004b48:	7525                	lui	a0,0xfffe9
    80004b4a:	7520                	ld	s0,104(a0)
    80004b4c:	207c2073          	.insn	4, 0x207c2073
    80004b50:	7525                	lui	a0,0xfffe9
    80004b52:	252e                	.insn	2, 0x252e
    80004b54:	2075                	.insn	2, 0x2075
    80004b56:	00006d63          	bltu	zero,zero,80004b70 <__rodata_start+0xec8>
    80004b5a:	0000                	unimp
    80004b5c:	0000                	unimp
    80004b5e:	0000                	unimp
    80004b60:	540a                	lw	s0,160(sp)
    80004b62:	5255                	li	tp,-11
    80004b64:	204e                	.insn	2, 0x204e
    80004b66:	454c                	lw	a1,12(a0)
    80004b68:	5446                	lw	s0,112(sp)
    80004b6a:	2e2e                	.insn	2, 0x2e2e
    80004b6c:	002e                	c.slli	zero,0xb
    80004b6e:	0000                	unimp
    80004b70:	540a                	lw	s0,160(sp)
    80004b72:	5255                	li	tp,-11
    80004b74:	204e                	.insn	2, 0x204e
    80004b76:	4952                	lw	s2,20(sp)
    80004b78:	2e544847          	.insn	4, 0x2e544847
    80004b7c:	2e2e                	.insn	2, 0x2e2e
    80004b7e:	0000                	unimp
    80004b80:	420a                	lw	tp,128(sp)
    80004b82:	4f4c                	lw	a1,28(a4)
    80004b84:	44454b43          	.insn	4, 0x44454b43
    80004b88:	4220                	lw	s0,64(a2)
    80004b8a:	2048544f          	.insn	4, 0x2048544f
    80004b8e:	45444953          	.insn	4, 0x45444953
    80004b92:	42202e53          	.insn	4, 0x42202e53
    80004b96:	5a55                	li	s4,-11
    80004b98:	455a                	lw	a0,148(sp)
    80004b9a:	2052                	.insn	2, 0x2052
    80004b9c:	002e4e4f          	.insn	4, 0x002e4e4f

0000000080004ba0 <__clz_tab>:
    80004ba0:	0100                	addi	s0,sp,128
    80004ba2:	0202                	c.slli64	tp
    80004ba4:	03030303          	lb	t1,48(t1) # ffffffffffff9030 <__stack_pointer$+0xffffffff77ff9430>
    80004ba8:	0404                	addi	s1,sp,512
    80004baa:	0404                	addi	s1,sp,512
    80004bac:	0404                	addi	s1,sp,512
    80004bae:	0404                	addi	s1,sp,512
    80004bb0:	0505                	addi	a0,a0,1 # fffffffffffe9001 <__stack_pointer$+0xffffffff77fe9401>
    80004bb2:	0505                	addi	a0,a0,1
    80004bb4:	0505                	addi	a0,a0,1
    80004bb6:	0505                	addi	a0,a0,1
    80004bb8:	0505                	addi	a0,a0,1
    80004bba:	0505                	addi	a0,a0,1
    80004bbc:	0505                	addi	a0,a0,1
    80004bbe:	0505                	addi	a0,a0,1
    80004bc0:	0606                	slli	a2,a2,0x1
    80004bc2:	0606                	slli	a2,a2,0x1
    80004bc4:	0606                	slli	a2,a2,0x1
    80004bc6:	0606                	slli	a2,a2,0x1
    80004bc8:	0606                	slli	a2,a2,0x1
    80004bca:	0606                	slli	a2,a2,0x1
    80004bcc:	0606                	slli	a2,a2,0x1
    80004bce:	0606                	slli	a2,a2,0x1
    80004bd0:	0606                	slli	a2,a2,0x1
    80004bd2:	0606                	slli	a2,a2,0x1
    80004bd4:	0606                	slli	a2,a2,0x1
    80004bd6:	0606                	slli	a2,a2,0x1
    80004bd8:	0606                	slli	a2,a2,0x1
    80004bda:	0606                	slli	a2,a2,0x1
    80004bdc:	0606                	slli	a2,a2,0x1
    80004bde:	0606                	slli	a2,a2,0x1
    80004be0:	07070707          	.insn	4, 0x07070707
    80004be4:	07070707          	.insn	4, 0x07070707
    80004be8:	07070707          	.insn	4, 0x07070707
    80004bec:	07070707          	.insn	4, 0x07070707
    80004bf0:	07070707          	.insn	4, 0x07070707
    80004bf4:	07070707          	.insn	4, 0x07070707
    80004bf8:	07070707          	.insn	4, 0x07070707
    80004bfc:	07070707          	.insn	4, 0x07070707
    80004c00:	07070707          	.insn	4, 0x07070707
    80004c04:	07070707          	.insn	4, 0x07070707
    80004c08:	07070707          	.insn	4, 0x07070707
    80004c0c:	07070707          	.insn	4, 0x07070707
    80004c10:	07070707          	.insn	4, 0x07070707
    80004c14:	07070707          	.insn	4, 0x07070707
    80004c18:	07070707          	.insn	4, 0x07070707
    80004c1c:	07070707          	.insn	4, 0x07070707
    80004c20:	0808                	addi	a0,sp,16
    80004c22:	0808                	addi	a0,sp,16
    80004c24:	0808                	addi	a0,sp,16
    80004c26:	0808                	addi	a0,sp,16
    80004c28:	0808                	addi	a0,sp,16
    80004c2a:	0808                	addi	a0,sp,16
    80004c2c:	0808                	addi	a0,sp,16
    80004c2e:	0808                	addi	a0,sp,16
    80004c30:	0808                	addi	a0,sp,16
    80004c32:	0808                	addi	a0,sp,16
    80004c34:	0808                	addi	a0,sp,16
    80004c36:	0808                	addi	a0,sp,16
    80004c38:	0808                	addi	a0,sp,16
    80004c3a:	0808                	addi	a0,sp,16
    80004c3c:	0808                	addi	a0,sp,16
    80004c3e:	0808                	addi	a0,sp,16
    80004c40:	0808                	addi	a0,sp,16
    80004c42:	0808                	addi	a0,sp,16
    80004c44:	0808                	addi	a0,sp,16
    80004c46:	0808                	addi	a0,sp,16
    80004c48:	0808                	addi	a0,sp,16
    80004c4a:	0808                	addi	a0,sp,16
    80004c4c:	0808                	addi	a0,sp,16
    80004c4e:	0808                	addi	a0,sp,16
    80004c50:	0808                	addi	a0,sp,16
    80004c52:	0808                	addi	a0,sp,16
    80004c54:	0808                	addi	a0,sp,16
    80004c56:	0808                	addi	a0,sp,16
    80004c58:	0808                	addi	a0,sp,16
    80004c5a:	0808                	addi	a0,sp,16
    80004c5c:	0808                	addi	a0,sp,16
    80004c5e:	0808                	addi	a0,sp,16
    80004c60:	0808                	addi	a0,sp,16
    80004c62:	0808                	addi	a0,sp,16
    80004c64:	0808                	addi	a0,sp,16
    80004c66:	0808                	addi	a0,sp,16
    80004c68:	0808                	addi	a0,sp,16
    80004c6a:	0808                	addi	a0,sp,16
    80004c6c:	0808                	addi	a0,sp,16
    80004c6e:	0808                	addi	a0,sp,16
    80004c70:	0808                	addi	a0,sp,16
    80004c72:	0808                	addi	a0,sp,16
    80004c74:	0808                	addi	a0,sp,16
    80004c76:	0808                	addi	a0,sp,16
    80004c78:	0808                	addi	a0,sp,16
    80004c7a:	0808                	addi	a0,sp,16
    80004c7c:	0808                	addi	a0,sp,16
    80004c7e:	0808                	addi	a0,sp,16
    80004c80:	0808                	addi	a0,sp,16
    80004c82:	0808                	addi	a0,sp,16
    80004c84:	0808                	addi	a0,sp,16
    80004c86:	0808                	addi	a0,sp,16
    80004c88:	0808                	addi	a0,sp,16
    80004c8a:	0808                	addi	a0,sp,16
    80004c8c:	0808                	addi	a0,sp,16
    80004c8e:	0808                	addi	a0,sp,16
    80004c90:	0808                	addi	a0,sp,16
    80004c92:	0808                	addi	a0,sp,16
    80004c94:	0808                	addi	a0,sp,16
    80004c96:	0808                	addi	a0,sp,16
    80004c98:	0808                	addi	a0,sp,16
    80004c9a:	0808                	addi	a0,sp,16
    80004c9c:	0808                	addi	a0,sp,16
    80004c9e:	0808                	addi	a0,sp,16

Disassembly of section .sdata:

0000000080004ca0 <stack_end>:
    80004ca0:	fc00                	sd	s0,56(s0)
    80004ca2:	87ff 0000 0000  	.insn	10, 0x840060ec0000000087ff
    80004caa:	 

0000000080004ca8 <stack_start>:
    80004ca8:	60ec                	ld	a1,192(s1)
    80004caa:	8400                	.insn	2, 0x8400
    80004cac:	0000                	unimp
	...

0000000080004cb0 <heap_start>:
    80004cb0:	c5d8                	sw	a4,12(a1)
    80004cb2:	8000                	.insn	2, 0x8000
    80004cb4:	0000                	unimp
	...

0000000080004cb8 <heap_end>:
    80004cb8:	60ec                	ld	a1,192(s1)
    80004cba:	8400                	.insn	2, 0x8400
    80004cbc:	0000                	unimp
	...

0000000080004cc0 <mtime>:
    80004cc0:	bff8                	.insn	2, 0xbff8
    80004cc2:	0200                	addi	s0,sp,256
    80004cc4:	0000                	unimp
	...

0000000080004cc8 <mtimecmp>:
    80004cc8:	4000                	lw	s0,0(s0)
    80004cca:	0200                	addi	s0,sp,256
    80004ccc:	0000                	unimp
	...

Disassembly of section .riscv.attributes:

0000000000000000 <_heap-0x8000c5d8>:
   0:	4041                	c.li	zero,16
   2:	0000                	unimp
   4:	7200                	ld	s0,32(a2)
   6:	7369                	lui	t1,0xffffa
   8:	01007663          	bgeu	zero,a6,14 <_tbss_end+0x14>
   c:	0036                	c.slli	zero,0xd
   e:	0000                	unimp
  10:	1004                	addi	s1,sp,32
  12:	7205                	lui	tp,0xfffe1
  14:	3676                	.insn	2, 0x3676
  16:	6934                	ld	a3,80(a0)
  18:	7032                	.insn	2, 0x7032
  1a:	5f31                	li	t5,-20
  1c:	326d                	addiw	tp,tp,-5 # fffffffffffe0ffb <__stack_pointer$+0xffffffff77fe13fb>
  1e:	3070                	.insn	2, 0x3070
  20:	615f 7032 5f31      	.insn	6, 0x5f317032615f
  26:	30703263          	.insn	4, 0x30703263
  2a:	7a5f 6369 7273      	.insn	6, 0x727363697a5f
  30:	7032                	.insn	2, 0x7032
  32:	5f30                	lw	a2,120(a4)
  34:	6d7a                	ld	s10,408(sp)
  36:	756d                	lui	a0,0xffffb
  38:	316c                	.insn	2, 0x316c
  3a:	3070                	.insn	2, 0x3070
  3c:	0800                	addi	s0,sp,16
  3e:	0a01                	addi	s4,s4,0
  40:	Address 0x40 is out of bounds.


Disassembly of section .comment:

0000000000000000 <.comment>:
   0:	3a434347          	.insn	4, 0x3a434347
   4:	2820                	.insn	2, 0x2820
   6:	39386367          	.insn	4, 0x39386367
   a:	6431                	lui	s0,0xc
   c:	6438                	ld	a4,72(s0)
   e:	65333263          	.insn	4, 0x65333263
  12:	2029                	.insn	2, 0x2029
  14:	3331                	addiw	t1,t1,-20 # ffffffffffff9fec <__stack_pointer$+0xffffffff77ffa3ec>
  16:	322e                	.insn	2, 0x322e
  18:	302e                	.insn	2, 0x302e
  1a:	4700                	lw	s0,8(a4)
  1c:	203a4343          	.insn	4, 0x203a4343
  20:	4728                	lw	a0,72(a4)
  22:	554e                	lw	a0,240(sp)
  24:	2029                	.insn	2, 0x2029
  26:	3331                	addiw	t1,t1,-20
  28:	322e                	.insn	2, 0x322e
  2a:	302e                	.insn	2, 0x302e
	...

Disassembly of section .debug_info:

0000000000000000 <.debug_info>:
       0:	0329                	addi	t1,t1,10
       2:	0000                	unimp
       4:	0005                	c.nop	1
       6:	0801                	addi	a6,a6,0 # fffffffffffe9000 <__stack_pointer$+0xffffffff77fe9400>
       8:	0000                	unimp
       a:	0000                	unimp
       c:	0000c20b          	.insn	4, 0xc20b
      10:	1d00                	addi	s0,sp,688
      12:	0000                	unimp
      14:	0000                	unimp
      16:	002d                	c.nop	11
      18:	0000                	unimp
      1a:	2f1a                	.insn	2, 0x2f1a
      1c:	8000                	.insn	2, 0x8000
      1e:	0000                	unimp
      20:	0000                	unimp
      22:	033a                	slli	t1,t1,0xe
	...
      2c:	0000                	unimp
      2e:	0801                	addi	a6,a6,0
      30:	0804                	addi	s1,sp,16
      32:	0004                	.insn	2, 0x0004
      34:	0100                	addi	s0,sp,128
      36:	0510                	addi	a2,sp,640
      38:	00a5                	addi	ra,ra,9
      3a:	0000                	unimp
      3c:	1001                	c.nop	-32
      3e:	00000007          	.insn	4, 0x0007
      42:	0100                	addi	s0,sp,128
      44:	0508                	addi	a0,sp,640
      46:	01b4                	addi	a3,sp,200
      48:	0000                	unimp
      4a:	0101                	addi	sp,sp,0
      4c:	6f06                	ld	t5,64(sp)
      4e:	0000                	unimp
      50:	0c00                	addi	s0,sp,528
      52:	0504                	addi	s1,sp,640
      54:	6e69                	lui	t3,0x1a
      56:	0074                	addi	a3,sp,12
      58:	0101                	addi	sp,sp,0
      5a:	6d08                	ld	a0,24(a0)
      5c:	0000                	unimp
      5e:	0100                	addi	s0,sp,128
      60:	0704                	addi	s1,sp,896
      62:	00000187          	.insn	4, 0x0187
      66:	0801                	addi	a6,a6,0
      68:	00018207          	.insn	4, 0x00018207
      6c:	0d00                	addi	s0,sp,656
      6e:	0048                	addi	a0,sp,4
      70:	0000                	unimp
      72:	4402                	lw	s0,0(sp)
      74:	00002e0f          	.insn	4, 0x2e0f
      78:	0e00                	addi	s0,sp,784
      7a:	0208                	addi	a0,sp,256
      7c:	03c6                	slli	t2,t2,0x11
      7e:	000000ab          	.insn	4, 0x00ab
      82:	7808                	ld	a0,48(s0)
      84:	0001                	nop
      86:	cd00                	sw	s0,24(a0)
      88:	ab10                	.insn	2, 0xab10
      8a:	0000                	unimp
      8c:	3400                	.insn	2, 0x3400
      8e:	0f00                	addi	s0,sp,912
      90:	7865                	lui	a6,0xffff9
      92:	0070                	addi	a2,sp,12
      94:	ce02                	sw	zero,28(sp)
      96:	5f0e                	lw	t5,224(sp)
      98:	0000                	unimp
      9a:	0b00                	addi	s0,sp,400
      9c:	0834                	addi	a3,sp,24
      9e:	0208                	addi	a0,sp,256
      a0:	0000                	unimp
      a2:	005f0ecf          	.insn	4, 0x005f0ecf
      a6:	0000                	unimp
      a8:	3f01                	addiw	t5,t5,-32 # 1afe0 <_tbss_end+0x1afe0>
      aa:	0100                	addi	s0,sp,128
      ac:	0708                	addi	a0,sp,896
      ae:	017d                	addi	sp,sp,31
      b0:	0000                	unimp
      b2:	d410                	sw	a2,40(s0)
      b4:	0001                	nop
      b6:	0800                	addi	s0,sp,16
      b8:	c302                	sw	zero,132(sp)
      ba:	0000d807          	.insn	4, 0xd807
      be:	1100                	addi	s0,sp,160
      c0:	6c66                	ld	s8,88(sp)
      c2:	0074                	addi	a3,sp,12
      c4:	c502                	sw	zero,136(sp)
      c6:	6d0a                	ld	s10,128(sp)
      c8:	0000                	unimp
      ca:	1200                	addi	s0,sp,288
      cc:	020d                	addi	tp,tp,3 # 3 <_tbss_end+0x3>
      ce:	0000                	unimp
      d0:	d102                	sw	zero,160(sp)
      d2:	7905                	lui	s2,0xfffe1
      d4:	0000                	unimp
      d6:	0000                	unimp
      d8:	00002513          	slti	a0,zero,0
      dc:	0100                	addi	s0,sp,128
      de:	0121                	addi	sp,sp,8
      e0:	006d                	c.nop	27
      e2:	0000                	unimp
      e4:	2f1a                	.insn	2, 0x2f1a
      e6:	8000                	.insn	2, 0x8000
      e8:	0000                	unimp
      ea:	0000                	unimp
      ec:	033a                	slli	t1,t1,0xe
      ee:	0000                	unimp
      f0:	0000                	unimp
      f2:	0000                	unimp
      f4:	9c01                	subw	s0,s0,s0
      f6:	031c                	addi	a5,sp,384
      f8:	0000                	unimp
      fa:	6109                	addi	sp,sp,128
      fc:	1200                	addi	s0,sp,288
      fe:	006d                	c.nop	27
     100:	0000                	unimp
     102:	000c                	.insn	2, 0x000c
     104:	0000                	unimp
     106:	6209                	lui	tp,0x2
     108:	1c00                	addi	s0,sp,560
     10a:	006d                	c.nop	27
     10c:	0000                	unimp
     10e:	007a                	c.slli	zero,0x1e
     110:	0000                	unimp
     112:	2e06                	.insn	2, 0x2e06
     114:	0000                	unimp
     116:	2300                	.insn	2, 0x2300
     118:	0051                	c.nop	20
     11a:	0000                	unimp
     11c:	0000008b          	.insn	4, 0x008b
     120:	3414                	.insn	2, 0x3414
     122:	0002                	c.slli64	zero
     124:	0100                	addi	s0,sp,128
     126:	00510323          	sb	t0,6(sp)
     12a:	0000                	unimp
     12c:	0700                	addi	s0,sp,896
     12e:	5f41                	li	t5,-16
     130:	1c240063          	beq	s0,sp,2f0 <_tbss_end+0x2f0>
     134:	02000003          	lb	zero,32(zero) # 20 <_tbss_end+0x20>
     138:	5f41                	li	t5,-16
     13a:	03240073          	.insn	4, 0x03240073
     13e:	031c                	addi	a5,sp,384
     140:	0000                	unimp
     142:	000000b3          	add	ra,zero,zero
     146:	4102                	lw	sp,0(sp)
     148:	655f 2400 1c03      	.insn	6, 0x1c032400655f
     14e:	00000003          	lb	zero,0(zero) # 0 <_tbss_end>
     152:	0001                	nop
     154:	0200                	addi	s0,sp,256
     156:	5f41                	li	t5,-16
     158:	0066                	c.slli	zero,0x19
     15a:	0324                	addi	s1,sp,392
     15c:	000000ab          	.insn	4, 0x00ab
     160:	01b9                	addi	gp,gp,14 # 800054ae <__global_pointer$+0xe>
     162:	0000                	unimp
     164:	635f4207          	.insn	4, 0x635f4207
     168:	2500                	.insn	2, 0x2500
     16a:	031c                	addi	a5,sp,384
     16c:	0000                	unimp
     16e:	4202                	lw	tp,0(sp)
     170:	735f 2500 1c03      	.insn	6, 0x1c032500735f
     176:	19000003          	lb	zero,400(zero) # 190 <_tbss_end+0x190>
     17a:	0002                	c.slli64	zero
     17c:	0200                	addi	s0,sp,256
     17e:	5f42                	lw	t5,48(sp)
     180:	0065                	c.nop	25
     182:	0325                	addi	t1,t1,9
     184:	031c                	addi	a5,sp,384
     186:	0000                	unimp
     188:	0242                	slli	tp,tp,0x10
     18a:	0000                	unimp
     18c:	4202                	lw	tp,0(sp)
     18e:	665f 2500 ab03      	.insn	6, 0xab032500665f
     194:	0000                	unimp
     196:	6500                	ld	s0,8(a0)
     198:	0002                	c.slli64	zero
     19a:	0700                	addi	s0,sp,896
     19c:	5f52                	lw	t5,52(sp)
     19e:	1c260063          	beq	a2,sp,35e <_tbss_end+0x35e>
     1a2:	02000003          	lb	zero,32(zero) # 20 <_tbss_end+0x20>
     1a6:	5f52                	lw	t5,52(sp)
     1a8:	03260073          	.insn	4, 0x03260073
     1ac:	031c                	addi	a5,sp,384
     1ae:	0000                	unimp
     1b0:	0302                	c.slli64	t1
     1b2:	0000                	unimp
     1b4:	5202                	lw	tp,32(sp)
     1b6:	655f 2600 1c03      	.insn	6, 0x1c032600655f
     1bc:	54000003          	lb	zero,1344(zero) # 540 <_tbss_end+0x540>
     1c0:	02000003          	lb	zero,32(zero) # 20 <_tbss_end+0x20>
     1c4:	5f52                	lw	t5,52(sp)
     1c6:	0066                	c.slli	zero,0x19
     1c8:	0326                	slli	t1,t1,0x9
     1ca:	000000ab          	.insn	4, 0x00ab
     1ce:	0408                	addi	a0,sp,512
     1d0:	0000                	unimp
     1d2:	7202                	ld	tp,32(sp)
     1d4:	2700                	.insn	2, 0x2700
     1d6:	6d0a                	ld	s10,128(sp)
     1d8:	0000                	unimp
     1da:	2400                	.insn	2, 0x2400
     1dc:	0005                	c.nop	1
     1de:	0500                	addi	s0,sp,640
     1e0:	000c                	.insn	2, 0x000c
     1e2:	0000                	unimp
     1e4:	000001f3          	.insn	4, 0x01f3
     1e8:	7b04                	ld	s1,48(a4)
     1ea:	0000                	unimp
     1ec:	2a00                	.insn	2, 0x2a00
     1ee:	00b2                	slli	ra,ra,0xc
     1f0:	0000                	unimp
     1f2:	0500                	addi	s0,sp,640
     1f4:	001c                	.insn	2, 0x001c
     1f6:	0000                	unimp
     1f8:	00000207          	.insn	4, 0x0207
     1fc:	7b04                	ld	s1,48(a4)
     1fe:	0000                	unimp
     200:	2b00                	.insn	2, 0x2b00
     202:	00b2                	slli	ra,ra,0xc
     204:	0000                	unimp
     206:	0500                	addi	s0,sp,640
     208:	002c                	addi	a1,sp,8
     20a:	0000                	unimp
     20c:	00000253          	.insn	4, 0x0253
     210:	0001fe03          	.insn	4, 0x0001fe03
     214:	a600                	.insn	2, 0xa600
     216:	0080002f          	.insn	4, 0x0080002f
     21a:	0000                	unimp
     21c:	0300                	addi	s0,sp,384
     21e:	00000203          	lb	tp,0(zero) # 0 <_tbss_end>
     222:	3004                	.insn	2, 0x3004
     224:	8000                	.insn	2, 0x8000
     226:	0000                	unimp
     228:	0000                	unimp
     22a:	00019403          	lh	s0,0(gp) # 800054a0 <__global_pointer$>
     22e:	6600                	ld	s0,8(a2)
     230:	0080002f          	.insn	4, 0x0080002f
     234:	0000                	unimp
     236:	0300                	addi	s0,sp,384
     238:	0064                	addi	s1,sp,12
     23a:	0000                	unimp
     23c:	304e                	.insn	2, 0x304e
     23e:	8000                	.insn	2, 0x8000
     240:	0000                	unimp
     242:	0000                	unimp
     244:	bd06                	.insn	2, 0xbd06
     246:	0001                	nop
     248:	2c00                	.insn	2, 0x2c00
     24a:	0051                	c.nop	20
     24c:	0000                	unimp
     24e:	053a                	slli	a0,a0,0xe
     250:	0000                	unimp
     252:	0500                	addi	s0,sp,640
     254:	0048                	addi	a0,sp,4
     256:	0000                	unimp
     258:	02cd                	addi	t0,t0,19
     25a:	0000                	unimp
     25c:	0000ae03          	lw	t3,0(ra)
     260:	b400                	.insn	2, 0xb400
     262:	0030                	addi	a2,sp,8
     264:	0080                	addi	s0,sp,64
     266:	0000                	unimp
     268:	0300                	addi	s0,sp,384
     26a:	000000b3          	add	ra,zero,zero
     26e:	3126                	.insn	2, 0x3126
     270:	8000                	.insn	2, 0x8000
     272:	0000                	unimp
     274:	0000                	unimp
     276:	0000b803          	ld	a6,0(ra)
     27a:	9c00                	.insn	2, 0x9c00
     27c:	0030                	addi	a2,sp,8
     27e:	0080                	addi	s0,sp,64
     280:	0000                	unimp
     282:	0300                	addi	s0,sp,384
     284:	00bd                	addi	ra,ra,15
     286:	0000                	unimp
     288:	31f0                	.insn	2, 0x31f0
     28a:	8000                	.insn	2, 0x8000
     28c:	0000                	unimp
     28e:	0000                	unimp
     290:	0001e003          	lwu	zero,0(gp) # 800054a0 <__global_pointer$>
     294:	4e00                	lw	s0,24(a2)
     296:	0030                	addi	a2,sp,8
     298:	0080                	addi	s0,sp,64
     29a:	0000                	unimp
     29c:	0600                	addi	s0,sp,768
     29e:	01bd                	addi	gp,gp,15 # 800054af <__global_pointer$+0xf>
     2a0:	0000                	unimp
     2a2:	512c                	lw	a1,96(a0)
     2a4:	0000                	unimp
     2a6:	be00                	.insn	2, 0xbe00
     2a8:	0005                	c.nop	1
     2aa:	0a00                	addi	s0,sp,272
     2ac:	006a                	c.slli	zero,0x1a
     2ae:	0000                	unimp
     2b0:	9906                	add	s2,s2,ra
     2b2:	0001                	nop
     2b4:	2c00                	.insn	2, 0x2c00
     2b6:	0051                	c.nop	20
     2b8:	0000                	unimp
     2ba:	0650                	addi	a2,sp,772
     2bc:	0000                	unimp
     2be:	f615                	bnez	a2,1ea <_tbss_end+0x1ea>
     2c0:	0031                	c.nop	12
     2c2:	0080                	addi	s0,sp,64
     2c4:	0000                	unimp
     2c6:	2300                	.insn	2, 0x2300
     2c8:	00000003          	lb	zero,0(zero) # 0 <_tbss_end>
     2cc:	0500                	addi	s0,sp,640
     2ce:	007a                	c.slli	zero,0x1e
     2d0:	0000                	unimp
     2d2:	0000030b          	.insn	4, 0x030b
     2d6:	1b04                	addi	s1,sp,432
     2d8:	0002                	c.slli64	zero
     2da:	2d00                	.insn	2, 0x2d00
     2dc:	0051                	c.nop	20
     2de:	0000                	unimp
     2e0:	0416                	slli	s0,s0,0x5
     2e2:	00000033          	add	zero,zero,zero
     2e6:	1c2d                	addi	s8,s8,-21 # 17feb <_tbss_end+0x17feb>
     2e8:	04000003          	lb	zero,64(zero) # 40 <_tbss_end+0x40>
     2ec:	0090                	addi	a2,sp,64
     2ee:	0000                	unimp
     2f0:	1c2d                	addi	s8,s8,-21
     2f2:	04000003          	lb	zero,64(zero) # 40 <_tbss_end+0x40>
     2f6:	01e9                	addi	gp,gp,26 # 800054ba <__global_pointer$+0x1a>
     2f8:	0000                	unimp
     2fa:	1c2d                	addi	s8,s8,-21
     2fc:	04000003          	lb	zero,64(zero) # 40 <_tbss_end+0x40>
     300:	0000004f          	.insn	4, 0x004f
     304:	ab2d                	j	83e <_tbss_end+0x83e>
     306:	0000                	unimp
     308:	0000                	unimp
     30a:	0a00                	addi	s0,sp,272
     30c:	008a                	slli	ra,ra,0x2
     30e:	0000                	unimp
     310:	1204                	addi	s1,sp,288
     312:	0000                	unimp
     314:	2d00                	.insn	2, 0x2d00
     316:	00b2                	slli	ra,ra,0xc
     318:	0000                	unimp
     31a:	0000                	unimp
     31c:	0801                	addi	a6,a6,0 # ffffffffffff9000 <__stack_pointer$+0xffffffff77ff9400>
     31e:	af05                	j	a4e <_tbss_end+0xa4e>
     320:	0001                	nop
     322:	1700                	addi	s0,sp,928
     324:	0212                	slli	tp,tp,0x4
     326:	0000                	unimp
     328:	0212                	slli	tp,tp,0x4
     32a:	0000                	unimp
     32c:	0800                	addi	s0,sp,16
     32e:	0002                	c.slli64	zero
     330:	0500                	addi	s0,sp,640
     332:	0100                	addi	s0,sp,128
     334:	6308                	ld	a0,0(a4)
     336:	0001                	nop
     338:	0b00                	addi	s0,sp,400
     33a:	00c2                	slli	ra,ra,0x10
     33c:	0000                	unimp
     33e:	c51d                	beqz	a0,36c <_tbss_end+0x36c>
     340:	0000                	unimp
     342:	2d00                	.insn	2, 0x2d00
     344:	0000                	unimp
     346:	5400                	lw	s0,40(s0)
     348:	0032                	c.slli	zero,0xc
     34a:	0080                	addi	s0,sp,64
     34c:	0000                	unimp
     34e:	6e00                	ld	s0,24(a2)
     350:	0000                	unimp
     352:	0000                	unimp
     354:	0000                	unimp
     356:	3300                	.insn	2, 0x3300
     358:	000c                	.insn	2, 0x000c
     35a:	0100                	addi	s0,sp,128
     35c:	0404                	addi	s1,sp,512
     35e:	0431                	addi	s0,s0,12 # c00c <_tbss_end+0xc00c>
     360:	0000                	unimp
     362:	1001                	c.nop	-32
     364:	a505                	j	984 <_tbss_end+0x984>
     366:	0000                	unimp
     368:	0100                	addi	s0,sp,128
     36a:	0710                	addi	a2,sp,896
     36c:	0000                	unimp
     36e:	0000                	unimp
     370:	4d06                	lw	s10,64(sp)
     372:	0002                	c.slli64	zero
     374:	0200                	addi	s0,sp,256
     376:	0d52                	slli	s10,s10,0x14
     378:	0000004f          	.insn	4, 0x004f
     37c:	0801                	addi	a6,a6,0
     37e:	b405                	j	fffffffffffffd9e <__stack_pointer$+0xffffffff7800019e>
     380:	0001                	nop
     382:	0100                	addi	s0,sp,128
     384:	0601                	addi	a2,a2,0 # 19000 <_tbss_end+0x19000>
     386:	0000006f          	j	386 <_tbss_end+0x386>
     38a:	040c                	addi	a1,sp,512
     38c:	6905                	lui	s2,0x1
     38e:	746e                	ld	s0,248(sp)
     390:	0100                	addi	s0,sp,128
     392:	0801                	addi	a6,a6,0
     394:	006d                	c.nop	27
     396:	0000                	unimp
     398:	0401                	addi	s0,s0,0
     39a:	00018707          	.insn	4, 0x00018707
     39e:	0100                	addi	s0,sp,128
     3a0:	0708                	addi	a0,sp,896
     3a2:	0182                	c.slli64	gp
     3a4:	0000                	unimp
     3a6:	6c06                	ld	s8,64(sp)
     3a8:	0002                	c.slli64	zero
     3aa:	0300                	addi	s0,sp,384
     3ac:	0f41                	addi	t5,t5,16
     3ae:	002e                	c.slli	zero,0xb
     3b0:	0000                	unimp
     3b2:	040d                	addi	s0,s0,3
     3b4:	b5034603          	lbu	a2,-1200(t1)
     3b8:	0000                	unimp
     3ba:	0700                	addi	s0,sp,896
     3bc:	0178                	addi	a4,sp,140
     3be:	0000                	unimp
     3c0:	6b4d                	lui	s6,0x13
     3c2:	0000                	unimp
     3c4:	1700                	addi	s0,sp,928
     3c6:	0e00                	addi	s0,sp,784
     3c8:	7865                	lui	a6,0xffff9
     3ca:	0070                	addi	a2,sp,12
     3cc:	6b0e4e03          	lbu	t3,1712(t3) # 1a6b0 <_tbss_end+0x1a6b0>
     3d0:	0000                	unimp
     3d2:	0800                	addi	s0,sp,16
     3d4:	02080717          	auipc	a4,0x2080
     3d8:	0000                	unimp
     3da:	00006b4f          	.insn	4, 0x6b4f
     3de:	0100                	addi	s0,sp,128
     3e0:	001f 410f 0002      	.insn	6, 0x0002410f001f
     3e6:	0400                	addi	s0,sp,512
     3e8:	db074303          	lbu	t1,-592(a4) # 2080184 <_tbss_end+0x2080184>
     3ec:	0000                	unimp
     3ee:	1000                	addi	s0,sp,32
     3f0:	6c66                	ld	s8,88(sp)
     3f2:	0074                	addi	a3,sp,12
     3f4:	790a4503          	lbu	a0,1936(s4)
     3f8:	0000                	unimp
     3fa:	1100                	addi	s0,sp,160
     3fc:	020d                	addi	tp,tp,3 # 2003 <_tbss_end+0x2003>
     3fe:	0000                	unimp
     400:	85055103          	lhu	sp,-1968(a0) # ffffffffffffa850 <__stack_pointer$+0xffffffff77ffac50>
     404:	0000                	unimp
     406:	0000                	unimp
     408:	3912                	.insn	2, 0x3912
     40a:	0002                	c.slli64	zero
     40c:	0100                	addi	s0,sp,128
     40e:	0121                	addi	sp,sp,8
     410:	00000043          	.insn	4, 0x0043
     414:	3254                	.insn	2, 0x3254
     416:	8000                	.insn	2, 0x8000
     418:	0000                	unimp
     41a:	0000                	unimp
     41c:	006e                	c.slli	zero,0x1b
     41e:	0000                	unimp
     420:	0000                	unimp
     422:	0000                	unimp
     424:	9c01                	subw	s0,s0,s0
     426:	01fd                	addi	gp,gp,31 # 800054bf <__global_pointer$+0x1f>
     428:	0000                	unimp
     42a:	6108                	ld	a0,0(a0)
     42c:	1100                	addi	s0,sp,160
     42e:	0079                	c.nop	30
     430:	0000                	unimp
     432:	0682                	c.slli64	a3
     434:	0000                	unimp
     436:	6208                	ld	a0,0(a2)
     438:	1b00                	addi	s0,sp,432
     43a:	0079                	c.nop	30
     43c:	0000                	unimp
     43e:	06b0                	addi	a2,sp,840
     440:	0000                	unimp
     442:	2e09                	addiw	t3,t3,2
     444:	0000                	unimp
     446:	5d00                	lw	s0,56(a0)
     448:	0000                	unimp
     44a:	0900                	addi	s0,sp,144
     44c:	0234                	addi	a3,sp,264
     44e:	0000                	unimp
     450:	005d                	c.nop	23
     452:	0000                	unimp
     454:	4104                	lw	s1,0(a0)
     456:	635f 2400 fd03      	.insn	6, 0xfd032400635f
     45c:	0001                	nop
     45e:	0200                	addi	s0,sp,256
     460:	5f41                	li	t5,-16
     462:	fd240073          	.insn	4, 0xfd240073
     466:	0001                	nop
     468:	0600                	addi	s0,sp,768
     46a:	007e                	c.slli	zero,0x1f
     46c:	ff08                	sd	a0,56(a4)
     46e:	9f1a                	add	t5,t5,t1
     470:	4102                	lw	sp,0(sp)
     472:	655f 2400 01fd      	.insn	6, 0x01fd2400655f
     478:	0000                	unimp
     47a:	5c01                	li	s8,-32
     47c:	4102                	lw	sp,0(sp)
     47e:	665f 2400 0204      	.insn	6, 0x02042400665f
     484:	0000                	unimp
     486:	6001                	.insn	2, 0x6001
     488:	4204                	lw	s1,0(a2)
     48a:	635f 2500 fd03      	.insn	6, 0xfd032500635f
     490:	0001                	nop
     492:	0200                	addi	s0,sp,256
     494:	5f42                	lw	t5,48(sp)
     496:	fd250073          	.insn	4, 0xfd250073
     49a:	0001                	nop
     49c:	0600                	addi	s0,sp,768
     49e:	ff08007b          	.insn	4, 0xff08007b
     4a2:	9f1a                	add	t5,t5,t1
     4a4:	4202                	lw	tp,0(sp)
     4a6:	655f 2500 01fd      	.insn	6, 0x01fd2500655f
     4ac:	0000                	unimp
     4ae:	6101                	addi	sp,sp,0
     4b0:	4202                	lw	tp,0(sp)
     4b2:	665f 2500 0204      	.insn	6, 0x02042500665f
     4b8:	0000                	unimp
     4ba:	5f01                	li	t5,-32
     4bc:	7204                	ld	s1,32(a2)
     4be:	2600                	.insn	2, 0x2600
     4c0:	0000430b          	.insn	4, 0x430b
     4c4:	0a00                	addi	s0,sp,272
     4c6:	00a6                	slli	ra,ra,0x9
     4c8:	0000                	unimp
     4ca:	01ac                	addi	a1,sp,200
     4cc:	0000                	unimp
     4ce:	00007b03          	.insn	4, 0x7b03
     4d2:	2900                	.insn	2, 0x2900
     4d4:	00b5                	addi	ra,ra,13
     4d6:	0000                	unimp
     4d8:	0a00                	addi	s0,sp,272
     4da:	000000b3          	add	ra,zero,zero
     4de:	01c0                	addi	s0,sp,196
     4e0:	0000                	unimp
     4e2:	00007b03          	.insn	4, 0x7b03
     4e6:	2a00                	.insn	2, 0x2a00
     4e8:	00b5                	addi	ra,ra,13
     4ea:	0000                	unimp
     4ec:	0500                	addi	s0,sp,640
     4ee:	01d0                	addi	a2,sp,196
     4f0:	0000                	unimp
     4f2:	00025b03          	lhu	s6,0(tp) # 0 <_tbss_end>
     4f6:	2b00                	.insn	2, 0x2b00
     4f8:	005d                	c.nop	23
     4fa:	0000                	unimp
     4fc:	0500                	addi	s0,sp,640
     4fe:	01e0                	addi	s0,sp,204
     500:	0000                	unimp
     502:	00025b03          	lhu	s6,0(tp) # 0 <_tbss_end>
     506:	2b00                	.insn	2, 0x2b00
     508:	005d                	c.nop	23
     50a:	0000                	unimp
     50c:	0500                	addi	s0,sp,640
     50e:	01f0                	addi	a2,sp,204
     510:	0000                	unimp
     512:	00025b03          	lhu	s6,0(tp) # 0 <_tbss_end>
     516:	2b00                	.insn	2, 0x2b00
     518:	005d                	c.nop	23
     51a:	0000                	unimp
     51c:	1300                	addi	s0,sp,416
     51e:	00025b03          	lhu	s6,0(tp) # 0 <_tbss_end>
     522:	2b00                	.insn	2, 0x2b00
     524:	005d                	c.nop	23
     526:	0000                	unimp
     528:	0000                	unimp
     52a:	0801                	addi	a6,a6,0 # ffffffffffff9000 <__stack_pointer$+0xffffffff77ff9400>
     52c:	af05                	j	c5c <_tbss_end+0xc5c>
     52e:	0001                	nop
     530:	0100                	addi	s0,sp,128
     532:	0708                	addi	a0,sp,896
     534:	017d                	addi	sp,sp,31
     536:	0000                	unimp
     538:	1000                	addi	s0,sp,32
     53a:	0002                	c.slli64	zero
     53c:	0500                	addi	s0,sp,640
     53e:	0100                	addi	s0,sp,128
     540:	9008                	.insn	2, 0x9008
     542:	0002                	c.slli64	zero
     544:	0c00                	addi	s0,sp,528
     546:	00c2                	slli	ra,ra,0x10
     548:	0000                	unimp
     54a:	0a1d                	addi	s4,s4,7
     54c:	0001                	nop
     54e:	2d00                	.insn	2, 0x2d00
     550:	0000                	unimp
     552:	c200                	sw	s0,0(a2)
     554:	0032                	c.slli	zero,0xc
     556:	0080                	addi	s0,sp,64
     558:	0000                	unimp
     55a:	8000                	.insn	2, 0x8000
     55c:	0000                	unimp
     55e:	0000                	unimp
     560:	0000                	unimp
     562:	ac00                	.insn	2, 0xac00
     564:	000e                	c.slli	zero,0x3
     566:	0100                	addi	s0,sp,128
     568:	0404                	addi	s1,sp,512
     56a:	0431                	addi	s0,s0,12
     56c:	0000                	unimp
     56e:	1001                	c.nop	-32
     570:	a505                	j	b90 <_tbss_end+0xb90>
     572:	0000                	unimp
     574:	0100                	addi	s0,sp,128
     576:	0710                	addi	a2,sp,896
     578:	0000                	unimp
     57a:	0000                	unimp
     57c:	4d04                	lw	s1,24(a0)
     57e:	0002                	c.slli64	zero
     580:	0200                	addi	s0,sp,256
     582:	0d52                	slli	s10,s10,0x14
     584:	0000004f          	.insn	4, 0x004f
     588:	0801                	addi	a6,a6,0
     58a:	b405                	j	ffffffffffffffaa <__stack_pointer$+0xffffffff780003aa>
     58c:	0001                	nop
     58e:	0100                	addi	s0,sp,128
     590:	0601                	addi	a2,a2,0
     592:	0000006f          	j	592 <_tbss_end+0x592>
     596:	040d                	addi	s0,s0,3
     598:	6905                	lui	s2,0x1
     59a:	746e                	ld	s0,248(sp)
     59c:	0100                	addi	s0,sp,128
     59e:	0801                	addi	a6,a6,0
     5a0:	006d                	c.nop	27
     5a2:	0000                	unimp
     5a4:	0401                	addi	s0,s0,0
     5a6:	00018707          	.insn	4, 0x00018707
     5aa:	0100                	addi	s0,sp,128
     5ac:	0708                	addi	a0,sp,896
     5ae:	0182                	c.slli64	gp
     5b0:	0000                	unimp
     5b2:	6c04                	ld	s1,24(s0)
     5b4:	0002                	c.slli64	zero
     5b6:	0300                	addi	s0,sp,384
     5b8:	0f41                	addi	t5,t5,16
     5ba:	002e                	c.slli	zero,0xb
     5bc:	0000                	unimp
     5be:	040e                	slli	s0,s0,0x3
     5c0:	b5034603          	lbu	a2,-1200(t1)
     5c4:	0000                	unimp
     5c6:	0500                	addi	s0,sp,640
     5c8:	0178                	addi	a4,sp,140
     5ca:	0000                	unimp
     5cc:	6b4d                	lui	s6,0x13
     5ce:	0000                	unimp
     5d0:	1700                	addi	s0,sp,928
     5d2:	0f00                	addi	s0,sp,912
     5d4:	7865                	lui	a6,0xffff9
     5d6:	0070                	addi	a2,sp,12
     5d8:	6b0e4e03          	lbu	t3,1712(t3)
     5dc:	0000                	unimp
     5de:	0800                	addi	s0,sp,16
     5e0:	02080517          	auipc	a0,0x2080
     5e4:	0000                	unimp
     5e6:	00006b4f          	.insn	4, 0x6b4f
     5ea:	0100                	addi	s0,sp,128
     5ec:	001f 4110 0002      	.insn	6, 0x00024110001f
     5f2:	0400                	addi	s0,sp,512
     5f4:	db074303          	lbu	t1,-592(a4)
     5f8:	0000                	unimp
     5fa:	1100                	addi	s0,sp,160
     5fc:	6c66                	ld	s8,88(sp)
     5fe:	0074                	addi	a3,sp,12
     600:	790a4503          	lbu	a0,1936(s4)
     604:	0000                	unimp
     606:	1200                	addi	s0,sp,288
     608:	020d                	addi	tp,tp,3 # 3 <_tbss_end+0x3>
     60a:	0000                	unimp
     60c:	85055103          	lhu	sp,-1968(a0) # 207fe30 <_tbss_end+0x207fe30>
     610:	0000                	unimp
     612:	0000                	unimp
     614:	00027313          	andi	t1,tp,0
     618:	0100                	addi	s0,sp,128
     61a:	0121                	addi	sp,sp,8
     61c:	00000043          	.insn	4, 0x0043
     620:	32c2                	.insn	2, 0x32c2
     622:	8000                	.insn	2, 0x8000
     624:	0000                	unimp
     626:	0000                	unimp
     628:	0080                	addi	s0,sp,64
     62a:	0000                	unimp
     62c:	0000                	unimp
     62e:	0000                	unimp
     630:	9c01                	subw	s0,s0,s0
     632:	0205                	addi	tp,tp,1 # 1 <_tbss_end+0x1>
     634:	0000                	unimp
     636:	6106                	ld	sp,64(sp)
     638:	1100                	addi	s0,sp,160
     63a:	0079                	c.nop	30
     63c:	0000                	unimp
     63e:	06cc                	addi	a1,sp,836
     640:	0000                	unimp
     642:	6206                	ld	tp,64(sp)
     644:	1b00                	addi	s0,sp,432
     646:	0079                	c.nop	30
     648:	0000                	unimp
     64a:	06dd                	addi	a3,a3,23
     64c:	0000                	unimp
     64e:	00002e07          	.insn	4, 0x2e07
     652:	5d00                	lw	s0,56(a0)
     654:	0000                	unimp
     656:	0700                	addi	s0,sp,896
     658:	0234                	addi	a3,sp,264
     65a:	0000                	unimp
     65c:	005d                	c.nop	23
     65e:	0000                	unimp
     660:	4108                	lw	a0,0(a0)
     662:	635f 2400 0205      	.insn	6, 0x02052400635f
     668:	0000                	unimp
     66a:	4102                	lw	sp,0(sp)
     66c:	735f 2400 0503      	.insn	6, 0x05032400735f
     672:	0002                	c.slli64	zero
     674:	0600                	addi	s0,sp,768
     676:	007e                	c.slli	zero,0x1f
     678:	ff08                	sd	a0,56(a4)
     67a:	9f1a                	add	t5,t5,t1
     67c:	4102                	lw	sp,0(sp)
     67e:	655f 2400 0503      	.insn	6, 0x05032400655f
     684:	0002                	c.slli64	zero
     686:	0100                	addi	s0,sp,128
     688:	025c                	addi	a5,sp,260
     68a:	5f41                	li	t5,-16
     68c:	0066                	c.slli	zero,0x19
     68e:	0324                	addi	s1,sp,392
     690:	020c                	addi	a1,sp,256
     692:	0000                	unimp
     694:	5d01                	li	s10,-32
     696:	4208                	lw	a0,0(a2)
     698:	635f 2500 0205      	.insn	6, 0x02052500635f
     69e:	0000                	unimp
     6a0:	4202                	lw	tp,0(sp)
     6a2:	735f 2500 0503      	.insn	6, 0x05032500735f
     6a8:	0002                	c.slli64	zero
     6aa:	0100                	addi	s0,sp,128
     6ac:	5f42145b          	.insn	4, 0x5f42145b
     6b0:	0065                	c.nop	25
     6b2:	2501                	sext.w	a0,a0
     6b4:	00020503          	lb	a0,0(tp) # 0 <_tbss_end>
     6b8:	ee00                	sd	s0,24(a2)
     6ba:	0006                	c.slli	zero,0x1
     6bc:	0200                	addi	s0,sp,256
     6be:	5f42                	lw	t5,48(sp)
     6c0:	0066                	c.slli	zero,0x19
     6c2:	0325                	addi	t1,t1,9
     6c4:	020c                	addi	a1,sp,256
     6c6:	0000                	unimp
     6c8:	5f01                	li	t5,-32
     6ca:	7202                	ld	tp,32(sp)
     6cc:	2600                	.insn	2, 0x2600
     6ce:	0000430b          	.insn	4, 0x430b
     6d2:	0100                	addi	s0,sp,128
     6d4:	095a                	slli	s2,s2,0x16
     6d6:	00c9                	addi	ra,ra,18
     6d8:	0000                	unimp
     6da:	01b0                	addi	a2,sp,200
     6dc:	0000                	unimp
     6de:	00007b03          	.insn	4, 0x7b03
     6e2:	2900                	.insn	2, 0x2900
     6e4:	00b5                	addi	ra,ra,13
     6e6:	0000                	unimp
     6e8:	0900                	addi	s0,sp,144
     6ea:	00d6                	slli	ra,ra,0x15
     6ec:	0000                	unimp
     6ee:	01c4                	addi	s1,sp,196
     6f0:	0000                	unimp
     6f2:	00007b03          	.insn	4, 0x7b03
     6f6:	2a00                	.insn	2, 0x2a00
     6f8:	00b5                	addi	ra,ra,13
     6fa:	0000                	unimp
     6fc:	0a00                	addi	s0,sp,272
     6fe:	01d4                	addi	a3,sp,196
     700:	0000                	unimp
     702:	00025b03          	lhu	s6,0(tp) # 0 <_tbss_end>
     706:	2b00                	.insn	2, 0x2b00
     708:	005d                	c.nop	23
     70a:	0000                	unimp
     70c:	0a00                	addi	s0,sp,272
     70e:	01e4                	addi	s1,sp,204
     710:	0000                	unimp
     712:	00025b03          	lhu	s6,0(tp) # 0 <_tbss_end>
     716:	2b00                	.insn	2, 0x2b00
     718:	005d                	c.nop	23
     71a:	0000                	unimp
     71c:	1500                	addi	s0,sp,672
     71e:	00e0                	addi	s0,sp,76
     720:	0000                	unimp
     722:	00027b0b          	.insn	4, 0x00027b0b
     726:	5d00                	lw	s0,56(a0)
     728:	0000                	unimp
     72a:	0800                	addi	s0,sp,16
     72c:	0b000007          	.insn	4, 0x0b000007
     730:	028d                	addi	t0,t0,3
     732:	0000                	unimp
     734:	005d                	c.nop	23
     736:	0000                	unimp
     738:	00000727          	.insn	4, 0x0727
     73c:	0000                	unimp
     73e:	0801                	addi	a6,a6,0 # ffffffffffff9000 <__stack_pointer$+0xffffffff77ff9400>
     740:	af05                	j	e70 <_tbss_end+0xe70>
     742:	0001                	nop
     744:	0100                	addi	s0,sp,128
     746:	0708                	addi	a0,sp,896
     748:	017d                	addi	sp,sp,31
     74a:	0000                	unimp
     74c:	be00                	.insn	2, 0xbe00
     74e:	0002                	c.slli64	zero
     750:	0500                	addi	s0,sp,640
     752:	0100                	addi	s0,sp,128
     754:	e408                	sd	a0,8(s0)
     756:	09000003          	lb	zero,144(zero) # 90 <_tbss_end+0x90>
     75a:	00c2                	slli	ra,ra,0x10
     75c:	0000                	unimp
     75e:	361d                	addiw	a2,a2,-25
     760:	0001                	nop
     762:	2d00                	.insn	2, 0x2d00
     764:	0000                	unimp
     766:	4200                	lw	s0,0(a2)
     768:	00800033          	add	zero,zero,s0
     76c:	0000                	unimp
     76e:	0a00                	addi	s0,sp,272
     770:	0002                	c.slli64	zero
     772:	0000                	unimp
     774:	0000                	unimp
     776:	a700                	.insn	2, 0xa700
     778:	0011                	c.nop	4
     77a:	0200                	addi	s0,sp,256
     77c:	0404                	addi	s1,sp,512
     77e:	0431                	addi	s0,s0,12
     780:	0000                	unimp
     782:	1002                	c.slli	zero,0x20
     784:	a505                	j	da4 <_tbss_end+0xda4>
     786:	0000                	unimp
     788:	0200                	addi	s0,sp,256
     78a:	0710                	addi	a2,sp,896
     78c:	0000                	unimp
     78e:	0000                	unimp
     790:	0802                	c.slli64	a6
     792:	b405                	j	1b2 <_tbss_end+0x1b2>
     794:	0001                	nop
     796:	0200                	addi	s0,sp,256
     798:	0601                	addi	a2,a2,0
     79a:	0000006f          	j	79a <_tbss_end+0x79a>
     79e:	040a                	slli	s0,s0,0x2
     7a0:	6905                	lui	s2,0x1
     7a2:	746e                	ld	s0,248(sp)
     7a4:	0200                	addi	s0,sp,256
     7a6:	0801                	addi	a6,a6,0
     7a8:	006d                	c.nop	27
     7aa:	0000                	unimp
     7ac:	0402                	c.slli64	s0
     7ae:	00018707          	.insn	4, 0x00018707
     7b2:	0200                	addi	s0,sp,256
     7b4:	0708                	addi	a0,sp,896
     7b6:	0182                	c.slli64	gp
     7b8:	0000                	unimp
     7ba:	00026c0b          	.insn	4, 0x00026c0b
     7be:	0200                	addi	s0,sp,256
     7c0:	0f41                	addi	t5,t5,16
     7c2:	002e                	c.slli	zero,0xb
     7c4:	0000                	unimp
     7c6:	040c                	addi	a1,sp,512
     7c8:	4602                	lw	a2,0(sp)
     7ca:	0000a903          	lw	s2,0(ra)
     7ce:	0600                	addi	s0,sp,768
     7d0:	0178                	addi	a4,sp,140
     7d2:	0000                	unimp
     7d4:	5f4d                	li	t5,-13
     7d6:	0000                	unimp
     7d8:	1700                	addi	s0,sp,928
     7da:	0d00                	addi	s0,sp,656
     7dc:	7865                	lui	a6,0xffff9
     7de:	0070                	addi	a2,sp,12
     7e0:	4e02                	lw	t3,0(sp)
     7e2:	5f0e                	lw	t5,224(sp)
     7e4:	0000                	unimp
     7e6:	0800                	addi	s0,sp,16
     7e8:	02080617          	auipc	a2,0x2080
     7ec:	0000                	unimp
     7ee:	00005f4f          	.insn	4, 0x5f4f
     7f2:	0100                	addi	s0,sp,128
     7f4:	001f 410e 0002      	.insn	6, 0x0002410e001f
     7fa:	0400                	addi	s0,sp,512
     7fc:	4302                	lw	t1,0(sp)
     7fe:	0000cf07          	.insn	4, 0xcf07
     802:	0f00                	addi	s0,sp,912
     804:	6c66                	ld	s8,88(sp)
     806:	0074                	addi	a3,sp,12
     808:	4502                	lw	a0,0(sp)
     80a:	6d0a                	ld	s10,128(sp)
     80c:	0000                	unimp
     80e:	1000                	addi	s0,sp,32
     810:	020d                	addi	tp,tp,3 # 3 <_tbss_end+0x3>
     812:	0000                	unimp
     814:	5102                	lw	sp,32(sp)
     816:	7905                	lui	s2,0xfffe1
     818:	0000                	unimp
     81a:	0000                	unimp
     81c:	1611                	addi	a2,a2,-28 # 20807cc <_tbss_end+0x20807cc>
     81e:	01000003          	lb	zero,16(zero) # 10 <_tbss_end+0x10>
     822:	0121                	addi	sp,sp,8
     824:	006d                	c.nop	27
     826:	0000                	unimp
     828:	3342                	.insn	2, 0x3342
     82a:	8000                	.insn	2, 0x8000
     82c:	0000                	unimp
     82e:	0000                	unimp
     830:	020a                	slli	tp,tp,0x2
     832:	0000                	unimp
     834:	0000                	unimp
     836:	0000                	unimp
     838:	9c01                	subw	s0,s0,s0
     83a:	02aa                	slli	t0,t0,0xa
     83c:	0000                	unimp
     83e:	12006107          	.insn	4, 0x12006107
     842:	006d                	c.nop	27
     844:	0000                	unimp
     846:	0752                	slli	a4,a4,0x14
     848:	0000                	unimp
     84a:	1c006207          	.insn	4, 0x1c006207
     84e:	006d                	c.nop	27
     850:	0000                	unimp
     852:	0789                	addi	a5,a5,2
     854:	0000                	unimp
     856:	2e05                	addiw	t3,t3,1
     858:	0000                	unimp
     85a:	2300                	.insn	2, 0x2300
     85c:	0051                	c.nop	20
     85e:	0000                	unimp
     860:	07c0                	addi	s0,sp,964
     862:	0000                	unimp
     864:	3412                	.insn	2, 0x3412
     866:	0002                	c.slli64	zero
     868:	0100                	addi	s0,sp,128
     86a:	00510323          	sb	t0,6(sp)
     86e:	0000                	unimp
     870:	0100                	addi	s0,sp,128
     872:	5f41                	li	t5,-16
     874:	03240063          	beq	s0,s2,894 <_tbss_end+0x894>
     878:	02aa                	slli	t0,t0,0xa
     87a:	0000                	unimp
     87c:	000007cf          	.insn	4, 0x07cf
     880:	4101                	li	sp,0
     882:	735f 2400 aa03      	.insn	6, 0xaa032400735f
     888:	0002                	c.slli64	zero
     88a:	ea00                	sd	s0,16(a2)
     88c:	01000007          	.insn	4, 0x01000007
     890:	5f41                	li	t5,-16
     892:	0065                	c.nop	25
     894:	0324                	addi	s1,sp,392
     896:	02aa                	slli	t0,t0,0xa
     898:	0000                	unimp
     89a:	080e                	slli	a6,a6,0x3
     89c:	0000                	unimp
     89e:	4101                	li	sp,0
     8a0:	665f 2400 b103      	.insn	6, 0xb1032400665f
     8a6:	0002                	c.slli64	zero
     8a8:	6500                	ld	s0,8(a0)
     8aa:	0008                	.insn	2, 0x0008
     8ac:	0100                	addi	s0,sp,128
     8ae:	5f42                	lw	t5,48(sp)
     8b0:	03250063          	beq	a0,s2,8d0 <_tbss_end+0x8d0>
     8b4:	02aa                	slli	t0,t0,0xa
     8b6:	0000                	unimp
     8b8:	08a2                	slli	a7,a7,0x8
     8ba:	0000                	unimp
     8bc:	4201                	li	tp,0
     8be:	735f 2500 aa03      	.insn	6, 0xaa032500735f
     8c4:	0002                	c.slli64	zero
     8c6:	bd00                	.insn	2, 0xbd00
     8c8:	0008                	.insn	2, 0x0008
     8ca:	0100                	addi	s0,sp,128
     8cc:	5f42                	lw	t5,48(sp)
     8ce:	0065                	c.nop	25
     8d0:	0325                	addi	t1,t1,9
     8d2:	02aa                	slli	t0,t0,0xa
     8d4:	0000                	unimp
     8d6:	08e1                	addi	a7,a7,24
     8d8:	0000                	unimp
     8da:	4201                	li	tp,0
     8dc:	665f 2500 b103      	.insn	6, 0xb1032500665f
     8e2:	0002                	c.slli64	zero
     8e4:	1500                	addi	s0,sp,672
     8e6:	0009                	c.nop	2
     8e8:	0100                	addi	s0,sp,128
     8ea:	5f52                	lw	t5,52(sp)
     8ec:	03260063          	beq	a2,s2,90c <_tbss_end+0x90c>
     8f0:	02aa                	slli	t0,t0,0xa
     8f2:	0000                	unimp
     8f4:	093a                	slli	s2,s2,0xe
     8f6:	0000                	unimp
     8f8:	5201                	li	tp,-32
     8fa:	735f 2600 aa03      	.insn	6, 0xaa032600735f
     900:	0002                	c.slli64	zero
     902:	4a00                	lw	s0,16(a2)
     904:	0009                	c.nop	2
     906:	0100                	addi	s0,sp,128
     908:	5f52                	lw	t5,52(sp)
     90a:	0065                	c.nop	25
     90c:	0326                	slli	t1,t1,0x9
     90e:	02aa                	slli	t0,t0,0xa
     910:	0000                	unimp
     912:	097d                	addi	s2,s2,31 # fffffffffffe101f <__stack_pointer$+0xffffffff77fe141f>
     914:	0000                	unimp
     916:	5201                	li	tp,-32
     918:	665f 2600 b103      	.insn	6, 0xb1032600665f
     91e:	0002                	c.slli64	zero
     920:	d000                	sw	s0,32(s0)
     922:	0009                	c.nop	2
     924:	0100                	addi	s0,sp,128
     926:	0072                	c.slli	zero,0x1c
     928:	006d0a27          	.insn	4, 0x006d0a27
     92c:	0000                	unimp
     92e:	0a14                	addi	a3,sp,272
     930:	0000                	unimp
     932:	f704                	sd	s1,40(a4)
     934:	0000                	unimp
     936:	f900                	sd	s0,48(a0)
     938:	0001                	nop
     93a:	0300                	addi	s0,sp,384
     93c:	0000007b          	.insn	4, 0x007b
     940:	a92a                	.insn	2, 0xa92a
     942:	0000                	unimp
     944:	0000                	unimp
     946:	0b04                	addi	s1,sp,400
     948:	0001                	nop
     94a:	1e00                	addi	s0,sp,816
     94c:	0002                	c.slli64	zero
     94e:	0500                	addi	s0,sp,640
     950:	031f 0000 aa2a      	.insn	6, 0xaa2a0000031f
     956:	0002                	c.slli64	zero
     958:	1c00                	addi	s0,sp,560
     95a:	000a                	c.slli	zero,0x2
     95c:	0800                	addi	s0,sp,16
     95e:	33fe                	.insn	2, 0x33fe
     960:	8000                	.insn	2, 0x8000
     962:	0000                	unimp
     964:	0000                	unimp
     966:	02b8                	addi	a4,sp,328
     968:	0000                	unimp
     96a:	0400                	addi	s0,sp,512
     96c:	0114                	addi	a3,sp,128
     96e:	0000                	unimp
     970:	0232                	slli	tp,tp,0xc
     972:	0000                	unimp
     974:	00007b03          	.insn	4, 0x7b03
     978:	2b00                	.insn	2, 0x2b00
     97a:	00a9                	addi	ra,ra,10
     97c:	0000                	unimp
     97e:	0400                	addi	s0,sp,512
     980:	00000127          	.insn	4, 0x0127
     984:	00000257          	.insn	4, 0x0257
     988:	1f05                	addi	t5,t5,-31
     98a:	2b000003          	lb	zero,688(zero) # 2b0 <_tbss_end+0x2b0>
     98e:	02aa                	slli	t0,t0,0xa
     990:	0000                	unimp
     992:	0a26                	slli	s4,s4,0x9
     994:	0000                	unimp
     996:	2e08                	.insn	2, 0x2e08
     998:	0034                	addi	a3,sp,8
     99a:	0080                	addi	s0,sp,64
     99c:	0000                	unimp
     99e:	b800                	.insn	2, 0xb800
     9a0:	0002                	c.slli64	zero
     9a2:	0000                	unimp
     9a4:	4004                	lw	s1,0(s0)
     9a6:	0001                	nop
     9a8:	9500                	.insn	2, 0x9500
     9aa:	0002                	c.slli64	zero
     9ac:	0300                	addi	s0,sp,384
     9ae:	029f 0000 512d      	.insn	6, 0x512d0000029f
     9b4:	0000                	unimp
     9b6:	1300                	addi	s0,sp,416
     9b8:	0002ba03          	ld	s4,0(t0)
     9bc:	2d00                	.insn	2, 0x2d00
     9be:	02aa                	slli	t0,t0,0xa
     9c0:	0000                	unimp
     9c2:	0002ff03          	.insn	4, 0x0002ff03
     9c6:	2d00                	.insn	2, 0x2d00
     9c8:	02aa                	slli	t0,t0,0xa
     9ca:	0000                	unimp
     9cc:	0002d103          	lhu	sp,0(t0)
     9d0:	2d00                	.insn	2, 0x2d00
     9d2:	02aa                	slli	t0,t0,0xa
     9d4:	0000                	unimp
     9d6:	0002e803          	lwu	a6,0(t0)
     9da:	2d00                	.insn	2, 0x2d00
     9dc:	02b1                	addi	t0,t0,12
     9de:	0000                	unimp
     9e0:	0000                	unimp
     9e2:	3014                	.insn	2, 0x3014
     9e4:	0001                	nop
     9e6:	0500                	addi	s0,sp,640
     9e8:	0012                	c.slli	zero,0x4
     9ea:	0000                	unimp
     9ec:	a92d                	j	e26 <_tbss_end+0xe26>
     9ee:	0000                	unimp
     9f0:	3000                	.insn	2, 0x3000
     9f2:	000a                	c.slli	zero,0x2
     9f4:	0000                	unimp
     9f6:	0200                	addi	s0,sp,256
     9f8:	0508                	addi	a0,sp,640
     9fa:	000001af          	.insn	4, 0x01af
     9fe:	0802                	c.slli64	a6
     a00:	00017d07          	.insn	4, 0x00017d07
     a04:	1500                	addi	s0,sp,672
     a06:	0212                	slli	tp,tp,0x4
     a08:	0000                	unimp
     a0a:	0212                	slli	tp,tp,0x4
     a0c:	0000                	unimp
     a0e:	2100                	.insn	2, 0x2100
     a10:	05000003          	lb	zero,80(zero) # 50 <_tbss_end+0x50>
     a14:	0100                	addi	s0,sp,128
     a16:	2508                	.insn	2, 0x2508
     a18:	0005                	c.nop	1
     a1a:	0b00                	addi	s0,sp,400
     a1c:	00c2                	slli	ra,ra,0x10
     a1e:	0000                	unimp
     a20:	631d                	lui	t1,0x7
     a22:	0001                	nop
     a24:	2d00                	.insn	2, 0x2d00
     a26:	0000                	unimp
     a28:	4c00                	lw	s0,24(s0)
     a2a:	0035                	c.nop	13
     a2c:	0080                	addi	s0,sp,64
     a2e:	0000                	unimp
     a30:	4600                	lw	s0,8(a2)
     a32:	00000003          	lb	zero,0(zero) # 0 <_tbss_end>
     a36:	0000                	unimp
     a38:	bd00                	.insn	2, 0xbd00
     a3a:	0018                	.insn	2, 0x0018
     a3c:	0100                	addi	s0,sp,128
     a3e:	0404                	addi	s1,sp,512
     a40:	0431                	addi	s0,s0,12
     a42:	0000                	unimp
     a44:	1001                	c.nop	-32
     a46:	a505                	j	1066 <_tbss_end+0x1066>
     a48:	0000                	unimp
     a4a:	0100                	addi	s0,sp,128
     a4c:	0710                	addi	a2,sp,896
     a4e:	0000                	unimp
     a50:	0000                	unimp
     a52:	0801                	addi	a6,a6,0 # ffffffffffff9000 <__stack_pointer$+0xffffffff77ff9400>
     a54:	b405                	j	474 <_tbss_end+0x474>
     a56:	0001                	nop
     a58:	0100                	addi	s0,sp,128
     a5a:	0601                	addi	a2,a2,0
     a5c:	0000006f          	j	a5c <_tbss_end+0xa5c>
     a60:	040c                	addi	a1,sp,512
     a62:	6905                	lui	s2,0x1
     a64:	746e                	ld	s0,248(sp)
     a66:	0100                	addi	s0,sp,128
     a68:	0801                	addi	a6,a6,0
     a6a:	006d                	c.nop	27
     a6c:	0000                	unimp
     a6e:	0401                	addi	s0,s0,0
     a70:	00018707          	.insn	4, 0x00018707
     a74:	0100                	addi	s0,sp,128
     a76:	0708                	addi	a0,sp,896
     a78:	0182                	c.slli64	gp
     a7a:	0000                	unimp
     a7c:	6c0d                	lui	s8,0x3
     a7e:	0002                	c.slli64	zero
     a80:	0200                	addi	s0,sp,256
     a82:	0f41                	addi	t5,t5,16
     a84:	002e                	c.slli	zero,0xb
     a86:	0000                	unimp
     a88:	040e                	slli	s0,s0,0x3
     a8a:	4602                	lw	a2,0(sp)
     a8c:	0000a903          	lw	s2,0(ra)
     a90:	0800                	addi	s0,sp,16
     a92:	0178                	addi	a4,sp,140
     a94:	0000                	unimp
     a96:	5f4d                	li	t5,-13
     a98:	0000                	unimp
     a9a:	1700                	addi	s0,sp,928
     a9c:	0f00                	addi	s0,sp,912
     a9e:	7865                	lui	a6,0xffff9
     aa0:	0070                	addi	a2,sp,12
     aa2:	4e02                	lw	t3,0(sp)
     aa4:	5f0e                	lw	t5,224(sp)
     aa6:	0000                	unimp
     aa8:	0800                	addi	s0,sp,16
     aaa:	02080817          	auipc	a6,0x2080
     aae:	0000                	unimp
     ab0:	00005f4f          	.insn	4, 0x5f4f
     ab4:	0100                	addi	s0,sp,128
     ab6:	001f 4110 0002      	.insn	6, 0x00024110001f
     abc:	0400                	addi	s0,sp,512
     abe:	4302                	lw	t1,0(sp)
     ac0:	0000cf07          	.insn	4, 0xcf07
     ac4:	1100                	addi	s0,sp,160
     ac6:	6c66                	ld	s8,88(sp)
     ac8:	0074                	addi	a3,sp,12
     aca:	4502                	lw	a0,0(sp)
     acc:	6d0a                	ld	s10,128(sp)
     ace:	0000                	unimp
     ad0:	1200                	addi	s0,sp,288
     ad2:	020d                	addi	tp,tp,3 # 3 <_tbss_end+0x3>
     ad4:	0000                	unimp
     ad6:	5102                	lw	sp,32(sp)
     ad8:	7905                	lui	s2,0xfffe1
     ada:	0000                	unimp
     adc:	0000                	unimp
     ade:	00033a13          	sltiu	s4,t1,0
     ae2:	0100                	addi	s0,sp,128
     ae4:	0121                	addi	sp,sp,8
     ae6:	006d                	c.nop	27
     ae8:	0000                	unimp
     aea:	354c                	.insn	2, 0x354c
     aec:	8000                	.insn	2, 0x8000
     aee:	0000                	unimp
     af0:	0000                	unimp
     af2:	0346                	slli	t1,t1,0x11
     af4:	0000                	unimp
     af6:	0000                	unimp
     af8:	0000                	unimp
     afa:	9c01                	subw	s0,s0,s0
     afc:	030d                	addi	t1,t1,3 # 7003 <_tbss_end+0x7003>
     afe:	0000                	unimp
     b00:	6109                	addi	sp,sp,128
     b02:	1200                	addi	s0,sp,288
     b04:	006d                	c.nop	27
     b06:	0000                	unimp
     b08:	0a45                	addi	s4,s4,17
     b0a:	0000                	unimp
     b0c:	6209                	lui	tp,0x2
     b0e:	1c00                	addi	s0,sp,560
     b10:	006d                	c.nop	27
     b12:	0000                	unimp
     b14:	0a56                	slli	s4,s4,0x15
     b16:	0000                	unimp
     b18:	2e05                	addiw	t3,t3,1
     b1a:	0000                	unimp
     b1c:	2300                	.insn	2, 0x2300
     b1e:	0051                	c.nop	20
     b20:	0000                	unimp
     b22:	00000a67          	jalr	s4,zero # 0 <_tbss_end>
     b26:	3414                	.insn	2, 0x3414
     b28:	0002                	c.slli64	zero
     b2a:	0100                	addi	s0,sp,128
     b2c:	00510323          	sb	t0,6(sp)
     b30:	0000                	unimp
     b32:	0700                	addi	s0,sp,896
     b34:	5f41                	li	t5,-16
     b36:	03240063          	beq	s0,s2,b56 <_tbss_end+0xb56>
     b3a:	030d                	addi	t1,t1,3
     b3c:	0000                	unimp
     b3e:	4102                	lw	sp,0(sp)
     b40:	735f 2400 030d      	.insn	6, 0x030d2400735f
     b46:	0000                	unimp
     b48:	00000a8f          	.insn	4, 0x0a8f
     b4c:	4102                	lw	sp,0(sp)
     b4e:	655f 2400 030d      	.insn	6, 0x030d2400655f
     b54:	0000                	unimp
     b56:	0b11                	addi	s6,s6,4 # 13004 <_tbss_end+0x13004>
     b58:	0000                	unimp
     b5a:	4102                	lw	sp,0(sp)
     b5c:	665f 2400 0314      	.insn	6, 0x03142400665f
     b62:	0000                	unimp
     b64:	0bc5                	addi	s7,s7,17
     b66:	0000                	unimp
     b68:	635f4207          	.insn	4, 0x635f4207
     b6c:	2500                	.insn	2, 0x2500
     b6e:	00030d03          	lb	s10,0(t1)
     b72:	0200                	addi	s0,sp,256
     b74:	5f42                	lw	t5,48(sp)
     b76:	0d250073          	.insn	4, 0x0d250073
     b7a:	40000003          	lb	zero,1024(zero) # 400 <_tbss_end+0x400>
     b7e:	000c                	.insn	2, 0x000c
     b80:	0200                	addi	s0,sp,256
     b82:	5f42                	lw	t5,48(sp)
     b84:	0065                	c.nop	25
     b86:	0d25                	addi	s10,s10,9 # 1d009 <_tbss_end+0x1d009>
     b88:	88000003          	lb	zero,-1920(zero) # fffffffffffff880 <__stack_pointer$+0xffffffff77fffc80>
     b8c:	000c                	.insn	2, 0x000c
     b8e:	0200                	addi	s0,sp,256
     b90:	5f42                	lw	t5,48(sp)
     b92:	0066                	c.slli	zero,0x19
     b94:	1425                	addi	s0,s0,-23
     b96:	e9000003          	lb	zero,-368(zero) # fffffffffffffe90 <__stack_pointer$+0xffffffff78000290>
     b9a:	000c                	.insn	2, 0x000c
     b9c:	0700                	addi	s0,sp,896
     b9e:	5f52                	lw	t5,52(sp)
     ba0:	03260063          	beq	a2,s2,bc0 <_tbss_end+0xbc0>
     ba4:	030d                	addi	t1,t1,3
     ba6:	0000                	unimp
     ba8:	5202                	lw	tp,32(sp)
     baa:	735f 2600 030d      	.insn	6, 0x030d2600735f
     bb0:	0000                	unimp
     bb2:	0d82                	c.slli64	s11
     bb4:	0000                	unimp
     bb6:	5202                	lw	tp,32(sp)
     bb8:	655f 2600 030d      	.insn	6, 0x030d2600655f
     bbe:	0000                	unimp
     bc0:	0de5                	addi	s11,s11,25
     bc2:	0000                	unimp
     bc4:	5202                	lw	tp,32(sp)
     bc6:	665f 2600 0314      	.insn	6, 0x03142600665f
     bcc:	0000                	unimp
     bce:	0e96                	slli	t4,t4,0x5
     bd0:	0000                	unimp
     bd2:	27007207          	.insn	4, 0x27007207
     bd6:	6d0a                	ld	s10,128(sp)
     bd8:	0000                	unimp
     bda:	0600                	addi	s0,sp,768
     bdc:	00000157          	.insn	4, 0x0157
     be0:	01e0                	addi	s0,sp,204
     be2:	0000                	unimp
     be4:	7b04                	ld	s1,48(a4)
     be6:	0000                	unimp
     be8:	2a00                	.insn	2, 0x2a00
     bea:	00a9                	addi	ra,ra,10
     bec:	0000                	unimp
     bee:	0600                	addi	s0,sp,768
     bf0:	015e                	slli	sp,sp,0x17
     bf2:	0000                	unimp
     bf4:	01f4                	addi	a3,sp,204
     bf6:	0000                	unimp
     bf8:	7b04                	ld	s1,48(a4)
     bfa:	0000                	unimp
     bfc:	2b00                	.insn	2, 0x2b00
     bfe:	00a9                	addi	ra,ra,10
     c00:	0000                	unimp
     c02:	0600                	addi	s0,sp,768
     c04:	0165                	addi	sp,sp,25
     c06:	0000                	unimp
     c08:	0240                	addi	s0,sp,260
     c0a:	0000                	unimp
     c0c:	0001fe03          	.insn	4, 0x0001fe03
     c10:	f600                	sd	s0,40(a2)
     c12:	0035                	c.nop	13
     c14:	0080                	addi	s0,sp,64
     c16:	0000                	unimp
     c18:	0300                	addi	s0,sp,384
     c1a:	00000203          	lb	tp,0(zero) # 0 <_tbss_end>
     c1e:	3652                	.insn	2, 0x3652
     c20:	8000                	.insn	2, 0x8000
     c22:	0000                	unimp
     c24:	0000                	unimp
     c26:	00019403          	lh	s0,0(gp) # 800054a0 <__global_pointer$>
     c2a:	b600                	.insn	2, 0xb600
     c2c:	0035                	c.nop	13
     c2e:	0080                	addi	s0,sp,64
     c30:	0000                	unimp
     c32:	0300                	addi	s0,sp,384
     c34:	0064                	addi	s1,sp,12
     c36:	0000                	unimp
     c38:	369c                	.insn	2, 0x369c
     c3a:	8000                	.insn	2, 0x8000
     c3c:	0000                	unimp
     c3e:	0000                	unimp
     c40:	bd05                	j	a70 <_tbss_end+0xa70>
     c42:	0001                	nop
     c44:	2c00                	.insn	2, 0x2c00
     c46:	0051                	c.nop	20
     c48:	0000                	unimp
     c4a:	0fa8                	addi	a0,sp,984
     c4c:	0000                	unimp
     c4e:	0600                	addi	s0,sp,768
     c50:	0186                	slli	gp,gp,0x1
     c52:	0000                	unimp
     c54:	02ba                	slli	t0,t0,0xe
     c56:	0000                	unimp
     c58:	0000ae03          	lw	t3,0(ra)
     c5c:	fc00                	sd	s0,56(s0)
     c5e:	0036                	c.slli	zero,0xd
     c60:	0080                	addi	s0,sp,64
     c62:	0000                	unimp
     c64:	0300                	addi	s0,sp,384
     c66:	000000b3          	add	ra,zero,zero
     c6a:	376a                	.insn	2, 0x376a
     c6c:	8000                	.insn	2, 0x8000
     c6e:	0000                	unimp
     c70:	0000                	unimp
     c72:	0000b803          	ld	a6,0(ra)
     c76:	e000                	sd	s0,0(s0)
     c78:	0036                	c.slli	zero,0xd
     c7a:	0080                	addi	s0,sp,64
     c7c:	0000                	unimp
     c7e:	0300                	addi	s0,sp,384
     c80:	00bd                	addi	ra,ra,15
     c82:	0000                	unimp
     c84:	37e8                	.insn	2, 0x37e8
     c86:	8000                	.insn	2, 0x8000
     c88:	0000                	unimp
     c8a:	0000                	unimp
     c8c:	0001e003          	lwu	zero,0(gp) # 800054a0 <__global_pointer$>
     c90:	9c00                	.insn	2, 0x9c00
     c92:	0036                	c.slli	zero,0xd
     c94:	0080                	addi	s0,sp,64
     c96:	0000                	unimp
     c98:	0500                	addi	s0,sp,640
     c9a:	01bd                	addi	gp,gp,15 # 800054af <__global_pointer$+0xf>
     c9c:	0000                	unimp
     c9e:	512c                	lw	a1,96(a0)
     ca0:	0000                	unimp
     ca2:	1400                	addi	s0,sp,544
     ca4:	0010                	.insn	2, 0x0010
     ca6:	0a00                	addi	s0,sp,272
     ca8:	01a5                	addi	gp,gp,9 # 800054a9 <__global_pointer$+0x9>
     caa:	0000                	unimp
     cac:	9905                	andi	a0,a0,-31
     cae:	0001                	nop
     cb0:	2c00                	.insn	2, 0x2c00
     cb2:	0051                	c.nop	20
     cb4:	0000                	unimp
     cb6:	1084                	addi	s1,sp,96
     cb8:	0000                	unimp
     cba:	ee15                	bnez	a2,cf6 <_tbss_end+0xcf6>
     cbc:	00800037          	lui	zero,0x800
     cc0:	0000                	unimp
     cc2:	1b00                	addi	s0,sp,432
     cc4:	00000003          	lb	zero,0(zero) # 0 <_tbss_end>
     cc8:	0600                	addi	s0,sp,768
     cca:	01b5                	addi	gp,gp,13 # 800054ad <__global_pointer$+0xd>
     ccc:	0000                	unimp
     cce:	02f8                	addi	a4,sp,332
     cd0:	0000                	unimp
     cd2:	1b04                	addi	s1,sp,432
     cd4:	0002                	c.slli64	zero
     cd6:	2d00                	.insn	2, 0x2d00
     cd8:	0051                	c.nop	20
     cda:	0000                	unimp
     cdc:	0416                	slli	s0,s0,0x5
     cde:	00000033          	add	zero,zero,zero
     ce2:	0d2d                	addi	s10,s10,11
     ce4:	04000003          	lb	zero,64(zero) # 40 <_tbss_end+0x40>
     ce8:	0090                	addi	a2,sp,64
     cea:	0000                	unimp
     cec:	0d2d                	addi	s10,s10,11
     cee:	04000003          	lb	zero,64(zero) # 40 <_tbss_end+0x40>
     cf2:	01e9                	addi	gp,gp,26 # 800054ba <__global_pointer$+0x1a>
     cf4:	0000                	unimp
     cf6:	0d2d                	addi	s10,s10,11
     cf8:	04000003          	lb	zero,64(zero) # 40 <_tbss_end+0x40>
     cfc:	0000004f          	.insn	4, 0x004f
     d00:	142d                	addi	s0,s0,-21
     d02:	00000003          	lb	zero,0(zero) # 0 <_tbss_end>
     d06:	0a00                	addi	s0,sp,272
     d08:	01c5                	addi	gp,gp,17 # 800054b1 <__global_pointer$+0x11>
     d0a:	0000                	unimp
     d0c:	1205                	addi	tp,tp,-31 # 1fe1 <_tbss_end+0x1fe1>
     d0e:	0000                	unimp
     d10:	2d00                	.insn	2, 0x2d00
     d12:	00a9                	addi	ra,ra,10
     d14:	0000                	unimp
     d16:	10aa                	slli	ra,ra,0x2a
     d18:	0000                	unimp
     d1a:	0000                	unimp
     d1c:	0801                	addi	a6,a6,0 # 2080aaa <_tbss_end+0x2080aaa>
     d1e:	af05                	j	144e <_tbss_end+0x144e>
     d20:	0001                	nop
     d22:	0100                	addi	s0,sp,128
     d24:	0708                	addi	a0,sp,896
     d26:	017d                	addi	sp,sp,31
     d28:	0000                	unimp
     d2a:	00021217          	auipc	tp,0x21
     d2e:	1200                	addi	s0,sp,288
     d30:	0002                	c.slli64	zero
     d32:	0000                	unimp
     d34:	01c0                	addi	s0,sp,196
     d36:	0000                	unimp
     d38:	0005                	c.nop	1
     d3a:	0801                	addi	a6,a6,0
     d3c:	0689                	addi	a3,a3,2
     d3e:	0000                	unimp
     d40:	0000c207          	.insn	4, 0xc207
     d44:	1d00                	addi	s0,sp,688
     d46:	0190                	addi	a2,sp,192
     d48:	0000                	unimp
     d4a:	002d                	c.nop	11
     d4c:	0000                	unimp
     d4e:	3892                	.insn	2, 0x3892
     d50:	8000                	.insn	2, 0x8000
     d52:	0000                	unimp
     d54:	0000                	unimp
     d56:	006a                	c.slli	zero,0x1a
     d58:	0000                	unimp
     d5a:	0000                	unimp
     d5c:	0000                	unimp
     d5e:	2514                	.insn	2, 0x2514
     d60:	0000                	unimp
     d62:	0401                	addi	s0,s0,0
     d64:	3104                	.insn	2, 0x3104
     d66:	0004                	.insn	2, 0x0004
     d68:	0100                	addi	s0,sp,128
     d6a:	0510                	addi	a2,sp,640
     d6c:	00a5                	addi	ra,ra,9
     d6e:	0000                	unimp
     d70:	1001                	c.nop	-32
     d72:	00000007          	.insn	4, 0x0007
     d76:	0100                	addi	s0,sp,128
     d78:	0508                	addi	a0,sp,640
     d7a:	01b4                	addi	a3,sp,200
     d7c:	0000                	unimp
     d7e:	0101                	addi	sp,sp,0
     d80:	6f06                	ld	t5,64(sp)
     d82:	0000                	unimp
     d84:	0300                	addi	s0,sp,384
     d86:	034e                	slli	t1,t1,0x13
     d88:	0000                	unimp
     d8a:	0144                	addi	s1,sp,132
     d8c:	5d0d                	li	s10,-29
     d8e:	0000                	unimp
     d90:	0800                	addi	s0,sp,16
     d92:	0504                	addi	s1,sp,640
     d94:	6e69                	lui	t3,0x1a
     d96:	0074                	addi	a3,sp,12
     d98:	0101                	addi	sp,sp,0
     d9a:	6d08                	ld	a0,24(a0)
     d9c:	0000                	unimp
     d9e:	0300                	addi	s0,sp,384
     da0:	034d                	addi	t1,t1,19
     da2:	0000                	unimp
     da4:	77160147          	.insn	4, 0x77160147
     da8:	0000                	unimp
     daa:	0100                	addi	s0,sp,128
     dac:	0704                	addi	s1,sp,896
     dae:	00000187          	.insn	4, 0x0187
     db2:	0801                	addi	a6,a6,0
     db4:	00018207          	.insn	4, 0x00018207
     db8:	0900                	addi	s0,sp,144
     dba:	026c                	addi	a1,sp,268
     dbc:	0000                	unimp
     dbe:	2e0f4103          	lbu	sp,736(t5)
     dc2:	0000                	unimp
     dc4:	0a00                	addi	s0,sp,272
     dc6:	0304                	addi	s1,sp,384
     dc8:	0346                	slli	t1,t1,0x11
     dca:	00c1                	addi	ra,ra,16
     dcc:	0000                	unimp
     dce:	7804                	ld	s1,48(s0)
     dd0:	0001                	nop
     dd2:	4d00                	lw	s0,24(a0)
     dd4:	00000077          	.insn	4, 0x0077
     dd8:	650b0017          	auipc	zero,0x650b0
     ddc:	7078                	ld	a4,224(s0)
     dde:	0300                	addi	s0,sp,384
     de0:	0e4e                	slli	t3,t3,0x13
     de2:	00000077          	.insn	4, 0x0077
     de6:	1708                	addi	a0,sp,928
     de8:	0804                	addi	s1,sp,16
     dea:	0002                	c.slli64	zero
     dec:	4f00                	lw	s0,24(a4)
     dee:	00000077          	.insn	4, 0x0077
     df2:	1f01                	addi	t5,t5,-32
     df4:	0c00                	addi	s0,sp,528
     df6:	0241                	addi	tp,tp,16 # 21d3a <_tbss_end+0x21d3a>
     df8:	0000                	unimp
     dfa:	0304                	addi	s1,sp,384
     dfc:	00e70743          	.insn	4, 0x00e70743
     e00:	0000                	unimp
     e02:	660d                	lui	a2,0x3
     e04:	746c                	ld	a1,232(s0)
     e06:	0300                	addi	s0,sp,384
     e08:	0a45                	addi	s4,s4,17
     e0a:	0085                	addi	ra,ra,1
     e0c:	0000                	unimp
     e0e:	0d0e                	slli	s10,s10,0x3
     e10:	0002                	c.slli64	zero
     e12:	0300                	addi	s0,sp,384
     e14:	0551                	addi	a0,a0,20
     e16:	0091                	addi	ra,ra,4
     e18:	0000                	unimp
     e1a:	0f00                	addi	s0,sp,912
     e1c:	00000343          	.insn	4, 0x0343
     e20:	2101                	sext.w	sp,sp
     e22:	5101                	li	sp,-32
     e24:	0000                	unimp
     e26:	9200                	.insn	2, 0x9200
     e28:	0038                	addi	a4,sp,8
     e2a:	0080                	addi	s0,sp,64
     e2c:	0000                	unimp
     e2e:	6a00                	ld	s0,16(a2)
     e30:	0000                	unimp
     e32:	0000                	unimp
     e34:	0000                	unimp
     e36:	0100                	addi	s0,sp,128
     e38:	b59c                	.insn	2, 0xb59c
     e3a:	0001                	nop
     e3c:	1000                	addi	s0,sp,32
     e3e:	0061                	c.nop	24
     e40:	2101                	sext.w	sp,sp
     e42:	00008513          	mv	a0,ra
     e46:	bf00                	.insn	2, 0xbf00
     e48:	0010                	.insn	2, 0x0010
     e4a:	0500                	addi	s0,sp,640
     e4c:	002e                	c.slli	zero,0xb
     e4e:	0000                	unimp
     e50:	00005d23          	.insn	4, 0x5d23
     e54:	ed00                	sd	s0,24(a0)
     e56:	0010                	.insn	2, 0x0010
     e58:	1100                	addi	s0,sp,160
     e5a:	0234                	addi	a3,sp,264
     e5c:	0000                	unimp
     e5e:	2301                	sext.w	t1,t1
     e60:	00005d03          	lhu	s10,0(zero) # 0 <_tbss_end>
     e64:	0000                	unimp
     e66:	4112                	lw	sp,4(sp)
     e68:	635f 0100 0324      	.insn	6, 0x03240100635f
     e6e:	01b5                	addi	gp,gp,13 # 800054ad <__global_pointer$+0xd>
     e70:	0000                	unimp
     e72:	735f4113          	xori	sp,t5,1845
     e76:	0100                	addi	s0,sp,128
     e78:	0324                	addi	s1,sp,392
     e7a:	01b5                	addi	gp,gp,13 # 800054ad <__global_pointer$+0xd>
     e7c:	0000                	unimp
     e7e:	7e06                	ld	t3,96(sp)
     e80:	0800                	addi	s0,sp,16
     e82:	029f1aff 00655f41 	.insn	12, 0x01b5032400655f41029f1aff
     e8a:	01b50324 
     e8e:	0000                	unimp
     e90:	10f4                	addi	a3,sp,108
     e92:	0000                	unimp
     e94:	4102                	lw	sp,0(sp)
     e96:	665f 2400 bc03      	.insn	6, 0xbc032400665f
     e9c:	0001                	nop
     e9e:	0400                	addi	s0,sp,512
     ea0:	0011                	c.nop	4
     ea2:	0200                	addi	s0,sp,256
     ea4:	0072                	c.slli	zero,0x1c
     ea6:	0b25                	addi	s6,s6,9
     ea8:	0000006b          	.insn	4, 0x006b
     eac:	00001137          	lui	sp,0x1
     eb0:	e114                	sd	a3,0(a0)
     eb2:	0001                	nop
     eb4:	9000                	.insn	2, 0x9000
     eb6:	0001                	nop
     eb8:	0600                	addi	s0,sp,768
     eba:	0000007b          	.insn	4, 0x007b
     ebe:	c128                	sw	a0,64(a0)
     ec0:	0000                	unimp
     ec2:	0000                	unimp
     ec4:	a015                	j	ee8 <_tbss_end+0xee8>
     ec6:	0001                	nop
     ec8:	0600                	addi	s0,sp,768
     eca:	0355                	addi	t1,t1,21
     ecc:	0000                	unimp
     ece:	5d29                	li	s10,-22
     ed0:	0000                	unimp
     ed2:	0000                	unimp
     ed4:	eb16                	sd	t0,400(sp)
     ed6:	0001                	nop
     ed8:	0500                	addi	s0,sp,640
     eda:	0355                	addi	t1,t1,21
     edc:	0000                	unimp
     ede:	5d29                	li	s10,-22
     ee0:	0000                	unimp
     ee2:	5b00                	lw	s0,48(a4)
     ee4:	0011                	c.nop	4
     ee6:	0000                	unimp
     ee8:	0100                	addi	s0,sp,128
     eea:	0508                	addi	a0,sp,640
     eec:	000001af          	.insn	4, 0x01af
     ef0:	0801                	addi	a6,a6,0
     ef2:	00017d07          	.insn	4, 0x00017d07
     ef6:	0000                	unimp
     ef8:	0000023b          	addw	tp,zero,zero
     efc:	0005                	c.nop	1
     efe:	0801                	addi	a6,a6,0
     f00:	07e4                	addi	s1,sp,972
     f02:	0000                	unimp
     f04:	c209                	beqz	a2,f06 <_tbss_end+0xf06>
     f06:	0000                	unimp
     f08:	1d00                	addi	s0,sp,688
     f0a:	01c8                	addi	a0,sp,196
     f0c:	0000                	unimp
     f0e:	002d                	c.nop	11
     f10:	0000                	unimp
     f12:	38fc                	.insn	2, 0x38fc
     f14:	8000                	.insn	2, 0x8000
     f16:	0000                	unimp
     f18:	0000                	unimp
     f1a:	00cc                	addi	a1,sp,68
     f1c:	0000                	unimp
     f1e:	0000                	unimp
     f20:	0000                	unimp
     f22:	00002733          	sltz	a4,zero
     f26:	1001                	c.nop	-32
     f28:	a505                	j	1548 <_tbss_end+0x1548>
     f2a:	0000                	unimp
     f2c:	0100                	addi	s0,sp,128
     f2e:	0710                	addi	a2,sp,896
     f30:	0000                	unimp
     f32:	0000                	unimp
     f34:	0801                	addi	a6,a6,0
     f36:	b405                	j	956 <_tbss_end+0x956>
     f38:	0001                	nop
     f3a:	0100                	addi	s0,sp,128
     f3c:	0601                	addi	a2,a2,0 # 3000 <_tbss_end+0x3000>
     f3e:	0000006f          	j	f3e <_tbss_end+0xf3e>
     f42:	4e05                	li	t3,1
     f44:	44000003          	lb	zero,1088(zero) # 440 <_tbss_end+0x440>
     f48:	0d01                	addi	s10,s10,0
     f4a:	0056                	c.slli	zero,0x15
     f4c:	0000                	unimp
     f4e:	040a                	slli	s0,s0,0x2
     f50:	6905                	lui	s2,0x1
     f52:	746e                	ld	s0,248(sp)
     f54:	0100                	addi	s0,sp,128
     f56:	0801                	addi	a6,a6,0
     f58:	006d                	c.nop	27
     f5a:	0000                	unimp
     f5c:	4d05                	li	s10,1
     f5e:	47000003          	lb	zero,1136(zero) # 470 <_tbss_end+0x470>
     f62:	1601                	addi	a2,a2,-32
     f64:	0070                	addi	a2,sp,12
     f66:	0000                	unimp
     f68:	0401                	addi	s0,s0,0
     f6a:	00018707          	.insn	4, 0x00018707
     f6e:	0100                	addi	s0,sp,128
     f70:	0708                	addi	a0,sp,896
     f72:	0182                	c.slli64	gp
     f74:	0000                	unimp
     f76:	00026c0b          	.insn	4, 0x00026c0b
     f7a:	0300                	addi	s0,sp,384
     f7c:	0f41                	addi	t5,t5,16
     f7e:	008a                	slli	ra,ra,0x2
     f80:	0000                	unimp
     f82:	0401                	addi	s0,s0,0
     f84:	3104                	.insn	2, 0x3104
     f86:	0004                	.insn	2, 0x0004
     f88:	0c00                	addi	s0,sp,528
     f8a:	0304                	addi	s1,sp,384
     f8c:	0346                	slli	t1,t1,0x11
     f8e:	00c1                	addi	ra,ra,16
     f90:	0000                	unimp
     f92:	7806                	ld	a6,96(sp)
     f94:	0001                	nop
     f96:	4d00                	lw	s0,24(a0)
     f98:	0070                	addi	a2,sp,12
     f9a:	0000                	unimp
     f9c:	650d0017          	auipc	zero,0x650d0
     fa0:	7078                	ld	a4,224(s0)
     fa2:	0300                	addi	s0,sp,384
     fa4:	0e4e                	slli	t3,t3,0x13
     fa6:	0070                	addi	a2,sp,12
     fa8:	0000                	unimp
     faa:	1708                	addi	a0,sp,928
     fac:	0806                	slli	a6,a6,0x1
     fae:	0002                	c.slli64	zero
     fb0:	4f00                	lw	s0,24(a4)
     fb2:	0070                	addi	a2,sp,12
     fb4:	0000                	unimp
     fb6:	1f01                	addi	t5,t5,-32
     fb8:	0e00                	addi	s0,sp,784
     fba:	0241                	addi	tp,tp,16 # 10 <_tbss_end+0x10>
     fbc:	0000                	unimp
     fbe:	0304                	addi	s1,sp,384
     fc0:	00e70743          	.insn	4, 0x00e70743
     fc4:	0000                	unimp
     fc6:	746c660f          	.insn	4, 0x746c660f
     fca:	0300                	addi	s0,sp,384
     fcc:	0a45                	addi	s4,s4,17
     fce:	007e                	c.slli	zero,0x1f
     fd0:	0000                	unimp
     fd2:	0d10                	addi	a2,sp,656
     fd4:	0002                	c.slli64	zero
     fd6:	0300                	addi	s0,sp,384
     fd8:	0551                	addi	a0,a0,20
     fda:	0091                	addi	ra,ra,4
     fdc:	0000                	unimp
     fde:	1100                	addi	s0,sp,160
     fe0:	0385                	addi	t2,t2,1
     fe2:	0000                	unimp
     fe4:	2101                	sext.w	sp,sp
     fe6:	7e01                	lui	t3,0xfffe0
     fe8:	0000                	unimp
     fea:	fc00                	sd	s0,56(s0)
     fec:	0038                	addi	a4,sp,8
     fee:	0080                	addi	s0,sp,64
     ff0:	0000                	unimp
     ff2:	cc00                	sw	s0,24(s0)
     ff4:	0000                	unimp
     ff6:	0000                	unimp
     ff8:	0000                	unimp
     ffa:	0100                	addi	s0,sp,128
     ffc:	279c                	.insn	2, 0x279c
     ffe:	0002                	c.slli64	zero
    1000:	1200                	addi	s0,sp,288
    1002:	0069                	c.nop	26
    1004:	2101                	sext.w	sp,sp
    1006:	4a15                	li	s4,5
    1008:	0000                	unimp
    100a:	6e00                	ld	s0,24(a2)
    100c:	0011                	c.nop	4
    100e:	0200                	addi	s0,sp,256
    1010:	002e                	c.slli	zero,0xb
    1012:	0000                	unimp
    1014:	00005623          	.insn	4, 0x5623
    1018:	8400                	.insn	2, 0x8400
    101a:	0011                	c.nop	4
    101c:	1300                	addi	s0,sp,416
    101e:	0234                	addi	a3,sp,264
    1020:	0000                	unimp
    1022:	2301                	sext.w	t1,t1
    1024:	00005603          	lhu	a2,0(zero) # 0 <_tbss_end>
    1028:	0000                	unimp
    102a:	635f4107          	.insn	4, 0x635f4107
    102e:	2400                	.insn	2, 0x2400
    1030:	00022703          	lw	a4,0(tp) # 0 <_tbss_end>
    1034:	0400                	addi	s0,sp,512
    1036:	5f41                	li	t5,-16
    1038:	02270073          	.insn	4, 0x02270073
    103c:	0000                	unimp
    103e:	11a2                	slli	gp,gp,0x28
    1040:	0000                	unimp
    1042:	4104                	lw	s1,0(a0)
    1044:	655f 2700 0002      	.insn	6, 0x00022700655f
    104a:	ae00                	.insn	2, 0xae00
    104c:	0011                	c.nop	4
    104e:	0400                	addi	s0,sp,512
    1050:	5f41                	li	t5,-16
    1052:	0066                	c.slli	zero,0x19
    1054:	022e                	slli	tp,tp,0xb
    1056:	0000                	unimp
    1058:	11ba                	slli	gp,gp,0x2e
    105a:	0000                	unimp
    105c:	25006107          	.insn	4, 0x25006107
    1060:	7e0a                	ld	t3,160(sp)
    1062:	0000                	unimp
    1064:	1400                	addi	s0,sp,544
    1066:	01fe                	slli	gp,gp,0x1f
    1068:	0000                	unimp
    106a:	0206                	slli	tp,tp,0x1
    106c:	0000                	unimp
    106e:	6815                	lui	a6,0x5
    1070:	01000003          	lb	zero,16(zero) # 10 <_tbss_end+0x10>
    1074:	0328                	addi	a0,sp,392
    1076:	399e                	.insn	2, 0x399e
    1078:	8000                	.insn	2, 0x8000
    107a:	0000                	unimp
    107c:	0000                	unimp
    107e:	0908                	addi	a0,sp,144
    1080:	0002                	c.slli64	zero
    1082:	0200                	addi	s0,sp,256
    1084:	0375                	addi	t1,t1,29
    1086:	0000                	unimp
    1088:	6428                	ld	a0,72(s0)
    108a:	0000                	unimp
    108c:	ce00                	sw	s0,24(a2)
    108e:	0011                	c.nop	4
    1090:	1600                	addi	s0,sp,800
    1092:	3918                	.insn	2, 0x3918
    1094:	8000                	.insn	2, 0x8000
    1096:	0000                	unimp
    1098:	0000                	unimp
    109a:	0012                	c.slli	zero,0x4
    109c:	0000                	unimp
    109e:	0000                	unimp
    10a0:	0000                	unimp
    10a2:	01ca                	slli	gp,gp,0x12
    10a4:	0000                	unimp
    10a6:	9102                	jalr	sp
    10a8:	28000003          	lb	zero,640(zero) # 280 <_tbss_end+0x280>
    10ac:	0056                	c.slli	zero,0x15
    10ae:	0000                	unimp
    10b0:	11e0                	addi	s0,sp,236
    10b2:	0000                	unimp
    10b4:	00392417          	auipc	s0,0x392
    10b8:	0080                	addi	s0,sp,64
    10ba:	0000                	unimp
    10bc:	3500                	.insn	2, 0x3500
    10be:	0002                	c.slli64	zero
    10c0:	0000                	unimp
    10c2:	1108                	addi	a0,sp,160
    10c4:	0002                	c.slli64	zero
    10c6:	0200                	addi	s0,sp,256
    10c8:	0000021b          	sext.w	tp,zero
    10cc:	5628                	lw	a0,104(a2)
    10ce:	0000                	unimp
    10d0:	fc00                	sd	s0,56(s0)
    10d2:	0011                	c.nop	4
    10d4:	1800                	addi	s0,sp,48
    10d6:	00003303          	ld	t1,0(zero) # 0 <_tbss_end>
    10da:	2700                	.insn	2, 0x2700
    10dc:	0002                	c.slli64	zero
    10de:	0300                	addi	s0,sp,384
    10e0:	0090                	addi	a2,sp,64
    10e2:	0000                	unimp
    10e4:	00000227          	.insn	4, 0x0227
    10e8:	0001e903          	lwu	s2,0(gp) # 800054a0 <__global_pointer$>
    10ec:	2700                	.insn	2, 0x2700
    10ee:	0002                	c.slli64	zero
    10f0:	0300                	addi	s0,sp,384
    10f2:	0000004f          	.insn	4, 0x004f
    10f6:	022e                	slli	tp,tp,0xb
    10f8:	0000                	unimp
    10fa:	0000                	unimp
    10fc:	0000                	unimp
    10fe:	3e19                	addiw	t3,t3,-26 # fffffffffffdffe6 <__stack_pointer$+0xffffffff77fe03e6>
    1100:	0039                	c.nop	14
    1102:	0080                	addi	s0,sp,64
    1104:	0000                	unimp
    1106:	0e00                	addi	s0,sp,784
    1108:	0000                	unimp
    110a:	0000                	unimp
    110c:	0000                	unimp
    110e:	0200                	addi	s0,sp,256
    1110:	0012                	c.slli	zero,0x4
    1112:	0000                	unimp
    1114:	c129                	beqz	a0,1156 <_tbss_end+0x1156>
    1116:	0000                	unimp
    1118:	0500                	addi	s0,sp,640
    111a:	0012                	c.slli	zero,0x4
    111c:	0000                	unimp
    111e:	0100                	addi	s0,sp,128
    1120:	0508                	addi	a0,sp,640
    1122:	000001af          	.insn	4, 0x01af
    1126:	0801                	addi	a6,a6,0 # 5000 <_tbss_end+0x5000>
    1128:	00017d07          	.insn	4, 0x00017d07
    112c:	1a00                	addi	s0,sp,304
    112e:	0212                	slli	tp,tp,0x4
    1130:	0000                	unimp
    1132:	0212                	slli	tp,tp,0x4
    1134:	0000                	unimp
    1136:	2400                	.insn	2, 0x2400
    1138:	0002                	c.slli64	zero
    113a:	0500                	addi	s0,sp,640
    113c:	0100                	addi	s0,sp,128
    113e:	6908                	ld	a0,16(a0)
    1140:	0009                	c.nop	2
    1142:	0900                	addi	s0,sp,144
    1144:	00c2                	slli	ra,ra,0x10
    1146:	0000                	unimp
    1148:	f81d                	bnez	s0,107e <_tbss_end+0x107e>
    114a:	0001                	nop
    114c:	2d00                	.insn	2, 0x2d00
    114e:	0000                	unimp
    1150:	c800                	sw	s0,16(s0)
    1152:	0039                	c.nop	14
    1154:	0080                	addi	s0,sp,64
    1156:	0000                	unimp
    1158:	b200                	.insn	2, 0xb200
    115a:	0000                	unimp
    115c:	0000                	unimp
    115e:	0000                	unimp
    1160:	3a00                	.insn	2, 0x3a00
    1162:	002a                	c.slli	zero,0xa
    1164:	0100                	addi	s0,sp,128
    1166:	0510                	addi	a2,sp,640
    1168:	00a5                	addi	ra,ra,9
    116a:	0000                	unimp
    116c:	1001                	c.nop	-32
    116e:	00000007          	.insn	4, 0x0007
    1172:	0100                	addi	s0,sp,128
    1174:	0508                	addi	a0,sp,640
    1176:	01b4                	addi	a3,sp,200
    1178:	0000                	unimp
    117a:	0101                	addi	sp,sp,0 # 1000 <_tbss_end+0x1000>
    117c:	6f06                	ld	t5,64(sp)
    117e:	0000                	unimp
    1180:	0a00                	addi	s0,sp,272
    1182:	0504                	addi	s1,sp,640
    1184:	6e69                	lui	t3,0x1a
    1186:	0074                	addi	a3,sp,12
    1188:	0101                	addi	sp,sp,0
    118a:	6d08                	ld	a0,24(a0)
    118c:	0000                	unimp
    118e:	0b00                	addi	s0,sp,400
    1190:	034d                	addi	t1,t1,19
    1192:	0000                	unimp
    1194:	4702                	lw	a4,0(sp)
    1196:	1601                	addi	a2,a2,-32
    1198:	0065                	c.nop	25
    119a:	0000                	unimp
    119c:	0401                	addi	s0,s0,0 # 3930b4 <_tbss_end+0x3930b4>
    119e:	00018707          	.insn	4, 0x00018707
    11a2:	0100                	addi	s0,sp,128
    11a4:	0708                	addi	a0,sp,896
    11a6:	0182                	c.slli64	gp
    11a8:	0000                	unimp
    11aa:	6c0c                	ld	a1,24(s0)
    11ac:	0002                	c.slli64	zero
    11ae:	0300                	addi	s0,sp,384
    11b0:	0f41                	addi	t5,t5,16
    11b2:	007f 0000 0401 3104 	.insn	10, 0x0004310404010000007f
    11ba:	0004 
    11bc:	0d00                	addi	s0,sp,656
    11be:	0304                	addi	s1,sp,384
    11c0:	0346                	slli	t1,t1,0x11
    11c2:	00b6                	slli	ra,ra,0xd
    11c4:	0000                	unimp
    11c6:	7805                	lui	a6,0xfffe1
    11c8:	0001                	nop
    11ca:	4d00                	lw	s0,24(a0)
    11cc:	0065                	c.nop	25
    11ce:	0000                	unimp
    11d0:	650e0017          	auipc	zero,0x650e0
    11d4:	7078                	ld	a4,224(s0)
    11d6:	0300                	addi	s0,sp,384
    11d8:	0e4e                	slli	t3,t3,0x13
    11da:	0065                	c.nop	25
    11dc:	0000                	unimp
    11de:	1708                	addi	a0,sp,928
    11e0:	0805                	addi	a6,a6,1 # fffffffffffe1001 <__stack_pointer$+0xffffffff77fe1401>
    11e2:	0002                	c.slli64	zero
    11e4:	4f00                	lw	s0,24(a4)
    11e6:	0065                	c.nop	25
    11e8:	0000                	unimp
    11ea:	1f01                	addi	t5,t5,-32
    11ec:	0f00                	addi	s0,sp,912
    11ee:	0241                	addi	tp,tp,16 # 10 <_tbss_end+0x10>
    11f0:	0000                	unimp
    11f2:	0304                	addi	s1,sp,384
    11f4:	00dc0743          	.insn	4, 0x00dc0743
    11f8:	0000                	unimp
    11fa:	6610                	ld	a2,8(a2)
    11fc:	746c                	ld	a1,232(s0)
    11fe:	0300                	addi	s0,sp,384
    1200:	0a45                	addi	s4,s4,17
    1202:	00000073          	ecall
    1206:	0d11                	addi	s10,s10,4
    1208:	0002                	c.slli64	zero
    120a:	0300                	addi	s0,sp,384
    120c:	0551                	addi	a0,a0,20
    120e:	0086                	slli	ra,ra,0x1
    1210:	0000                	unimp
    1212:	1200                	addi	s0,sp,288
    1214:	03a1                	addi	t2,t2,8
    1216:	0000                	unimp
    1218:	2101                	sext.w	sp,sp
    121a:	7301                	lui	t1,0xfffe0
    121c:	0000                	unimp
    121e:	c800                	sw	s0,16(s0)
    1220:	0039                	c.nop	14
    1222:	0080                	addi	s0,sp,64
    1224:	0000                	unimp
    1226:	b200                	.insn	2, 0xb200
    1228:	0000                	unimp
    122a:	0000                	unimp
    122c:	0000                	unimp
    122e:	0100                	addi	s0,sp,128
    1230:	109c                	addi	a5,sp,96
    1232:	0002                	c.slli64	zero
    1234:	1300                	addi	s0,sp,416
    1236:	0069                	c.nop	26
    1238:	2101                	sext.w	sp,sp
    123a:	5818                	lw	a4,48(s0)
    123c:	0000                	unimp
    123e:	1800                	addi	s0,sp,48
    1240:	0012                	c.slli	zero,0x4
    1242:	0200                	addi	s0,sp,256
    1244:	002e                	c.slli	zero,0xb
    1246:	0000                	unimp
    1248:	00004a23          	.insn	4, 0x4a23
    124c:	4000                	lw	s0,0(s0)
    124e:	0012                	c.slli	zero,0x4
    1250:	1400                	addi	s0,sp,544
    1252:	0234                	addi	a3,sp,264
    1254:	0000                	unimp
    1256:	2301                	sext.w	t1,t1
    1258:	00004a03          	lbu	s4,0(zero) # 0 <_tbss_end>
    125c:	0000                	unimp
    125e:	4106                	lw	sp,64(sp)
    1260:	635f 2400 1003      	.insn	6, 0x10032400635f
    1266:	0002                	c.slli64	zero
    1268:	0400                	addi	s0,sp,512
    126a:	5f41                	li	t5,-16
    126c:	02100073          	.insn	4, 0x02100073
    1270:	0000                	unimp
    1272:	125e                	slli	tp,tp,0x37
    1274:	0000                	unimp
    1276:	4104                	lw	s1,0(a0)
    1278:	655f 1000 0002      	.insn	6, 0x00021000655f
    127e:	6600                	ld	s0,8(a2)
    1280:	0012                	c.slli	zero,0x4
    1282:	0400                	addi	s0,sp,512
    1284:	5f41                	li	t5,-16
    1286:	0066                	c.slli	zero,0x19
    1288:	00000217          	auipc	tp,0x0
    128c:	1282                	slli	t0,t0,0x20
    128e:	0000                	unimp
    1290:	6106                	ld	sp,64(sp)
    1292:	2500                	.insn	2, 0x2500
    1294:	730a                	ld	t1,160(sp)
    1296:	0000                	unimp
    1298:	0700                	addi	s0,sp,896
    129a:	0228                	addi	a0,sp,264
    129c:	0000                	unimp
    129e:	000001ef          	jal	gp,129e <_tbss_end+0x129e>
    12a2:	6815                	lui	a6,0x5
    12a4:	01000003          	lb	zero,16(zero) # 10 <_tbss_end+0x10>
    12a8:	0328                	addi	a0,sp,392
    12aa:	3a52                	.insn	2, 0x3a52
    12ac:	8000                	.insn	2, 0x8000
    12ae:	0000                	unimp
    12b0:	0000                	unimp
    12b2:	3308                	.insn	2, 0x3308
    12b4:	0002                	c.slli64	zero
    12b6:	0200                	addi	s0,sp,256
    12b8:	0375                	addi	t1,t1,29 # fffffffffffe001d <__stack_pointer$+0xffffffff77fe041d>
    12ba:	0000                	unimp
    12bc:	5828                	lw	a0,112(s0)
    12be:	0000                	unimp
    12c0:	9500                	.insn	2, 0x9500
    12c2:	0012                	c.slli	zero,0x4
    12c4:	0700                	addi	s0,sp,896
    12c6:	0000023b          	addw	tp,zero,zero
    12ca:	000001b3          	add	gp,zero,zero
    12ce:	9102                	jalr	sp
    12d0:	28000003          	lb	zero,640(zero) # 280 <_tbss_end+0x280>
    12d4:	004a                	c.slli	zero,0x12
    12d6:	0000                	unimp
    12d8:	12b2                	slli	t0,t0,0x2c
    12da:	0000                	unimp
    12dc:	e016                	sd	t0,0(sp)
    12de:	0039                	c.nop	14
    12e0:	0080                	addi	s0,sp,64
    12e2:	0000                	unimp
    12e4:	1e00                	addi	s0,sp,816
    12e6:	0002                	c.slli64	zero
    12e8:	0000                	unimp
    12ea:	4208                	lw	a0,0(a2)
    12ec:	0002                	c.slli64	zero
    12ee:	0200                	addi	s0,sp,256
    12f0:	0000021b          	sext.w	tp,zero
    12f4:	4a28                	lw	a0,80(a2)
    12f6:	0000                	unimp
    12f8:	cc00                	sw	s0,24(s0)
    12fa:	0012                	c.slli	zero,0x4
    12fc:	1700                	addi	s0,sp,928
    12fe:	00003303          	ld	t1,0(zero) # 0 <_tbss_end>
    1302:	1000                	addi	s0,sp,32
    1304:	0002                	c.slli64	zero
    1306:	0300                	addi	s0,sp,384
    1308:	0090                	addi	a2,sp,64
    130a:	0000                	unimp
    130c:	0210                	addi	a2,sp,256
    130e:	0000                	unimp
    1310:	0001e903          	lwu	s2,0(gp) # 800054a0 <__global_pointer$>
    1314:	1000                	addi	s0,sp,32
    1316:	0002                	c.slli64	zero
    1318:	0300                	addi	s0,sp,384
    131a:	0000004f          	.insn	4, 0x004f
    131e:	00000217          	auipc	tp,0x0
    1322:	0000                	unimp
    1324:	0000                	unimp
    1326:	fa18                	sd	a4,48(a2)
    1328:	0039                	c.nop	14
    132a:	0080                	addi	s0,sp,64
    132c:	0000                	unimp
    132e:	0800                	addi	s0,sp,16
    1330:	0000                	unimp
    1332:	0000                	unimp
    1334:	0000                	unimp
    1336:	0200                	addi	s0,sp,256
    1338:	0012                	c.slli	zero,0x4
    133a:	0000                	unimp
    133c:	b629                	j	e46 <_tbss_end+0xe46>
    133e:	0000                	unimp
    1340:	d500                	sw	s0,40(a0)
    1342:	0012                	c.slli	zero,0x4
    1344:	0000                	unimp
    1346:	0100                	addi	s0,sp,128
    1348:	0508                	addi	a0,sp,640
    134a:	000001af          	.insn	4, 0x01af
    134e:	0801                	addi	a6,a6,0 # 5000 <_tbss_end+0x5000>
    1350:	00017d07          	.insn	4, 0x00017d07
    1354:	1900                	addi	s0,sp,176
    1356:	0212                	slli	tp,tp,0x4
    1358:	0000                	unimp
    135a:	0212                	slli	tp,tp,0x4
    135c:	0000                	unimp
    135e:	6400                	ld	s0,8(s0)
    1360:	0002                	c.slli64	zero
    1362:	0500                	addi	s0,sp,640
    1364:	0100                	addi	s0,sp,128
    1366:	e208                	sd	a0,0(a2)
    1368:	000a                	c.slli	zero,0x2
    136a:	0d00                	addi	s0,sp,656
    136c:	00c2                	slli	ra,ra,0x10
    136e:	0000                	unimp
    1370:	2a1d                	addiw	s4,s4,7
    1372:	0002                	c.slli64	zero
    1374:	2d00                	.insn	2, 0x2d00
    1376:	0000                	unimp
    1378:	7a00                	ld	s0,48(a2)
    137a:	003a                	c.slli	zero,0xe
    137c:	0080                	addi	s0,sp,64
    137e:	0000                	unimp
    1380:	6c00                	ld	s0,24(s0)
    1382:	0000                	unimp
    1384:	0000                	unimp
    1386:	0000                	unimp
    1388:	4100                	lw	s0,0(a0)
    138a:	002d                	c.nop	11
    138c:	0100                	addi	s0,sp,128
    138e:	0404                	addi	s1,sp,512
    1390:	0431                	addi	s0,s0,12
    1392:	0000                	unimp
    1394:	0801                	addi	a6,a6,0
    1396:	0804                	addi	s1,sp,16
    1398:	0004                	.insn	2, 0x0004
    139a:	0100                	addi	s0,sp,128
    139c:	0510                	addi	a2,sp,640
    139e:	00a5                	addi	ra,ra,9
    13a0:	0000                	unimp
    13a2:	1001                	c.nop	-32
    13a4:	00000007          	.insn	4, 0x0007
    13a8:	0100                	addi	s0,sp,128
    13aa:	0508                	addi	a0,sp,640
    13ac:	01b4                	addi	a3,sp,200
    13ae:	0000                	unimp
    13b0:	0101                	addi	sp,sp,0
    13b2:	6f06                	ld	t5,64(sp)
    13b4:	0000                	unimp
    13b6:	0e00                	addi	s0,sp,784
    13b8:	0504                	addi	s1,sp,640
    13ba:	6e69                	lui	t3,0x1a
    13bc:	0074                	addi	a3,sp,12
    13be:	0101                	addi	sp,sp,0
    13c0:	6d08                	ld	a0,24(a0)
    13c2:	0000                	unimp
    13c4:	0100                	addi	s0,sp,128
    13c6:	0704                	addi	s1,sp,896
    13c8:	00000187          	.insn	4, 0x0187
    13cc:	0801                	addi	a6,a6,0
    13ce:	00018207          	.insn	4, 0x00018207
    13d2:	0400                	addi	s0,sp,512
    13d4:	026c                	addi	a1,sp,268
    13d6:	0000                	unimp
    13d8:	4102                	lw	sp,0(sp)
    13da:	002e                	c.slli	zero,0xb
    13dc:	0000                	unimp
    13de:	0405                	addi	s0,s0,1
    13e0:	4602                	lw	a2,0(sp)
    13e2:	00b1                	addi	ra,ra,12
    13e4:	0000                	unimp
    13e6:	00017803          	.insn	4, 0x00017803
    13ea:	0200                	addi	s0,sp,256
    13ec:	0e4d                	addi	t3,t3,19 # 1a013 <_tbss_end+0x1a013>
    13ee:	0066                	c.slli	zero,0x19
    13f0:	0000                	unimp
    13f2:	65060017          	auipc	zero,0x65060
    13f6:	7078                	ld	a4,224(s0)
    13f8:	0200                	addi	s0,sp,256
    13fa:	664e                	ld	a2,208(sp)
    13fc:	0000                	unimp
    13fe:	0800                	addi	s0,sp,16
    1400:	02080317          	auipc	t1,0x2080
    1404:	0000                	unimp
    1406:	4f02                	lw	t5,0(sp)
    1408:	660e                	ld	a2,192(sp)
    140a:	0000                	unimp
    140c:	0100                	addi	s0,sp,128
    140e:	001f 4107 0002      	.insn	6, 0x00024107001f
    1414:	0400                	addi	s0,sp,512
    1416:	4302                	lw	t1,0(sp)
    1418:	00d4                	addi	a3,sp,68
    141a:	0000                	unimp
    141c:	6608                	ld	a0,8(a2)
    141e:	746c                	ld	a1,232(s0)
    1420:	0200                	addi	s0,sp,256
    1422:	7445                	lui	s0,0xffff1
    1424:	0000                	unimp
    1426:	0900                	addi	s0,sp,144
    1428:	020d                	addi	tp,tp,3 # 1321 <_tbss_end+0x1321>
    142a:	0000                	unimp
    142c:	5102                	lw	sp,32(sp)
    142e:	007f 0000 0400 0048 	.insn	10, 0x004804000000007f
    1436:	0000 
    1438:	00354403          	lbu	s0,3(a0)
    143c:	0000                	unimp
    143e:	0805                	addi	a6,a6,1
    1440:	0111c603          	lbu	a2,17(gp) # 800054b1 <__global_pointer$+0x11>
    1444:	0000                	unimp
    1446:	00017803          	.insn	4, 0x00017803
    144a:	0300                	addi	s0,sp,384
    144c:	10cd                	addi	ra,ra,-13
    144e:	0111                	addi	sp,sp,4
    1450:	0000                	unimp
    1452:	0034                	addi	a3,sp,8
    1454:	6506                	ld	a0,64(sp)
    1456:	7078                	ld	a4,224(s0)
    1458:	0300                	addi	s0,sp,384
    145a:	66ce                	ld	a3,208(sp)
    145c:	0000                	unimp
    145e:	0b00                	addi	s0,sp,400
    1460:	0334                	addi	a3,sp,392
    1462:	0208                	addi	a0,sp,256
    1464:	0000                	unimp
    1466:	660ecf03          	lbu	t5,1632(t4)
    146a:	0000                	unimp
    146c:	0100                	addi	s0,sp,128
    146e:	0801003f 00017d07 	.insn	8, 0x00017d070801003f
    1476:	0700                	addi	s0,sp,896
    1478:	01d4                	addi	a3,sp,196
    147a:	0000                	unimp
    147c:	0308                	addi	a0,sp,384
    147e:	00013bc3          	.insn	4, 0x00013bc3
    1482:	0800                	addi	s0,sp,16
    1484:	6c66                	ld	s8,88(sp)
    1486:	0074                	addi	a3,sp,12
    1488:	00d4c503          	lbu	a0,13(s1)
    148c:	0000                	unimp
    148e:	0d09                	addi	s10,s10,2
    1490:	0002                	c.slli64	zero
    1492:	0300                	addi	s0,sp,384
    1494:	dfd1                	beqz	a5,1430 <_tbss_end+0x1430>
    1496:	0000                	unimp
    1498:	0000                	unimp
    149a:	0003bc0f          	.insn	4, 0x0003bc0f
    149e:	0100                	addi	s0,sp,128
    14a0:	00d40123          	sb	a3,2(s0) # ffffffffffff1002 <__stack_pointer$+0xffffffff77ff1402>
    14a4:	0000                	unimp
    14a6:	3a7a                	.insn	2, 0x3a7a
    14a8:	8000                	.insn	2, 0x8000
    14aa:	0000                	unimp
    14ac:	0000                	unimp
    14ae:	006c                	addi	a1,sp,12
    14b0:	0000                	unimp
    14b2:	0000                	unimp
    14b4:	0000                	unimp
    14b6:	9c01                	subw	s0,s0,s0
    14b8:	00000257          	.insn	4, 0x0257
    14bc:	6110                	ld	a2,0(a0)
    14be:	0100                	addi	s0,sp,128
    14c0:	00741723          	sh	t2,14(s0)
    14c4:	0000                	unimp
    14c6:	12e8                	addi	a0,sp,364
    14c8:	0000                	unimp
    14ca:	2e0a                	.insn	2, 0x2e0a
    14cc:	0000                	unimp
    14ce:	2500                	.insn	2, 0x2500
    14d0:	0058                	addi	a4,sp,4
    14d2:	0000                	unimp
    14d4:	130c                	addi	a1,sp,416
    14d6:	0000                	unimp
    14d8:	3411                	addiw	s0,s0,-28
    14da:	0002                	c.slli64	zero
    14dc:	0100                	addi	s0,sp,128
    14de:	0325                	addi	t1,t1,9 # 2081409 <_tbss_end+0x2081409>
    14e0:	0058                	addi	a4,sp,4
    14e2:	0000                	unimp
    14e4:	0b00                	addi	s0,sp,400
    14e6:	5f41                	li	t5,-16
    14e8:	57260063          	beq	a2,s2,1a48 <_tbss_end+0x1a48>
    14ec:	0002                	c.slli64	zero
    14ee:	0200                	addi	s0,sp,256
    14f0:	5f41                	li	t5,-16
    14f2:	03260073          	.insn	4, 0x03260073
    14f6:	00000257          	.insn	4, 0x0257
    14fa:	131f 0000 4102      	.insn	6, 0x41020000131f
    1500:	655f 2600 5703      	.insn	6, 0x57032600655f
    1506:	0002                	c.slli64	zero
    1508:	3400                	.insn	2, 0x3400
    150a:	02000013          	li	zero,32
    150e:	5f41                	li	t5,-16
    1510:	0066                	c.slli	zero,0x19
    1512:	0326                	slli	t1,t1,0x9
    1514:	0111                	addi	sp,sp,4
    1516:	0000                	unimp
    1518:	1358                	addi	a4,sp,420
    151a:	0000                	unimp
    151c:	635f520b          	.insn	4, 0x635f520b
    1520:	2700                	.insn	2, 0x2700
    1522:	00000257          	.insn	4, 0x0257
    1526:	5202                	lw	tp,32(sp)
    1528:	735f 2700 5703      	.insn	6, 0x57032700735f
    152e:	0002                	c.slli64	zero
    1530:	1f00                	addi	s0,sp,944
    1532:	02000013          	li	zero,32
    1536:	5f52                	lw	t5,52(sp)
    1538:	0065                	c.nop	25
    153a:	02570327          	.insn	4, 0x02570327
    153e:	0000                	unimp
    1540:	1375                	addi	t1,t1,-3
    1542:	0000                	unimp
    1544:	5202                	lw	tp,32(sp)
    1546:	665f 2700 1103      	.insn	6, 0x11032700665f
    154c:	0001                	nop
    154e:	8800                	.insn	2, 0x8800
    1550:	02000013          	li	zero,32
    1554:	0072                	c.slli	zero,0x1c
    1556:	0a28                	addi	a0,sp,280
    1558:	00d4                	addi	a3,sp,68
    155a:	0000                	unimp
    155c:	00001393          	slli	t2,zero,0x0
    1560:	5912                	lw	s2,36(sp)
    1562:	0002                	c.slli64	zero
    1564:	1500                	addi	s0,sp,672
    1566:	0002                	c.slli64	zero
    1568:	0c00                	addi	s0,sp,528
    156a:	0000007b          	.insn	4, 0x007b
    156e:	0000b12b          	.insn	4, 0xb12b
    1572:	0000                	unimp
    1574:	003ac013          	xori	zero,s5,3
    1578:	0080                	addi	s0,sp,64
    157a:	0000                	unimp
    157c:	1600                	addi	s0,sp,800
    157e:	0000                	unimp
    1580:	0000                	unimp
    1582:	0000                	unimp
    1584:	4600                	lw	s0,8(a2)
    1586:	0002                	c.slli64	zero
    1588:	0a00                	addi	s0,sp,272
    158a:	000003af          	.insn	4, 0x03af
    158e:	0000582f          	.insn	4, 0x582f
    1592:	a500                	.insn	2, 0xa500
    1594:	14000013          	li	zero,320
    1598:	3ac6                	.insn	2, 0x3ac6
    159a:	8000                	.insn	2, 0x8000
    159c:	0000                	unimp
    159e:	0000                	unimp
    15a0:	025e                	slli	tp,tp,0x17
    15a2:	0000                	unimp
    15a4:	1500                	addi	s0,sp,672
    15a6:	00000263          	beqz	zero,15aa <_tbss_end+0x15aa>
    15aa:	120c                	addi	a1,sp,288
    15ac:	0000                	unimp
    15ae:	3100                	.insn	2, 0x3100
    15b0:	0118                	addi	a4,sp,128
    15b2:	0000                	unimp
    15b4:	0000                	unimp
    15b6:	0801                	addi	a6,a6,0
    15b8:	af05                	j	1ce8 <_tbss_end+0x1ce8>
    15ba:	0001                	nop
    15bc:	1600                	addi	s0,sp,800
    15be:	0212                	slli	tp,tp,0x4
    15c0:	0000                	unimp
    15c2:	0212                	slli	tp,tp,0x4
    15c4:	0000                	unimp
    15c6:	7000                	ld	s0,32(s0)
    15c8:	0002                	c.slli64	zero
    15ca:	0500                	addi	s0,sp,640
    15cc:	0100                	addi	s0,sp,128
    15ce:	3c08                	.insn	2, 0x3c08
    15d0:	000c                	.insn	2, 0x000c
    15d2:	0e00                	addi	s0,sp,784
    15d4:	00c2                	slli	ra,ra,0x10
    15d6:	0000                	unimp
    15d8:	5c1d                	li	s8,-25
    15da:	0002                	c.slli64	zero
    15dc:	2d00                	.insn	2, 0x2d00
    15de:	0000                	unimp
    15e0:	e600                	sd	s0,8(a2)
    15e2:	003a                	c.slli	zero,0xe
    15e4:	0080                	addi	s0,sp,64
    15e6:	0000                	unimp
    15e8:	d800                	sw	s0,48(s0)
    15ea:	0000                	unimp
    15ec:	0000                	unimp
    15ee:	0000                	unimp
    15f0:	9300                	.insn	2, 0x9300
    15f2:	0030                	addi	a2,sp,8
    15f4:	0100                	addi	s0,sp,128
    15f6:	0408                	addi	a0,sp,512
    15f8:	0408                	addi	a0,sp,512
    15fa:	0000                	unimp
    15fc:	1001                	c.nop	-32
    15fe:	a505                	j	1c1e <_tbss_end+0x1c1e>
    1600:	0000                	unimp
    1602:	0100                	addi	s0,sp,128
    1604:	0710                	addi	a2,sp,896
    1606:	0000                	unimp
    1608:	0000                	unimp
    160a:	0801                	addi	a6,a6,0
    160c:	b405                	j	102c <_tbss_end+0x102c>
    160e:	0001                	nop
    1610:	0100                	addi	s0,sp,128
    1612:	0601                	addi	a2,a2,0
    1614:	0000006f          	j	1614 <_tbss_end+0x1614>
    1618:	6905040f          	.insn	4, 0x6905040f
    161c:	746e                	ld	s0,248(sp)
    161e:	0100                	addi	s0,sp,128
    1620:	0801                	addi	a6,a6,0
    1622:	006d                	c.nop	27
    1624:	0000                	unimp
    1626:	0401                	addi	s0,s0,0
    1628:	00018707          	.insn	4, 0x00018707
    162c:	0100                	addi	s0,sp,128
    162e:	0708                	addi	a0,sp,896
    1630:	0182                	c.slli64	gp
    1632:	0000                	unimp
    1634:	6c06                	ld	s8,64(sp)
    1636:	0002                	c.slli64	zero
    1638:	0200                	addi	s0,sp,256
    163a:	7841                	lui	a6,0xffff0
    163c:	0000                	unimp
    163e:	0100                	addi	s0,sp,128
    1640:	0404                	addi	s1,sp,512
    1642:	0431                	addi	s0,s0,12
    1644:	0000                	unimp
    1646:	46020407          	.insn	4, 0x46020407
    164a:	00b1                	addi	ra,ra,12
    164c:	0000                	unimp
    164e:	7804                	ld	s1,48(s0)
    1650:	0001                	nop
    1652:	0200                	addi	s0,sp,256
    1654:	0e4d                	addi	t3,t3,19
    1656:	005f 0000 0017      	.insn	6, 0x00170000005f
    165c:	6508                	ld	a0,8(a0)
    165e:	7078                	ld	a4,224(s0)
    1660:	0200                	addi	s0,sp,256
    1662:	5f4e                	lw	t5,240(sp)
    1664:	0000                	unimp
    1666:	0800                	addi	s0,sp,16
    1668:	02080417          	auipc	s0,0x2080
    166c:	0000                	unimp
    166e:	4f02                	lw	t5,0(sp)
    1670:	5f0e                	lw	t5,224(sp)
    1672:	0000                	unimp
    1674:	0100                	addi	s0,sp,128
    1676:	001f 4109 0002      	.insn	6, 0x00024109001f
    167c:	0400                	addi	s0,sp,512
    167e:	4302                	lw	t1,0(sp)
    1680:	00d4                	addi	a3,sp,68
    1682:	0000                	unimp
    1684:	660a                	ld	a2,128(sp)
    1686:	746c                	ld	a1,232(s0)
    1688:	0200                	addi	s0,sp,256
    168a:	6d45                	lui	s10,0x11
    168c:	0000                	unimp
    168e:	0b00                	addi	s0,sp,400
    1690:	020d                	addi	tp,tp,3 # 3 <_tbss_end+0x3>
    1692:	0000                	unimp
    1694:	5102                	lw	sp,32(sp)
    1696:	007f 0000 0600 0048 	.insn	10, 0x004806000000007f
    169e:	0000 
    16a0:	002e4403          	lbu	s0,2(t3)
    16a4:	0000                	unimp
    16a6:	c6030807          	.insn	4, 0xc6030807
    16aa:	0111                	addi	sp,sp,4
    16ac:	0000                	unimp
    16ae:	7804                	ld	s1,48(s0)
    16b0:	0001                	nop
    16b2:	0300                	addi	s0,sp,384
    16b4:	10cd                	addi	ra,ra,-13
    16b6:	0111                	addi	sp,sp,4
    16b8:	0000                	unimp
    16ba:	0034                	addi	a3,sp,8
    16bc:	6508                	ld	a0,8(a0)
    16be:	7078                	ld	a4,224(s0)
    16c0:	0300                	addi	s0,sp,384
    16c2:	5fce                	lw	t6,240(sp)
    16c4:	0000                	unimp
    16c6:	0b00                	addi	s0,sp,400
    16c8:	0434                	addi	a3,sp,520
    16ca:	0208                	addi	a0,sp,256
    16cc:	0000                	unimp
    16ce:	5f0ecf03          	lbu	t5,1520(t4)
    16d2:	0000                	unimp
    16d4:	0100                	addi	s0,sp,128
    16d6:	0801003f 00017d07 	.insn	8, 0x00017d070801003f
    16de:	0900                	addi	s0,sp,144
    16e0:	01d4                	addi	a3,sp,196
    16e2:	0000                	unimp
    16e4:	0308                	addi	a0,sp,384
    16e6:	00013bc3          	.insn	4, 0x00013bc3
    16ea:	0a00                	addi	s0,sp,272
    16ec:	6c66                	ld	s8,88(sp)
    16ee:	0074                	addi	a3,sp,12
    16f0:	00d4c503          	lbu	a0,13(s1)
    16f4:	0000                	unimp
    16f6:	00020d0b          	.insn	4, 0x00020d0b
    16fa:	0300                	addi	s0,sp,384
    16fc:	dfd1                	beqz	a5,1698 <_tbss_end+0x1698>
    16fe:	0000                	unimp
    1700:	0000                	unimp
    1702:	ca10                	sw	a2,16(a2)
    1704:	01000003          	lb	zero,16(zero) # 10 <_tbss_end+0x10>
    1708:	0122                	slli	sp,sp,0x8
    170a:	006d                	c.nop	27
    170c:	0000                	unimp
    170e:	3ae6                	.insn	2, 0x3ae6
    1710:	8000                	.insn	2, 0x8000
    1712:	0000                	unimp
    1714:	0000                	unimp
    1716:	00d8                	addi	a4,sp,68
    1718:	0000                	unimp
    171a:	0000                	unimp
    171c:	0000                	unimp
    171e:	9c01                	subw	s0,s0,s0
    1720:	026c                	addi	a1,sp,268
    1722:	0000                	unimp
    1724:	6111                	addi	sp,sp,256
    1726:	0100                	addi	s0,sp,128
    1728:	1622                	slli	a2,a2,0x28
    172a:	00d4                	addi	a3,sp,68
    172c:	0000                	unimp
    172e:	000013b7          	lui	t2,0x1
    1732:	2e0c                	.insn	2, 0x2e0c
    1734:	0000                	unimp
    1736:	2400                	.insn	2, 0x2400
    1738:	0051                	c.nop	20
    173a:	0000                	unimp
    173c:	13c8                	addi	a0,sp,484
    173e:	0000                	unimp
    1740:	3412                	.insn	2, 0x3412
    1742:	0002                	c.slli64	zero
    1744:	0100                	addi	s0,sp,128
    1746:	0324                	addi	s1,sp,392
    1748:	0051                	c.nop	20
    174a:	0000                	unimp
    174c:	0500                	addi	s0,sp,640
    174e:	5f41                	li	t5,-16
    1750:	03250063          	beq	a0,s2,1770 <_tbss_end+0x1770>
    1754:	026c                	addi	a1,sp,268
    1756:	0000                	unimp
    1758:	4102                	lw	sp,0(sp)
    175a:	735f 2500 026c      	.insn	6, 0x026c2500735f
    1760:	0000                	unimp
    1762:	13ea                	slli	t2,t2,0x3a
    1764:	0000                	unimp
    1766:	4102                	lw	sp,0(sp)
    1768:	655f 2500 026c      	.insn	6, 0x026c2500655f
    176e:	0000                	unimp
    1770:	1400                	addi	s0,sp,544
    1772:	0000                	unimp
    1774:	4102                	lw	sp,0(sp)
    1776:	665f 2500 0111      	.insn	6, 0x01112500665f
    177c:	0000                	unimp
    177e:	142e                	slli	s0,s0,0x2b
    1780:	0000                	unimp
    1782:	5205                	li	tp,-31
    1784:	635f 2600 6c03      	.insn	6, 0x6c032600635f
    178a:	0002                	c.slli64	zero
    178c:	0200                	addi	s0,sp,256
    178e:	5f52                	lw	t5,52(sp)
    1790:	6c260073          	.insn	4, 0x6c260073
    1794:	0002                	c.slli64	zero
    1796:	6800                	ld	s0,16(s0)
    1798:	0014                	.insn	2, 0x0014
    179a:	0200                	addi	s0,sp,256
    179c:	5f52                	lw	t5,52(sp)
    179e:	0065                	c.nop	25
    17a0:	6c26                	ld	s8,72(sp)
    17a2:	0002                	c.slli64	zero
    17a4:	7e00                	ld	s0,56(a2)
    17a6:	0014                	.insn	2, 0x0014
    17a8:	0200                	addi	s0,sp,256
    17aa:	5f52                	lw	t5,52(sp)
    17ac:	0066                	c.slli	zero,0x19
    17ae:	1126                	slli	sp,sp,0x29
    17b0:	0001                	nop
    17b2:	aa00                	.insn	2, 0xaa00
    17b4:	0014                	.insn	2, 0x0014
    17b6:	0500                	addi	s0,sp,640
    17b8:	0072                	c.slli	zero,0x1c
    17ba:	006d0a27          	.insn	4, 0x006d0a27
    17be:	0000                	unimp
    17c0:	790d                	lui	s2,0xfffe3
    17c2:	0002                	c.slli64	zero
    17c4:	0d00                	addi	s0,sp,656
    17c6:	0002                	c.slli64	zero
    17c8:	0300                	addi	s0,sp,384
    17ca:	0000007b          	.insn	4, 0x007b
    17ce:	182a                	slli	a6,a6,0x2a
    17d0:	0001                	nop
    17d2:	0000                	unimp
    17d4:	830d                	srli	a4,a4,0x3
    17d6:	0002                	c.slli64	zero
    17d8:	4b00                	lw	s0,16(a4)
    17da:	0002                	c.slli64	zero
    17dc:	0300                	addi	s0,sp,384
    17de:	0000021b          	sext.w	tp,zero
    17e2:	5130                	lw	a2,96(a0)
    17e4:	0000                	unimp
    17e6:	1300                	addi	s0,sp,416
    17e8:	00003303          	ld	t1,0(zero) # 0 <_tbss_end>
    17ec:	3000                	.insn	2, 0x3000
    17ee:	026c                	addi	a1,sp,268
    17f0:	0000                	unimp
    17f2:	00009003          	lh	zero,0(ra)
    17f6:	3000                	.insn	2, 0x3000
    17f8:	026c                	addi	a1,sp,268
    17fa:	0000                	unimp
    17fc:	0001e903          	lwu	s2,0(gp) # 800054a0 <__global_pointer$>
    1800:	3000                	.insn	2, 0x3000
    1802:	026c                	addi	a1,sp,268
    1804:	0000                	unimp
    1806:	00004f03          	lbu	t5,0(zero) # 0 <_tbss_end>
    180a:	3000                	.insn	2, 0x3000
    180c:	0111                	addi	sp,sp,4
    180e:	0000                	unimp
    1810:	0000                	unimp
    1812:	9614                	.insn	2, 0x9614
    1814:	0080003b          	addw	zero,zero,s0
    1818:	0000                	unimp
    181a:	0e00                	addi	s0,sp,784
    181c:	0000                	unimp
    181e:	0000                	unimp
    1820:	0000                	unimp
    1822:	0c00                	addi	s0,sp,528
    1824:	0012                	c.slli	zero,0x4
    1826:	0000                	unimp
    1828:	b130                	.insn	2, 0xb130
    182a:	0000                	unimp
    182c:	fd00                	sd	s0,56(a0)
    182e:	0014                	.insn	2, 0x0014
    1830:	0000                	unimp
    1832:	0100                	addi	s0,sp,128
    1834:	0508                	addi	a0,sp,640
    1836:	000001af          	.insn	4, 0x01af
    183a:	6a00                	ld	s0,16(a2)
    183c:	0001                	nop
    183e:	0500                	addi	s0,sp,640
    1840:	0100                	addi	s0,sp,128
    1842:	7c08                	ld	a0,56(s0)
    1844:	000d                	c.nop	3
    1846:	0400                	addi	s0,sp,512
    1848:	00c2                	slli	ra,ra,0x10
    184a:	0000                	unimp
    184c:	8d1d                	sub	a0,a0,a5
    184e:	0002                	c.slli64	zero
    1850:	2d00                	.insn	2, 0x2d00
    1852:	0000                	unimp
    1854:	be00                	.insn	2, 0xbe00
    1856:	0080003b          	addw	zero,zero,s0
    185a:	0000                	unimp
    185c:	3c00                	.insn	2, 0x3c00
    185e:	0000                	unimp
    1860:	0000                	unimp
    1862:	0000                	unimp
    1864:	7b00                	ld	s0,48(a4)
    1866:	0034                	addi	a3,sp,8
    1868:	0100                	addi	s0,sp,128
    186a:	0508                	addi	a0,sp,640
    186c:	01b4                	addi	a3,sp,200
    186e:	0000                	unimp
    1870:	0801                	addi	a6,a6,0 # ffffffffffff0000 <__stack_pointer$+0xffffffff77ff0400>
    1872:	00018207          	.insn	4, 0x00018207
    1876:	0500                	addi	s0,sp,640
    1878:	0504                	addi	s1,sp,640
    187a:	6e69                	lui	t3,0x1a
    187c:	0074                	addi	a3,sp,12
    187e:	0801                	addi	a6,a6,0
    1880:	af05                	j	1fb0 <_tbss_end+0x1fb0>
    1882:	0001                	nop
    1884:	0100                	addi	s0,sp,128
    1886:	0410                	addi	a2,sp,512
    1888:	00000403          	lb	s0,0(zero) # 0 <_tbss_end>
    188c:	0101                	addi	sp,sp,0
    188e:	6f06                	ld	t5,64(sp)
    1890:	0000                	unimp
    1892:	0100                	addi	s0,sp,128
    1894:	0801                	addi	a6,a6,0
    1896:	006d                	c.nop	27
    1898:	0000                	unimp
    189a:	0201                	addi	tp,tp,0 # 0 <_tbss_end>
    189c:	3c05                	addiw	s8,s8,-31 # 2fe1 <_tbss_end+0x2fe1>
    189e:	0004                	.insn	2, 0x0004
    18a0:	0100                	addi	s0,sp,128
    18a2:	0702                	c.slli64	a4
    18a4:	03e8                	addi	a0,sp,460
    18a6:	0000                	unimp
    18a8:	0401                	addi	s0,s0,0 # 2081668 <_tbss_end+0x2081668>
    18aa:	00018707          	.insn	4, 0x00018707
    18ae:	0100                	addi	s0,sp,128
    18b0:	0801                	addi	a6,a6,0
    18b2:	0076                	c.slli	zero,0x1d
    18b4:	0000                	unimp
    18b6:	0801                	addi	a6,a6,0
    18b8:	00017d07          	.insn	4, 0x00017d07
    18bc:	0200                	addi	s0,sp,256
    18be:	0000040f          	.insn	4, 0x040f
    18c2:	0058167b          	.insn	4, 0x0058167b
    18c6:	0000                	unimp
    18c8:	00008203          	lb	tp,0(ra)
    18cc:	0200                	addi	s0,sp,256
    18ce:	0422                	slli	s0,s0,0x8
    18d0:	0000                	unimp
    18d2:	0f84                	addi	s1,sp,976
    18d4:	002e                	c.slli	zero,0xb
    18d6:	0000                	unimp
    18d8:	2102                	.insn	2, 0x2102
    18da:	0004                	.insn	2, 0x0004
    18dc:	8500                	.insn	2, 0x8500
    18de:	3516                	.insn	2, 0x3516
    18e0:	0000                	unimp
    18e2:	0100                	addi	s0,sp,128
    18e4:	0510                	addi	a2,sp,640
    18e6:	00a5                	addi	ra,ra,9
    18e8:	0000                	unimp
    18ea:	1001                	c.nop	-32
    18ec:	00000007          	.insn	4, 0x0007
    18f0:	0100                	addi	s0,sp,128
    18f2:	0402                	c.slli64	s0
    18f4:	03df 0000 0401      	.insn	6, 0x0401000003df
    18fa:	0003d703          	lhu	a4,0(t2) # 1000 <_tbss_end+0x1000>
    18fe:	0100                	addi	s0,sp,128
    1900:	0404                	addi	s1,sp,512
    1902:	0431                	addi	s0,s0,12
    1904:	0000                	unimp
    1906:	0801                	addi	a6,a6,0
    1908:	00042903          	lw	s2,0(s0)
    190c:	0100                	addi	s0,sp,128
    190e:	0408                	addi	a0,sp,512
    1910:	0408                	addi	a0,sp,512
    1912:	0000                	unimp
    1914:	1001                	c.nop	-32
    1916:	00044603          	lbu	a2,0(s0)
    191a:	0100                	addi	s0,sp,128
    191c:	0320                	addi	s0,sp,392
    191e:	000003fb          	.insn	4, 0x03fb
    1922:	8d06                	mv	s10,ra
    1924:	0000                	unimp
    1926:	f700                	sd	s0,40(a4)
    1928:	0000                	unimp
    192a:	0700                	addi	s0,sp,896
    192c:	0035                	c.nop	13
    192e:	0000                	unimp
    1930:	00ff e703 0000 0800 	.insn	10, 0x041708000000e70300ff
    1938:	0417 
    193a:	0000                	unimp
    193c:	0602                	c.slli64	a2
    193e:	1602                	slli	a2,a2,0x20
    1940:	000000f7          	.insn	4, 0x00f7
    1944:	1209                	addi	tp,tp,-30 # ffffffffffffffe2 <__stack_pointer$+0xffffffff780003e2>
    1946:	0002                	c.slli64	zero
    1948:	0100                	addi	s0,sp,128
    194a:	02ae                	slli	t0,t0,0xb
    194c:	3c01                	addiw	s8,s8,-32
    194e:	0000                	unimp
    1950:	be00                	.insn	2, 0xbe00
    1952:	0080003b          	addw	zero,zero,s0
    1956:	0000                	unimp
    1958:	3c00                	.insn	2, 0x3c00
    195a:	0000                	unimp
    195c:	0000                	unimp
    195e:	0000                	unimp
    1960:	0100                	addi	s0,sp,128
    1962:	0a9c                	addi	a5,sp,336
    1964:	0078                	addi	a4,sp,12
    1966:	ae01                	j	1c76 <_tbss_end+0x1c76>
    1968:	1202                	slli	tp,tp,0x20
    196a:	009d                	addi	ra,ra,7
    196c:	0000                	unimp
    196e:	1512                	slli	a0,a0,0x24
    1970:	0000                	unimp
    1972:	7465720b          	.insn	4, 0x7465720b
    1976:	0100                	addi	s0,sp,128
    1978:	02b0                	addi	a2,sp,328
    197a:	9209                	srli	a2,a2,0x22
    197c:	0000                	unimp
    197e:	0c00                	addi	s0,sp,528
    1980:	029d                	addi	t0,t0,7
    1982:	0000                	unimp
    1984:	370d                	addiw	a4,a4,-29
    1986:	0004                	.insn	2, 0x0004
    1988:	0100                	addi	s0,sp,128
    198a:	02b2                	slli	t0,t0,0xc
    198c:	00009d03          	lh	s10,0(ra)
    1990:	2500                	.insn	2, 0x2500
    1992:	0015                	c.nop	5
    1994:	0e00                	addi	s0,sp,784
    1996:	5f5f 0061 b201      	.insn	6, 0xb20100615f5f
    199c:	0302                	c.slli64	t1
    199e:	009d                	addi	ra,ra,7
    19a0:	0000                	unimp
    19a2:	1538                	addi	a4,sp,680
    19a4:	0000                	unimp
    19a6:	0000                	unimp
    19a8:	f400                	sd	s0,40(s0)
    19aa:	0000                	unimp
    19ac:	0500                	addi	s0,sp,640
    19ae:	0100                	addi	s0,sp,128
    19b0:	4608                	lw	a0,8(a2)
    19b2:	000e                	c.slli	zero,0x3
    19b4:	0300                	addi	s0,sp,384
    19b6:	00c2                	slli	ra,ra,0x10
    19b8:	0000                	unimp
    19ba:	8d1d                	sub	a0,a0,a5
    19bc:	0002                	c.slli64	zero
    19be:	2d00                	.insn	2, 0x2d00
    19c0:	0000                	unimp
    19c2:	7200                	ld	s0,32(a2)
    19c4:	0035                	c.nop	13
    19c6:	0100                	addi	s0,sp,128
    19c8:	0508                	addi	a0,sp,640
    19ca:	01b4                	addi	a3,sp,200
    19cc:	0000                	unimp
    19ce:	0801                	addi	a6,a6,0
    19d0:	00018207          	.insn	4, 0x00018207
    19d4:	0400                	addi	s0,sp,512
    19d6:	0504                	addi	s1,sp,640
    19d8:	6e69                	lui	t3,0x1a
    19da:	0074                	addi	a3,sp,12
    19dc:	0801                	addi	a6,a6,0
    19de:	af05                	j	210e <_tbss_end+0x210e>
    19e0:	0001                	nop
    19e2:	0100                	addi	s0,sp,128
    19e4:	0410                	addi	a2,sp,512
    19e6:	00000403          	lb	s0,0(zero) # 0 <_tbss_end>
    19ea:	0101                	addi	sp,sp,0
    19ec:	6f06                	ld	t5,64(sp)
    19ee:	0000                	unimp
    19f0:	0100                	addi	s0,sp,128
    19f2:	0801                	addi	a6,a6,0
    19f4:	006d                	c.nop	27
    19f6:	0000                	unimp
    19f8:	0201                	addi	tp,tp,0 # 0 <_tbss_end>
    19fa:	3c05                	addiw	s8,s8,-31
    19fc:	0004                	.insn	2, 0x0004
    19fe:	0100                	addi	s0,sp,128
    1a00:	0702                	c.slli64	a4
    1a02:	03e8                	addi	a0,sp,460
    1a04:	0000                	unimp
    1a06:	0401                	addi	s0,s0,0
    1a08:	00018707          	.insn	4, 0x00018707
    1a0c:	0100                	addi	s0,sp,128
    1a0e:	0801                	addi	a6,a6,0
    1a10:	0076                	c.slli	zero,0x1d
    1a12:	0000                	unimp
    1a14:	0801                	addi	a6,a6,0
    1a16:	00017d07          	.insn	4, 0x00017d07
    1a1a:	0500                	addi	s0,sp,640
    1a1c:	0000040f          	.insn	4, 0x040f
    1a20:	7b01                	lui	s6,0xfffe0
    1a22:	4816                	lw	a6,68(sp)
    1a24:	0000                	unimp
    1a26:	0200                	addi	s0,sp,256
    1a28:	0072                	c.slli	zero,0x1c
    1a2a:	0000                	unimp
    1a2c:	1001                	c.nop	-32
    1a2e:	a505                	j	204e <_tbss_end+0x204e>
    1a30:	0000                	unimp
    1a32:	0100                	addi	s0,sp,128
    1a34:	0710                	addi	a2,sp,896
    1a36:	0000                	unimp
    1a38:	0000                	unimp
    1a3a:	0201                	addi	tp,tp,0 # 0 <_tbss_end>
    1a3c:	df04                	sw	s1,56(a4)
    1a3e:	01000003          	lb	zero,16(zero) # 10 <_tbss_end+0x10>
    1a42:	0304                	addi	s1,sp,384
    1a44:	000003d7          	.insn	4, 0x03d7
    1a48:	0401                	addi	s0,s0,0
    1a4a:	3104                	.insn	2, 0x3104
    1a4c:	0004                	.insn	2, 0x0004
    1a4e:	0100                	addi	s0,sp,128
    1a50:	0308                	addi	a0,sp,384
    1a52:	0429                	addi	s0,s0,10
    1a54:	0000                	unimp
    1a56:	0801                	addi	a6,a6,0
    1a58:	0804                	addi	s1,sp,16
    1a5a:	0004                	.insn	2, 0x0004
    1a5c:	0100                	addi	s0,sp,128
    1a5e:	0310                	addi	a2,sp,384
    1a60:	0446                	slli	s0,s0,0x11
    1a62:	0000                	unimp
    1a64:	2001                	.insn	2, 0x2001
    1a66:	0003fb03          	.insn	4, 0x0003fb03
    1a6a:	0600                	addi	s0,sp,768
    1a6c:	007e                	c.slli	zero,0x1f
    1a6e:	0000                	unimp
    1a70:	00d2                	slli	ra,ra,0x14
    1a72:	0000                	unimp
    1a74:	00002507          	.insn	4, 0x2507
    1a78:	ff00                	sd	s0,56(a4)
    1a7a:	0200                	addi	s0,sp,256
    1a7c:	00c2                	slli	ra,ra,0x10
    1a7e:	0000                	unimp
    1a80:	1708                	addi	a0,sp,928
    1a82:	0004                	.insn	2, 0x0004
    1a84:	0100                	addi	s0,sp,128
    1a86:	0206                	slli	tp,tp,0x1
    1a88:	d216                	sw	t0,36(sp)
    1a8a:	0000                	unimp
    1a8c:	0900                	addi	s0,sp,144
    1a8e:	000000d7          	.insn	4, 0x00d7
    1a92:	9e02                	jalr	t3
    1a94:	0f02                	c.slli64	t5
    1a96:	0309                	addi	t1,t1,2
    1a98:	4ba0                	lw	s0,80(a5)
    1a9a:	8000                	.insn	2, 0x8000
    1a9c:	0000                	unimp
    1a9e:	0000                	unimp
	...

Disassembly of section .debug_abbrev:

0000000000000000 <.debug_abbrev>:
   0:	2401                	sext.w	s0,s0
   2:	0b00                	addi	s0,sp,400
   4:	030b3e0b          	.insn	4, 0x030b3e0b
   8:	000e                	c.slli	zero,0x3
   a:	0200                	addi	s0,sp,256
   c:	0034                	addi	a3,sp,8
   e:	213a0803          	lb	a6,531(s4)
  12:	3b01                	addiw	s6,s6,-32 # fffffffffffdffe0 <__stack_pointer$+0xffffffff77fe03e0>
  14:	490b390b          	.insn	4, 0x490b390b
  18:	00170213          	addi	tp,a4,1
  1c:	0300                	addi	s0,sp,384
  1e:	000a                	c.slli	zero,0x2
  20:	213a0e03          	lb	t3,531(s4)
  24:	3b01                	addiw	s6,s6,-32
  26:	2c21                	addiw	s8,s8,8
  28:	2139                	addiw	sp,sp,14
  2a:	00011103          	lh	sp,0(sp)
  2e:	0400                	addi	s0,sp,512
  30:	0034                	addi	a3,sp,8
  32:	213a0e03          	lb	t3,531(s4)
  36:	3b01                	addiw	s6,s6,-32
  38:	0321390b          	.insn	4, 0x0321390b
  3c:	1349                	addi	t1,t1,-14
  3e:	0000                	unimp
  40:	0b05                	addi	s6,s6,1
  42:	5501                	li	a0,-32
  44:	00130117          	auipc	sp,0x130
  48:	0600                	addi	s0,sp,768
  4a:	0034                	addi	a3,sp,8
  4c:	213a0e03          	lb	t3,531(s4)
  50:	3b01                	addiw	s6,s6,-32
  52:	0321390b          	.insn	4, 0x0321390b
  56:	1349                	addi	t1,t1,-14
  58:	1702                	slli	a4,a4,0x20
  5a:	0000                	unimp
  5c:	03003407          	.insn	4, 0x03003407
  60:	3a08                	.insn	2, 0x3a08
  62:	0121                	addi	sp,sp,8 # 13004c <_tbss_end+0x13004c>
  64:	21390b3b          	.insn	4, 0x21390b3b
  68:	00134903          	lbu	s2,1(t1)
  6c:	0800                	addi	s0,sp,16
  6e:	000d                	c.nop	3
  70:	213a0e03          	lb	t3,531(s4)
  74:	3b02                	.insn	2, 0x3b02
  76:	490b390b          	.insn	4, 0x490b390b
  7a:	6b0b0d13          	addi	s10,s6,1712
  7e:	0900000b          	.insn	4, 0x0900000b
  82:	0005                	c.nop	1
  84:	213a0803          	lb	a6,531(s4)
  88:	3b01                	addiw	s6,s6,-32
  8a:	2121                	addiw	sp,sp,8
  8c:	0b39                	addi	s6,s6,14
  8e:	1349                	addi	t1,t1,-14
  90:	1702                	slli	a4,a4,0x20
  92:	0000                	unimp
  94:	0b0a                	slli	s6,s6,0x2
  96:	5501                	li	a0,-32
  98:	0b000017          	auipc	zero,0xb000
  9c:	0111                	addi	sp,sp,4
  9e:	0e25                	addi	t3,t3,9 # 1a009 <_tbss_end+0x1a009>
  a0:	1f030b13          	addi	s6,t1,496
  a4:	01111f1b          	slliw	t5,sp,0x11
  a8:	0712                	slli	a4,a4,0x4
  aa:	1710                	addi	a2,sp,928
  ac:	0000                	unimp
  ae:	240c                	.insn	2, 0x240c
  b0:	0b00                	addi	s0,sp,400
  b2:	030b3e0b          	.insn	4, 0x030b3e0b
  b6:	0008                	.insn	2, 0x0008
  b8:	0d00                	addi	s0,sp,656
  ba:	0016                	c.slli	zero,0x5
  bc:	0b3a0e03          	lb	t3,179(s4)
  c0:	0b390b3b          	.insn	4, 0x0b390b3b
  c4:	1349                	addi	t1,t1,-14
  c6:	0000                	unimp
  c8:	130e                	slli	t1,t1,0x23
  ca:	0b01                	addi	s6,s6,0
  cc:	3b0b3a0b          	.insn	4, 0x3b0b3a0b
  d0:	010b390b          	.insn	4, 0x010b390b
  d4:	0f000013          	li	zero,240
  d8:	000d                	c.nop	3
  da:	0b3a0803          	lb	a6,179(s4)
  de:	0b390b3b          	.insn	4, 0x0b390b3b
  e2:	1349                	addi	t1,t1,-14
  e4:	0b0d                	addi	s6,s6,3
  e6:	00000b6b          	.insn	4, 0x0b6b
  ea:	1710                	addi	a2,sp,928
  ec:	0301                	addi	t1,t1,0
  ee:	0b0e                	slli	s6,s6,0x3
  f0:	3b0b3a0b          	.insn	4, 0x3b0b3a0b
  f4:	010b390b          	.insn	4, 0x010b390b
  f8:	11000013          	li	zero,272
  fc:	000d                	c.nop	3
  fe:	0b3a0803          	lb	a6,179(s4)
 102:	0b390b3b          	.insn	4, 0x0b390b3b
 106:	1349                	addi	t1,t1,-14
 108:	0000                	unimp
 10a:	0d12                	slli	s10,s10,0x4
 10c:	0300                	addi	s0,sp,384
 10e:	3a0e                	.insn	2, 0x3a0e
 110:	390b3b0b          	.insn	4, 0x390b3b0b
 114:	0013490b          	.insn	4, 0x0013490b
 118:	1300                	addi	s0,sp,416
 11a:	012e                	slli	sp,sp,0xb
 11c:	0e03193f 0b3b0b3a 	.insn	8, 0x0b3b0b3a0e03193f
 124:	0b39                	addi	s6,s6,14
 126:	13491927          	.insn	4, 0x13491927
 12a:	0111                	addi	sp,sp,4
 12c:	0712                	slli	a4,a4,0x4
 12e:	1840                	addi	s0,sp,52
 130:	197a                	slli	s2,s2,0x3e
 132:	1301                	addi	t1,t1,-32
 134:	0000                	unimp
 136:	3414                	.insn	2, 0x3414
 138:	0300                	addi	s0,sp,384
 13a:	3a0e                	.insn	2, 0x3a0e
 13c:	390b3b0b          	.insn	4, 0x390b3b0b
 140:	1c13490b          	.insn	4, 0x1c13490b
 144:	1500000b          	.insn	4, 0x1500000b
 148:	0048                	addi	a0,sp,4
 14a:	017d                	addi	sp,sp,31
 14c:	0000137f 00010b16 	.insn	12, 0x002e170000010b160000137f
 154:	002e1700 
 158:	193c193f 0e030e6e 	.insn	8, 0x0e030e6e193c193f
 160:	0000                	unimp
 162:	0100                	addi	s0,sp,128
 164:	0024                	addi	s1,sp,8
 166:	0b3e0b0b          	.insn	4, 0x0b3e0b0b
 16a:	00000e03          	lb	t3,0(zero) # 0 <_tbss_end>
 16e:	3402                	.insn	2, 0x3402
 170:	0300                	addi	s0,sp,384
 172:	3a08                	.insn	2, 0x3a08
 174:	0121                	addi	sp,sp,8
 176:	21390b3b          	.insn	4, 0x21390b3b
 17a:	02134903          	lbu	s2,33(t1)
 17e:	0018                	.insn	2, 0x0018
 180:	0300                	addi	s0,sp,384
 182:	0034                	addi	a3,sp,8
 184:	213a0e03          	lb	t3,531(s4)
 188:	3b01                	addiw	s6,s6,-32
 18a:	0321390b          	.insn	4, 0x0321390b
 18e:	1349                	addi	t1,t1,-14
 190:	0000                	unimp
 192:	3404                	.insn	2, 0x3404
 194:	0300                	addi	s0,sp,384
 196:	3a08                	.insn	2, 0x3a08
 198:	0121                	addi	sp,sp,8
 19a:	0b390b3b          	.insn	4, 0x0b390b3b
 19e:	1349                	addi	t1,t1,-14
 1a0:	0000                	unimp
 1a2:	0b05                	addi	s6,s6,1
 1a4:	0101                	addi	sp,sp,0
 1a6:	06000013          	li	zero,96
 1aa:	0016                	c.slli	zero,0x5
 1ac:	0b3a0e03          	lb	t3,179(s4)
 1b0:	0b390b3b          	.insn	4, 0x0b390b3b
 1b4:	1349                	addi	t1,t1,-14
 1b6:	0000                	unimp
 1b8:	03000d07          	.insn	4, 0x03000d07
 1bc:	3a0e                	.insn	2, 0x3a0e
 1be:	0321                	addi	t1,t1,8
 1c0:	21390b3b          	.insn	4, 0x21390b3b
 1c4:	490e                	lw	s2,192(sp)
 1c6:	6b0b0d13          	addi	s10,s6,1712
 1ca:	0800000b          	.insn	4, 0x0800000b
 1ce:	0005                	c.nop	1
 1d0:	213a0803          	lb	a6,531(s4)
 1d4:	3b01                	addiw	s6,s6,-32
 1d6:	2121                	addiw	sp,sp,8
 1d8:	0b39                	addi	s6,s6,14
 1da:	1349                	addi	t1,t1,-14
 1dc:	1702                	slli	a4,a4,0x20
 1de:	0000                	unimp
 1e0:	3409                	addiw	s0,s0,-30
 1e2:	0300                	addi	s0,sp,384
 1e4:	3a0e                	.insn	2, 0x3a0e
 1e6:	0121                	addi	sp,sp,8
 1e8:	3923213b          	.insn	4, 0x3923213b
 1ec:	0321                	addi	t1,t1,8
 1ee:	1349                	addi	t1,t1,-14
 1f0:	211c                	.insn	2, 0x211c
 1f2:	0000                	unimp
 1f4:	0a00                	addi	s0,sp,272
 1f6:	1755010b          	.insn	4, 0x1755010b
 1fa:	1301                	addi	t1,t1,-32
 1fc:	0000                	unimp
 1fe:	2501110b          	.insn	4, 0x2501110b
 202:	130e                	slli	t1,t1,0x23
 204:	1b1f030b          	.insn	4, 0x1b1f030b
 208:	111f 1201 1007      	.insn	6, 0x10071201111f
 20e:	0c000017          	auipc	zero,0xc000
 212:	0024                	addi	s1,sp,8
 214:	0b3e0b0b          	.insn	4, 0x0b3e0b0b
 218:	00000803          	lb	a6,0(zero) # 0 <_tbss_end>
 21c:	130d                	addi	t1,t1,-29
 21e:	0b01                	addi	s6,s6,0
 220:	3b0b3a0b          	.insn	4, 0x3b0b3a0b
 224:	010b390b          	.insn	4, 0x010b390b
 228:	0e000013          	li	zero,224
 22c:	000d                	c.nop	3
 22e:	0b3a0803          	lb	a6,179(s4)
 232:	0b390b3b          	.insn	4, 0x0b390b3b
 236:	1349                	addi	t1,t1,-14
 238:	0b0d                	addi	s6,s6,3
 23a:	00000b6b          	.insn	4, 0x0b6b
 23e:	0301170f          	.insn	4, 0x0301170f
 242:	0b0e                	slli	s6,s6,0x3
 244:	3b0b3a0b          	.insn	4, 0x3b0b3a0b
 248:	010b390b          	.insn	4, 0x010b390b
 24c:	10000013          	li	zero,256
 250:	000d                	c.nop	3
 252:	0b3a0803          	lb	a6,179(s4)
 256:	0b390b3b          	.insn	4, 0x0b390b3b
 25a:	1349                	addi	t1,t1,-14
 25c:	0000                	unimp
 25e:	0d11                	addi	s10,s10,4 # 11004 <_tbss_end+0x11004>
 260:	0300                	addi	s0,sp,384
 262:	3a0e                	.insn	2, 0x3a0e
 264:	390b3b0b          	.insn	4, 0x390b3b0b
 268:	0013490b          	.insn	4, 0x0013490b
 26c:	1200                	addi	s0,sp,288
 26e:	012e                	slli	sp,sp,0xb
 270:	0e03193f 0b3b0b3a 	.insn	8, 0x0b3b0b3a0e03193f
 278:	0b39                	addi	s6,s6,14
 27a:	13491927          	.insn	4, 0x13491927
 27e:	0111                	addi	sp,sp,4
 280:	0712                	slli	a4,a4,0x4
 282:	1840                	addi	s0,sp,52
 284:	197a                	slli	s2,s2,0x3e
 286:	1301                	addi	t1,t1,-32
 288:	0000                	unimp
 28a:	00010b13          	mv	s6,sp
 28e:	0000                	unimp
 290:	2401                	sext.w	s0,s0
 292:	0b00                	addi	s0,sp,400
 294:	030b3e0b          	.insn	4, 0x030b3e0b
 298:	000e                	c.slli	zero,0x3
 29a:	0200                	addi	s0,sp,256
 29c:	0034                	addi	a3,sp,8
 29e:	213a0803          	lb	a6,531(s4)
 2a2:	3b01                	addiw	s6,s6,-32
 2a4:	490b390b          	.insn	4, 0x490b390b
 2a8:	00180213          	addi	tp,a6,1
 2ac:	0300                	addi	s0,sp,384
 2ae:	0034                	addi	a3,sp,8
 2b0:	213a0e03          	lb	t3,531(s4)
 2b4:	3b01                	addiw	s6,s6,-32
 2b6:	0321390b          	.insn	4, 0x0321390b
 2ba:	1349                	addi	t1,t1,-14
 2bc:	0000                	unimp
 2be:	1604                	addi	s1,sp,800
 2c0:	0300                	addi	s0,sp,384
 2c2:	3a0e                	.insn	2, 0x3a0e
 2c4:	390b3b0b          	.insn	4, 0x390b3b0b
 2c8:	0013490b          	.insn	4, 0x0013490b
 2cc:	0500                	addi	s0,sp,640
 2ce:	000d                	c.nop	3
 2d0:	213a0e03          	lb	t3,531(s4)
 2d4:	390b3b03          	ld	s6,912(s6)
 2d8:	0e21                	addi	t3,t3,8
 2da:	1349                	addi	t1,t1,-14
 2dc:	0b0d                	addi	s6,s6,3
 2de:	00000b6b          	.insn	4, 0x0b6b
 2e2:	0506                	slli	a0,a0,0x1
 2e4:	0300                	addi	s0,sp,384
 2e6:	3a08                	.insn	2, 0x3a08
 2e8:	0121                	addi	sp,sp,8
 2ea:	3921213b          	.insn	4, 0x3921213b
 2ee:	0213490b          	.insn	4, 0x0213490b
 2f2:	07000017          	auipc	zero,0x7000
 2f6:	0034                	addi	a3,sp,8
 2f8:	213a0e03          	lb	t3,531(s4)
 2fc:	3b01                	addiw	s6,s6,-32
 2fe:	2321                	addiw	t1,t1,8
 300:	2139                	addiw	sp,sp,14
 302:	1c134903          	lbu	s2,449(t1)
 306:	0021                	c.nop	8
 308:	0000                	unimp
 30a:	3408                	.insn	2, 0x3408
 30c:	0300                	addi	s0,sp,384
 30e:	3a08                	.insn	2, 0x3a08
 310:	0121                	addi	sp,sp,8
 312:	21390b3b          	.insn	4, 0x21390b3b
 316:	00134903          	lbu	s2,1(t1)
 31a:	0900                	addi	s0,sp,144
 31c:	1755010b          	.insn	4, 0x1755010b
 320:	1301                	addi	t1,t1,-32
 322:	0000                	unimp
 324:	0b0a                	slli	s6,s6,0x2
 326:	0101                	addi	sp,sp,0
 328:	0b000013          	li	zero,176
 32c:	0034                	addi	a3,sp,8
 32e:	213a0e03          	lb	t3,531(s4)
 332:	3b01                	addiw	s6,s6,-32
 334:	2b21                	addiw	s6,s6,8
 336:	2139                	addiw	sp,sp,14
 338:	02134903          	lbu	s2,33(t1)
 33c:	0c000017          	auipc	zero,0xc000
 340:	0111                	addi	sp,sp,4
 342:	0e25                	addi	t3,t3,9
 344:	1f030b13          	addi	s6,t1,496
 348:	01111f1b          	slliw	t5,sp,0x11
 34c:	0712                	slli	a4,a4,0x4
 34e:	1710                	addi	a2,sp,928
 350:	0000                	unimp
 352:	240d                	addiw	s0,s0,3
 354:	0b00                	addi	s0,sp,400
 356:	030b3e0b          	.insn	4, 0x030b3e0b
 35a:	0008                	.insn	2, 0x0008
 35c:	0e00                	addi	s0,sp,784
 35e:	0b0b0113          	addi	sp,s6,176
 362:	0b3a                	slli	s6,s6,0xe
 364:	0b390b3b          	.insn	4, 0x0b390b3b
 368:	1301                	addi	t1,t1,-32
 36a:	0000                	unimp
 36c:	03000d0f          	.insn	4, 0x03000d0f
 370:	3a08                	.insn	2, 0x3a08
 372:	390b3b0b          	.insn	4, 0x390b3b0b
 376:	0d13490b          	.insn	4, 0x0d13490b
 37a:	000b6b0b          	.insn	4, 0x000b6b0b
 37e:	1000                	addi	s0,sp,32
 380:	0e030117          	auipc	sp,0xe030
 384:	0b3a0b0b          	.insn	4, 0x0b3a0b0b
 388:	0b390b3b          	.insn	4, 0x0b390b3b
 38c:	1301                	addi	t1,t1,-32
 38e:	0000                	unimp
 390:	0d11                	addi	s10,s10,4
 392:	0300                	addi	s0,sp,384
 394:	3a08                	.insn	2, 0x3a08
 396:	390b3b0b          	.insn	4, 0x390b3b0b
 39a:	0013490b          	.insn	4, 0x0013490b
 39e:	1200                	addi	s0,sp,288
 3a0:	000d                	c.nop	3
 3a2:	0b3a0e03          	lb	t3,179(s4)
 3a6:	0b390b3b          	.insn	4, 0x0b390b3b
 3aa:	1349                	addi	t1,t1,-14
 3ac:	0000                	unimp
 3ae:	3f012e13          	slti	t3,sp,1008
 3b2:	0319                	addi	t1,t1,6
 3b4:	3a0e                	.insn	2, 0x3a0e
 3b6:	390b3b0b          	.insn	4, 0x390b3b0b
 3ba:	4919270b          	.insn	4, 0x4919270b
 3be:	12011113          	.insn	4, 0x12011113
 3c2:	7a184007          	.insn	4, 0x7a184007
 3c6:	0119                	addi	sp,sp,6 # e030386 <_free_space+0x603cd5e>
 3c8:	14000013          	li	zero,320
 3cc:	0034                	addi	a3,sp,8
 3ce:	0b3a0803          	lb	a6,179(s4)
 3d2:	0b390b3b          	.insn	4, 0x0b390b3b
 3d6:	1349                	addi	t1,t1,-14
 3d8:	1702                	slli	a4,a4,0x20
 3da:	0000                	unimp
 3dc:	0b15                	addi	s6,s6,5
 3de:	5501                	li	a0,-32
 3e0:	00000017          	auipc	zero,0x0
 3e4:	3401                	addiw	s0,s0,-32
 3e6:	0300                	addi	s0,sp,384
 3e8:	3a08                	.insn	2, 0x3a08
 3ea:	0121                	addi	sp,sp,8
 3ec:	0b390b3b          	.insn	4, 0x0b390b3b
 3f0:	1349                	addi	t1,t1,-14
 3f2:	1702                	slli	a4,a4,0x20
 3f4:	0000                	unimp
 3f6:	2402                	.insn	2, 0x2402
 3f8:	0b00                	addi	s0,sp,400
 3fa:	030b3e0b          	.insn	4, 0x030b3e0b
 3fe:	000e                	c.slli	zero,0x3
 400:	0300                	addi	s0,sp,384
 402:	0034                	addi	a3,sp,8
 404:	213a0e03          	lb	t3,531(s4)
 408:	3b01                	addiw	s6,s6,-32
 40a:	0321390b          	.insn	4, 0x0321390b
 40e:	1349                	addi	t1,t1,-14
 410:	0000                	unimp
 412:	0b04                	addi	s1,sp,400
 414:	5501                	li	a0,-32
 416:	00130117          	auipc	sp,0x130
 41a:	0500                	addi	s0,sp,640
 41c:	0034                	addi	a3,sp,8
 41e:	213a0e03          	lb	t3,531(s4)
 422:	3b01                	addiw	s6,s6,-32
 424:	0321390b          	.insn	4, 0x0321390b
 428:	1349                	addi	t1,t1,-14
 42a:	1702                	slli	a4,a4,0x20
 42c:	0000                	unimp
 42e:	0d06                	slli	s10,s10,0x1
 430:	0300                	addi	s0,sp,384
 432:	3a0e                	.insn	2, 0x3a0e
 434:	0221                	addi	tp,tp,8 # 8 <_tbss_end+0x8>
 436:	21390b3b          	.insn	4, 0x21390b3b
 43a:	490e                	lw	s2,192(sp)
 43c:	6b0b0d13          	addi	s10,s6,1712
 440:	0700000b          	.insn	4, 0x0700000b
 444:	0005                	c.nop	1
 446:	213a0803          	lb	a6,531(s4)
 44a:	3b01                	addiw	s6,s6,-32
 44c:	2121                	addiw	sp,sp,8 # 13041e <_tbss_end+0x13041e>
 44e:	0b39                	addi	s6,s6,14
 450:	1349                	addi	t1,t1,-14
 452:	1702                	slli	a4,a4,0x20
 454:	0000                	unimp
 456:	4808                	lw	a0,16(s0)
 458:	7d00                	ld	s0,56(a0)
 45a:	7f01                	lui	t5,0xfffe0
 45c:	09000013          	li	zero,144
 460:	0111                	addi	sp,sp,4
 462:	0e25                	addi	t3,t3,9
 464:	1f030b13          	addi	s6,t1,496
 468:	01111f1b          	slliw	t5,sp,0x11
 46c:	0712                	slli	a4,a4,0x4
 46e:	1710                	addi	a2,sp,928
 470:	0000                	unimp
 472:	240a                	.insn	2, 0x240a
 474:	0b00                	addi	s0,sp,400
 476:	030b3e0b          	.insn	4, 0x030b3e0b
 47a:	0008                	.insn	2, 0x0008
 47c:	0b00                	addi	s0,sp,400
 47e:	0016                	c.slli	zero,0x5
 480:	0b3a0e03          	lb	t3,179(s4)
 484:	0b390b3b          	.insn	4, 0x0b390b3b
 488:	1349                	addi	t1,t1,-14
 48a:	0000                	unimp
 48c:	130c                	addi	a1,sp,416
 48e:	0b01                	addi	s6,s6,0
 490:	3b0b3a0b          	.insn	4, 0x3b0b3a0b
 494:	010b390b          	.insn	4, 0x010b390b
 498:	0d000013          	li	zero,208
 49c:	000d                	c.nop	3
 49e:	0b3a0803          	lb	a6,179(s4)
 4a2:	0b390b3b          	.insn	4, 0x0b390b3b
 4a6:	1349                	addi	t1,t1,-14
 4a8:	0b0d                	addi	s6,s6,3
 4aa:	00000b6b          	.insn	4, 0x0b6b
 4ae:	170e                	slli	a4,a4,0x23
 4b0:	0301                	addi	t1,t1,0
 4b2:	0b0e                	slli	s6,s6,0x3
 4b4:	3b0b3a0b          	.insn	4, 0x3b0b3a0b
 4b8:	010b390b          	.insn	4, 0x010b390b
 4bc:	0f000013          	li	zero,240
 4c0:	000d                	c.nop	3
 4c2:	0b3a0803          	lb	a6,179(s4)
 4c6:	0b390b3b          	.insn	4, 0x0b390b3b
 4ca:	1349                	addi	t1,t1,-14
 4cc:	0000                	unimp
 4ce:	0d10                	addi	a2,sp,656
 4d0:	0300                	addi	s0,sp,384
 4d2:	3a0e                	.insn	2, 0x3a0e
 4d4:	390b3b0b          	.insn	4, 0x390b3b0b
 4d8:	0013490b          	.insn	4, 0x0013490b
 4dc:	1100                	addi	s0,sp,160
 4de:	012e                	slli	sp,sp,0xb
 4e0:	0e03193f 0b3b0b3a 	.insn	8, 0x0b3b0b3a0e03193f
 4e8:	0b39                	addi	s6,s6,14
 4ea:	13491927          	.insn	4, 0x13491927
 4ee:	0111                	addi	sp,sp,4
 4f0:	0712                	slli	a4,a4,0x4
 4f2:	1840                	addi	s0,sp,52
 4f4:	197a                	slli	s2,s2,0x3e
 4f6:	1301                	addi	t1,t1,-32
 4f8:	0000                	unimp
 4fa:	3412                	.insn	2, 0x3412
 4fc:	0300                	addi	s0,sp,384
 4fe:	3a0e                	.insn	2, 0x3a0e
 500:	390b3b0b          	.insn	4, 0x390b3b0b
 504:	1c13490b          	.insn	4, 0x1c13490b
 508:	1300000b          	.insn	4, 0x1300000b
 50c:	0000010b          	.insn	4, 0x010b
 510:	0b14                	addi	a3,sp,400
 512:	5501                	li	a0,-32
 514:	15000017          	auipc	zero,0x15000
 518:	002e                	c.slli	zero,0xb
 51a:	193c193f 0e030e6e 	.insn	8, 0x0e030e6e193c193f
 522:	0000                	unimp
 524:	0100                	addi	s0,sp,128
 526:	0024                	addi	s1,sp,8
 528:	0b3e0b0b          	.insn	4, 0x0b3e0b0b
 52c:	00000e03          	lb	t3,0(zero) # 0 <_tbss_end>
 530:	3402                	.insn	2, 0x3402
 532:	0300                	addi	s0,sp,384
 534:	3a08                	.insn	2, 0x3a08
 536:	0121                	addi	sp,sp,8
 538:	21390b3b          	.insn	4, 0x21390b3b
 53c:	02134903          	lbu	s2,33(t1)
 540:	03000017          	auipc	zero,0x3000
 544:	000a                	c.slli	zero,0x2
 546:	213a0e03          	lb	t3,531(s4)
 54a:	3b01                	addiw	s6,s6,-32
 54c:	2c21                	addiw	s8,s8,8
 54e:	2139                	addiw	sp,sp,14
 550:	00011103          	lh	sp,0(sp)
 554:	0400                	addi	s0,sp,512
 556:	0034                	addi	a3,sp,8
 558:	213a0e03          	lb	t3,531(s4)
 55c:	3b01                	addiw	s6,s6,-32
 55e:	0321390b          	.insn	4, 0x0321390b
 562:	1349                	addi	t1,t1,-14
 564:	0000                	unimp
 566:	3405                	addiw	s0,s0,-31
 568:	0300                	addi	s0,sp,384
 56a:	3a0e                	.insn	2, 0x3a0e
 56c:	0121                	addi	sp,sp,8
 56e:	21390b3b          	.insn	4, 0x21390b3b
 572:	02134903          	lbu	s2,33(t1)
 576:	06000017          	auipc	zero,0x6000
 57a:	1755010b          	.insn	4, 0x1755010b
 57e:	1301                	addi	t1,t1,-32
 580:	0000                	unimp
 582:	03003407          	.insn	4, 0x03003407
 586:	3a08                	.insn	2, 0x3a08
 588:	0121                	addi	sp,sp,8
 58a:	0b390b3b          	.insn	4, 0x0b390b3b
 58e:	1349                	addi	t1,t1,-14
 590:	0000                	unimp
 592:	0d08                	addi	a0,sp,656
 594:	0300                	addi	s0,sp,384
 596:	3a0e                	.insn	2, 0x3a0e
 598:	0221                	addi	tp,tp,8 # 8 <_tbss_end+0x8>
 59a:	21390b3b          	.insn	4, 0x21390b3b
 59e:	490e                	lw	s2,192(sp)
 5a0:	6b0b0d13          	addi	s10,s6,1712
 5a4:	0900000b          	.insn	4, 0x0900000b
 5a8:	0005                	c.nop	1
 5aa:	213a0803          	lb	a6,531(s4)
 5ae:	3b01                	addiw	s6,s6,-32
 5b0:	2121                	addiw	sp,sp,8
 5b2:	0b39                	addi	s6,s6,14
 5b4:	1349                	addi	t1,t1,-14
 5b6:	1702                	slli	a4,a4,0x20
 5b8:	0000                	unimp
 5ba:	0b0a                	slli	s6,s6,0x2
 5bc:	5501                	li	a0,-32
 5be:	0b000017          	auipc	zero,0xb000
 5c2:	0111                	addi	sp,sp,4
 5c4:	0e25                	addi	t3,t3,9
 5c6:	1f030b13          	addi	s6,t1,496
 5ca:	01111f1b          	slliw	t5,sp,0x11
 5ce:	0712                	slli	a4,a4,0x4
 5d0:	1710                	addi	a2,sp,928
 5d2:	0000                	unimp
 5d4:	240c                	.insn	2, 0x240c
 5d6:	0b00                	addi	s0,sp,400
 5d8:	030b3e0b          	.insn	4, 0x030b3e0b
 5dc:	0008                	.insn	2, 0x0008
 5de:	0d00                	addi	s0,sp,656
 5e0:	0016                	c.slli	zero,0x5
 5e2:	0b3a0e03          	lb	t3,179(s4)
 5e6:	0b390b3b          	.insn	4, 0x0b390b3b
 5ea:	1349                	addi	t1,t1,-14
 5ec:	0000                	unimp
 5ee:	130e                	slli	t1,t1,0x23
 5f0:	0b01                	addi	s6,s6,0
 5f2:	3b0b3a0b          	.insn	4, 0x3b0b3a0b
 5f6:	010b390b          	.insn	4, 0x010b390b
 5fa:	0f000013          	li	zero,240
 5fe:	000d                	c.nop	3
 600:	0b3a0803          	lb	a6,179(s4)
 604:	0b390b3b          	.insn	4, 0x0b390b3b
 608:	1349                	addi	t1,t1,-14
 60a:	0b0d                	addi	s6,s6,3
 60c:	00000b6b          	.insn	4, 0x0b6b
 610:	1710                	addi	a2,sp,928
 612:	0301                	addi	t1,t1,0
 614:	0b0e                	slli	s6,s6,0x3
 616:	3b0b3a0b          	.insn	4, 0x3b0b3a0b
 61a:	010b390b          	.insn	4, 0x010b390b
 61e:	11000013          	li	zero,272
 622:	000d                	c.nop	3
 624:	0b3a0803          	lb	a6,179(s4)
 628:	0b390b3b          	.insn	4, 0x0b390b3b
 62c:	1349                	addi	t1,t1,-14
 62e:	0000                	unimp
 630:	0d12                	slli	s10,s10,0x4
 632:	0300                	addi	s0,sp,384
 634:	3a0e                	.insn	2, 0x3a0e
 636:	390b3b0b          	.insn	4, 0x390b3b0b
 63a:	0013490b          	.insn	4, 0x0013490b
 63e:	1300                	addi	s0,sp,416
 640:	012e                	slli	sp,sp,0xb
 642:	0e03193f 0b3b0b3a 	.insn	8, 0x0b3b0b3a0e03193f
 64a:	0b39                	addi	s6,s6,14
 64c:	13491927          	.insn	4, 0x13491927
 650:	0111                	addi	sp,sp,4
 652:	0712                	slli	a4,a4,0x4
 654:	1840                	addi	s0,sp,52
 656:	197a                	slli	s2,s2,0x3e
 658:	1301                	addi	t1,t1,-32
 65a:	0000                	unimp
 65c:	3414                	.insn	2, 0x3414
 65e:	0300                	addi	s0,sp,384
 660:	3a0e                	.insn	2, 0x3a0e
 662:	390b3b0b          	.insn	4, 0x390b3b0b
 666:	1c13490b          	.insn	4, 0x1c13490b
 66a:	1500000b          	.insn	4, 0x1500000b
 66e:	0048                	addi	a0,sp,4
 670:	017d                	addi	sp,sp,31
 672:	0000137f 00010b16 	.insn	12, 0x002e170000010b160000137f
 67a:	002e1700 
 67e:	193c193f 0e030e6e 	.insn	8, 0x0e030e6e193c193f
 686:	0000                	unimp
 688:	0100                	addi	s0,sp,128
 68a:	0024                	addi	s1,sp,8
 68c:	0b3e0b0b          	.insn	4, 0x0b3e0b0b
 690:	00000e03          	lb	t3,0(zero) # 0 <_tbss_end>
 694:	3402                	.insn	2, 0x3402
 696:	0300                	addi	s0,sp,384
 698:	3a08                	.insn	2, 0x3a08
 69a:	0121                	addi	sp,sp,8
 69c:	0b390b3b          	.insn	4, 0x0b390b3b
 6a0:	1349                	addi	t1,t1,-14
 6a2:	1702                	slli	a4,a4,0x20
 6a4:	0000                	unimp
 6a6:	03001603          	lh	a2,48(zero) # 30 <_tbss_end+0x30>
 6aa:	3a0e                	.insn	2, 0x3a0e
 6ac:	0221                	addi	tp,tp,8 # 8 <_tbss_end+0x8>
 6ae:	0b39053b          	.insn	4, 0x0b39053b
 6b2:	1349                	addi	t1,t1,-14
 6b4:	0000                	unimp
 6b6:	0d04                	addi	s1,sp,656
 6b8:	0300                	addi	s0,sp,384
 6ba:	3a0e                	.insn	2, 0x3a0e
 6bc:	0321                	addi	t1,t1,8
 6be:	21390b3b          	.insn	4, 0x21390b3b
 6c2:	490e                	lw	s2,192(sp)
 6c4:	6b0b0d13          	addi	s10,s6,1712
 6c8:	0500000b          	.insn	4, 0x0500000b
 6cc:	0034                	addi	a3,sp,8
 6ce:	213a0e03          	lb	t3,531(s4)
 6d2:	3b01                	addiw	s6,s6,-32
 6d4:	0321390b          	.insn	4, 0x0321390b
 6d8:	1349                	addi	t1,t1,-14
 6da:	1702                	slli	a4,a4,0x20
 6dc:	0000                	unimp
 6de:	3406                	.insn	2, 0x3406
 6e0:	0300                	addi	s0,sp,384
 6e2:	3a0e                	.insn	2, 0x3a0e
 6e4:	0121                	addi	sp,sp,8
 6e6:	21390b3b          	.insn	4, 0x21390b3b
 6ea:	00134903          	lbu	s2,1(t1)
 6ee:	0700                	addi	s0,sp,896
 6f0:	0111                	addi	sp,sp,4
 6f2:	0e25                	addi	t3,t3,9
 6f4:	1f030b13          	addi	s6,t1,496
 6f8:	01111f1b          	slliw	t5,sp,0x11
 6fc:	0712                	slli	a4,a4,0x4
 6fe:	1710                	addi	a2,sp,928
 700:	0000                	unimp
 702:	2408                	.insn	2, 0x2408
 704:	0b00                	addi	s0,sp,400
 706:	030b3e0b          	.insn	4, 0x030b3e0b
 70a:	0008                	.insn	2, 0x0008
 70c:	0900                	addi	s0,sp,144
 70e:	0016                	c.slli	zero,0x5
 710:	0b3a0e03          	lb	t3,179(s4)
 714:	0b390b3b          	.insn	4, 0x0b390b3b
 718:	1349                	addi	t1,t1,-14
 71a:	0000                	unimp
 71c:	130a                	slli	t1,t1,0x22
 71e:	0b01                	addi	s6,s6,0
 720:	3b0b3a0b          	.insn	4, 0x3b0b3a0b
 724:	010b390b          	.insn	4, 0x010b390b
 728:	0b000013          	li	zero,176
 72c:	000d                	c.nop	3
 72e:	0b3a0803          	lb	a6,179(s4)
 732:	0b390b3b          	.insn	4, 0x0b390b3b
 736:	1349                	addi	t1,t1,-14
 738:	0b0d                	addi	s6,s6,3
 73a:	00000b6b          	.insn	4, 0x0b6b
 73e:	170c                	addi	a1,sp,928
 740:	0301                	addi	t1,t1,0
 742:	0b0e                	slli	s6,s6,0x3
 744:	3b0b3a0b          	.insn	4, 0x3b0b3a0b
 748:	010b390b          	.insn	4, 0x010b390b
 74c:	0d000013          	li	zero,208
 750:	000d                	c.nop	3
 752:	0b3a0803          	lb	a6,179(s4)
 756:	0b390b3b          	.insn	4, 0x0b390b3b
 75a:	1349                	addi	t1,t1,-14
 75c:	0000                	unimp
 75e:	0d0e                	slli	s10,s10,0x3
 760:	0300                	addi	s0,sp,384
 762:	3a0e                	.insn	2, 0x3a0e
 764:	390b3b0b          	.insn	4, 0x390b3b0b
 768:	0013490b          	.insn	4, 0x0013490b
 76c:	0f00                	addi	s0,sp,912
 76e:	012e                	slli	sp,sp,0xb
 770:	0e03193f 0b3b0b3a 	.insn	8, 0x0b3b0b3a0e03193f
 778:	0b39                	addi	s6,s6,14
 77a:	13491927          	.insn	4, 0x13491927
 77e:	0111                	addi	sp,sp,4
 780:	0712                	slli	a4,a4,0x4
 782:	1840                	addi	s0,sp,52
 784:	197a                	slli	s2,s2,0x3e
 786:	1301                	addi	t1,t1,-32
 788:	0000                	unimp
 78a:	0510                	addi	a2,sp,640
 78c:	0300                	addi	s0,sp,384
 78e:	3a08                	.insn	2, 0x3a08
 790:	390b3b0b          	.insn	4, 0x390b3b0b
 794:	0213490b          	.insn	4, 0x0213490b
 798:	11000017          	auipc	zero,0x11000
 79c:	0034                	addi	a3,sp,8
 79e:	0b3a0e03          	lb	t3,179(s4)
 7a2:	0b390b3b          	.insn	4, 0x0b390b3b
 7a6:	1349                	addi	t1,t1,-14
 7a8:	0b1c                	addi	a5,sp,400
 7aa:	0000                	unimp
 7ac:	3412                	.insn	2, 0x3412
 7ae:	0300                	addi	s0,sp,384
 7b0:	3a08                	.insn	2, 0x3a08
 7b2:	390b3b0b          	.insn	4, 0x390b3b0b
 7b6:	0013490b          	.insn	4, 0x0013490b
 7ba:	1300                	addi	s0,sp,416
 7bc:	0034                	addi	a3,sp,8
 7be:	0b3a0803          	lb	a6,179(s4)
 7c2:	0b390b3b          	.insn	4, 0x0b390b3b
 7c6:	1349                	addi	t1,t1,-14
 7c8:	1802                	slli	a6,a6,0x20
 7ca:	0000                	unimp
 7cc:	0b14                	addi	a3,sp,400
 7ce:	5501                	li	a0,-32
 7d0:	00130117          	auipc	sp,0x130
 7d4:	1500                	addi	s0,sp,672
 7d6:	1301010b          	.insn	4, 0x1301010b
 7da:	0000                	unimp
 7dc:	0b16                	slli	s6,s6,0x5
 7de:	5501                	li	a0,-32
 7e0:	00000017          	auipc	zero,0x0
 7e4:	2401                	sext.w	s0,s0
 7e6:	0b00                	addi	s0,sp,400
 7e8:	030b3e0b          	.insn	4, 0x030b3e0b
 7ec:	000e                	c.slli	zero,0x3
 7ee:	0200                	addi	s0,sp,256
 7f0:	0034                	addi	a3,sp,8
 7f2:	213a0e03          	lb	t3,531(s4)
 7f6:	3b01                	addiw	s6,s6,-32
 7f8:	0321390b          	.insn	4, 0x0321390b
 7fc:	1349                	addi	t1,t1,-14
 7fe:	1702                	slli	a4,a4,0x20
 800:	0000                	unimp
 802:	03003403          	ld	s0,48(zero) # 30 <_tbss_end+0x30>
 806:	3a0e                	.insn	2, 0x3a0e
 808:	0121                	addi	sp,sp,8 # 1307d8 <_tbss_end+0x1307d8>
 80a:	3928213b          	.insn	4, 0x3928213b
 80e:	0321                	addi	t1,t1,8
 810:	1349                	addi	t1,t1,-14
 812:	0000                	unimp
 814:	3404                	.insn	2, 0x3404
 816:	0300                	addi	s0,sp,384
 818:	3a08                	.insn	2, 0x3a08
 81a:	0121                	addi	sp,sp,8
 81c:	3924213b          	.insn	4, 0x3924213b
 820:	0321                	addi	t1,t1,8
 822:	1349                	addi	t1,t1,-14
 824:	1702                	slli	a4,a4,0x20
 826:	0000                	unimp
 828:	1605                	addi	a2,a2,-31
 82a:	0300                	addi	s0,sp,384
 82c:	3a0e                	.insn	2, 0x3a0e
 82e:	0221                	addi	tp,tp,8 # 8 <_tbss_end+0x8>
 830:	0b39053b          	.insn	4, 0x0b39053b
 834:	1349                	addi	t1,t1,-14
 836:	0000                	unimp
 838:	0d06                	slli	s10,s10,0x1
 83a:	0300                	addi	s0,sp,384
 83c:	3a0e                	.insn	2, 0x3a0e
 83e:	0321                	addi	t1,t1,8
 840:	21390b3b          	.insn	4, 0x21390b3b
 844:	490e                	lw	s2,192(sp)
 846:	6b0b0d13          	addi	s10,s6,1712
 84a:	0700000b          	.insn	4, 0x0700000b
 84e:	0034                	addi	a3,sp,8
 850:	213a0803          	lb	a6,531(s4)
 854:	3b01                	addiw	s6,s6,-32
 856:	490b390b          	.insn	4, 0x490b390b
 85a:	08000013          	li	zero,128
 85e:	1755010b          	.insn	4, 0x1755010b
 862:	0000                	unimp
 864:	1109                	addi	sp,sp,-30
 866:	2501                	sext.w	a0,a0
 868:	130e                	slli	t1,t1,0x23
 86a:	1b1f030b          	.insn	4, 0x1b1f030b
 86e:	111f 1201 1007      	.insn	6, 0x10071201111f
 874:	0a000017          	auipc	zero,0xa000
 878:	0024                	addi	s1,sp,8
 87a:	0b3e0b0b          	.insn	4, 0x0b3e0b0b
 87e:	00000803          	lb	a6,0(zero) # 0 <_tbss_end>
 882:	0300160b          	.insn	4, 0x0300160b
 886:	3a0e                	.insn	2, 0x3a0e
 888:	390b3b0b          	.insn	4, 0x390b3b0b
 88c:	0013490b          	.insn	4, 0x0013490b
 890:	0c00                	addi	s0,sp,528
 892:	0b0b0113          	addi	sp,s6,176
 896:	0b3a                	slli	s6,s6,0xe
 898:	0b390b3b          	.insn	4, 0x0b390b3b
 89c:	1301                	addi	t1,t1,-32
 89e:	0000                	unimp
 8a0:	0d0d                	addi	s10,s10,3
 8a2:	0300                	addi	s0,sp,384
 8a4:	3a08                	.insn	2, 0x3a08
 8a6:	390b3b0b          	.insn	4, 0x390b3b0b
 8aa:	0d13490b          	.insn	4, 0x0d13490b
 8ae:	000b6b0b          	.insn	4, 0x000b6b0b
 8b2:	0e00                	addi	s0,sp,784
 8b4:	0e030117          	auipc	sp,0xe030
 8b8:	0b3a0b0b          	.insn	4, 0x0b3a0b0b
 8bc:	0b390b3b          	.insn	4, 0x0b390b3b
 8c0:	1301                	addi	t1,t1,-32
 8c2:	0000                	unimp
 8c4:	03000d0f          	.insn	4, 0x03000d0f
 8c8:	3a08                	.insn	2, 0x3a08
 8ca:	390b3b0b          	.insn	4, 0x390b3b0b
 8ce:	0013490b          	.insn	4, 0x0013490b
 8d2:	1000                	addi	s0,sp,32
 8d4:	000d                	c.nop	3
 8d6:	0b3a0e03          	lb	t3,179(s4)
 8da:	0b390b3b          	.insn	4, 0x0b390b3b
 8de:	1349                	addi	t1,t1,-14
 8e0:	0000                	unimp
 8e2:	2e11                	addiw	t3,t3,4
 8e4:	3f01                	addiw	t5,t5,-32 # fffffffffffdffe0 <__stack_pointer$+0xffffffff77fe03e0>
 8e6:	0319                	addi	t1,t1,6
 8e8:	3a0e                	.insn	2, 0x3a0e
 8ea:	390b3b0b          	.insn	4, 0x390b3b0b
 8ee:	4919270b          	.insn	4, 0x4919270b
 8f2:	12011113          	.insn	4, 0x12011113
 8f6:	7a184007          	.insn	4, 0x7a184007
 8fa:	0119                	addi	sp,sp,6 # e0308ba <_free_space+0x603d292>
 8fc:	12000013          	li	zero,288
 900:	0005                	c.nop	1
 902:	0b3a0803          	lb	a6,179(s4)
 906:	0b390b3b          	.insn	4, 0x0b390b3b
 90a:	1349                	addi	t1,t1,-14
 90c:	1702                	slli	a4,a4,0x20
 90e:	0000                	unimp
 910:	03003413          	sltiu	s0,zero,48
 914:	3a0e                	.insn	2, 0x3a0e
 916:	390b3b0b          	.insn	4, 0x390b3b0b
 91a:	1c13490b          	.insn	4, 0x1c13490b
 91e:	1400000b          	.insn	4, 0x1400000b
 922:	1755010b          	.insn	4, 0x1755010b
 926:	1301                	addi	t1,t1,-32
 928:	0000                	unimp
 92a:	0a15                	addi	s4,s4,5
 92c:	0300                	addi	s0,sp,384
 92e:	3a0e                	.insn	2, 0x3a0e
 930:	390b3b0b          	.insn	4, 0x390b3b0b
 934:	0001110b          	.insn	4, 0x0001110b
 938:	1600                	addi	s0,sp,800
 93a:	0111010b          	.insn	4, 0x0111010b
 93e:	0712                	slli	a4,a4,0x4
 940:	1301                	addi	t1,t1,-32
 942:	0000                	unimp
 944:	7d004817          	auipc	a6,0x7d004
 948:	7f01                	lui	t5,0xfffe0
 94a:	18000013          	li	zero,384
 94e:	0000010b          	.insn	4, 0x010b
 952:	0b19                	addi	s6,s6,6
 954:	1101                	addi	sp,sp,-32
 956:	1201                	addi	tp,tp,-32 # ffffffffffffffe0 <__stack_pointer$+0xffffffff780003e0>
 958:	1a000007          	.insn	4, 0x1a000007
 95c:	002e                	c.slli	zero,0xb
 95e:	193c193f 0e030e6e 	.insn	8, 0x0e030e6e193c193f
 966:	0000                	unimp
 968:	0100                	addi	s0,sp,128
 96a:	0024                	addi	s1,sp,8
 96c:	0b3e0b0b          	.insn	4, 0x0b3e0b0b
 970:	00000e03          	lb	t3,0(zero) # 0 <_tbss_end>
 974:	3402                	.insn	2, 0x3402
 976:	0300                	addi	s0,sp,384
 978:	3a0e                	.insn	2, 0x3a0e
 97a:	0121                	addi	sp,sp,8
 97c:	21390b3b          	.insn	4, 0x21390b3b
 980:	02134903          	lbu	s2,33(t1)
 984:	03000017          	auipc	zero,0x3000
 988:	0034                	addi	a3,sp,8
 98a:	213a0e03          	lb	t3,531(s4)
 98e:	3b01                	addiw	s6,s6,-32
 990:	2821                	addiw	a6,a6,8 # 7d00494c <_free_space+0x75011324>
 992:	2139                	addiw	sp,sp,14
 994:	00134903          	lbu	s2,1(t1)
 998:	0400                	addi	s0,sp,512
 99a:	0034                	addi	a3,sp,8
 99c:	213a0803          	lb	a6,531(s4)
 9a0:	3b01                	addiw	s6,s6,-32
 9a2:	2421                	addiw	s0,s0,8
 9a4:	2139                	addiw	sp,sp,14
 9a6:	02134903          	lbu	s2,33(t1)
 9aa:	05000017          	auipc	zero,0x5000
 9ae:	000d                	c.nop	3
 9b0:	213a0e03          	lb	t3,531(s4)
 9b4:	390b3b03          	ld	s6,912(s6)
 9b8:	0e21                	addi	t3,t3,8
 9ba:	1349                	addi	t1,t1,-14
 9bc:	0b0d                	addi	s6,s6,3
 9be:	00000b6b          	.insn	4, 0x0b6b
 9c2:	3406                	.insn	2, 0x3406
 9c4:	0300                	addi	s0,sp,384
 9c6:	3a08                	.insn	2, 0x3a08
 9c8:	0121                	addi	sp,sp,8
 9ca:	0b390b3b          	.insn	4, 0x0b390b3b
 9ce:	1349                	addi	t1,t1,-14
 9d0:	0000                	unimp
 9d2:	55010b07          	.insn	4, 0x55010b07
 9d6:	00130117          	auipc	sp,0x130
 9da:	0800                	addi	s0,sp,16
 9dc:	1755010b          	.insn	4, 0x1755010b
 9e0:	0000                	unimp
 9e2:	1109                	addi	sp,sp,-30 # 1309b8 <_tbss_end+0x1309b8>
 9e4:	2501                	sext.w	a0,a0
 9e6:	130e                	slli	t1,t1,0x23
 9e8:	1b1f030b          	.insn	4, 0x1b1f030b
 9ec:	111f 1201 1007      	.insn	6, 0x10071201111f
 9f2:	0a000017          	auipc	zero,0xa000
 9f6:	0024                	addi	s1,sp,8
 9f8:	0b3e0b0b          	.insn	4, 0x0b3e0b0b
 9fc:	00000803          	lb	a6,0(zero) # 0 <_tbss_end>
 a00:	0300160b          	.insn	4, 0x0300160b
 a04:	3a0e                	.insn	2, 0x3a0e
 a06:	39053b0b          	.insn	4, 0x39053b0b
 a0a:	0013490b          	.insn	4, 0x0013490b
 a0e:	0c00                	addi	s0,sp,528
 a10:	0016                	c.slli	zero,0x5
 a12:	0b3a0e03          	lb	t3,179(s4)
 a16:	0b390b3b          	.insn	4, 0x0b390b3b
 a1a:	1349                	addi	t1,t1,-14
 a1c:	0000                	unimp
 a1e:	130d                	addi	t1,t1,-29
 a20:	0b01                	addi	s6,s6,0
 a22:	3b0b3a0b          	.insn	4, 0x3b0b3a0b
 a26:	010b390b          	.insn	4, 0x010b390b
 a2a:	0e000013          	li	zero,224
 a2e:	000d                	c.nop	3
 a30:	0b3a0803          	lb	a6,179(s4)
 a34:	0b390b3b          	.insn	4, 0x0b390b3b
 a38:	1349                	addi	t1,t1,-14
 a3a:	0b0d                	addi	s6,s6,3
 a3c:	00000b6b          	.insn	4, 0x0b6b
 a40:	0301170f          	.insn	4, 0x0301170f
 a44:	0b0e                	slli	s6,s6,0x3
 a46:	3b0b3a0b          	.insn	4, 0x3b0b3a0b
 a4a:	010b390b          	.insn	4, 0x010b390b
 a4e:	10000013          	li	zero,256
 a52:	000d                	c.nop	3
 a54:	0b3a0803          	lb	a6,179(s4)
 a58:	0b390b3b          	.insn	4, 0x0b390b3b
 a5c:	1349                	addi	t1,t1,-14
 a5e:	0000                	unimp
 a60:	0d11                	addi	s10,s10,4
 a62:	0300                	addi	s0,sp,384
 a64:	3a0e                	.insn	2, 0x3a0e
 a66:	390b3b0b          	.insn	4, 0x390b3b0b
 a6a:	0013490b          	.insn	4, 0x0013490b
 a6e:	1200                	addi	s0,sp,288
 a70:	012e                	slli	sp,sp,0xb
 a72:	0e03193f 0b3b0b3a 	.insn	8, 0x0b3b0b3a0e03193f
 a7a:	0b39                	addi	s6,s6,14
 a7c:	13491927          	.insn	4, 0x13491927
 a80:	0111                	addi	sp,sp,4
 a82:	0712                	slli	a4,a4,0x4
 a84:	1840                	addi	s0,sp,52
 a86:	197a                	slli	s2,s2,0x3e
 a88:	1301                	addi	t1,t1,-32
 a8a:	0000                	unimp
 a8c:	03000513          	li	a0,48
 a90:	3a08                	.insn	2, 0x3a08
 a92:	390b3b0b          	.insn	4, 0x390b3b0b
 a96:	0213490b          	.insn	4, 0x0213490b
 a9a:	14000017          	auipc	zero,0x14000
 a9e:	0034                	addi	a3,sp,8
 aa0:	0b3a0e03          	lb	t3,179(s4)
 aa4:	0b390b3b          	.insn	4, 0x0b390b3b
 aa8:	1349                	addi	t1,t1,-14
 aaa:	0b1c                	addi	a5,sp,400
 aac:	0000                	unimp
 aae:	0a15                	addi	s4,s4,5
 ab0:	0300                	addi	s0,sp,384
 ab2:	3a0e                	.insn	2, 0x3a0e
 ab4:	390b3b0b          	.insn	4, 0x390b3b0b
 ab8:	0001110b          	.insn	4, 0x0001110b
 abc:	1600                	addi	s0,sp,800
 abe:	0048                	addi	a0,sp,4
 ac0:	017d                	addi	sp,sp,31
 ac2:	0000137f 00010b17 	.insn	12, 0x010b180000010b170000137f
 aca:	010b1800 
 ace:	0111                	addi	sp,sp,4
 ad0:	0712                	slli	a4,a4,0x4
 ad2:	0000                	unimp
 ad4:	2e19                	addiw	t3,t3,6
 ad6:	3f00                	.insn	2, 0x3f00
 ad8:	3c19                	addiw	s8,s8,-26
 ada:	6e19                	lui	t3,0x6
 adc:	030e                	slli	t1,t1,0x3
 ade:	000e                	c.slli	zero,0x3
 ae0:	0000                	unimp
 ae2:	2401                	sext.w	s0,s0
 ae4:	0b00                	addi	s0,sp,400
 ae6:	030b3e0b          	.insn	4, 0x030b3e0b
 aea:	000e                	c.slli	zero,0x3
 aec:	0200                	addi	s0,sp,256
 aee:	0034                	addi	a3,sp,8
 af0:	213a0803          	lb	a6,531(s4)
 af4:	3b01                	addiw	s6,s6,-32
 af6:	490b390b          	.insn	4, 0x490b390b
 afa:	00170213          	addi	tp,a4,1
 afe:	0300                	addi	s0,sp,384
 b00:	000d                	c.nop	3
 b02:	0b3a0e03          	lb	t3,179(s4)
 b06:	0b390b3b          	.insn	4, 0x0b390b3b
 b0a:	1349                	addi	t1,t1,-14
 b0c:	0b0d                	addi	s6,s6,3
 b0e:	00000b6b          	.insn	4, 0x0b6b
 b12:	1604                	addi	s1,sp,800
 b14:	0300                	addi	s0,sp,384
 b16:	3a0e                	.insn	2, 0x3a0e
 b18:	390b3b0b          	.insn	4, 0x390b3b0b
 b1c:	0f21                	addi	t5,t5,8 # fffffffffffe0008 <__stack_pointer$+0xffffffff77fe0408>
 b1e:	1349                	addi	t1,t1,-14
 b20:	0000                	unimp
 b22:	1305                	addi	t1,t1,-31
 b24:	0b01                	addi	s6,s6,0
 b26:	3b0b3a0b          	.insn	4, 0x3b0b3a0b
 b2a:	0321390b          	.insn	4, 0x0321390b
 b2e:	1301                	addi	t1,t1,-32
 b30:	0000                	unimp
 b32:	0d06                	slli	s10,s10,0x1
 b34:	0300                	addi	s0,sp,384
 b36:	3a08                	.insn	2, 0x3a08
 b38:	390b3b0b          	.insn	4, 0x390b3b0b
 b3c:	0e21                	addi	t3,t3,8 # 6008 <_tbss_end+0x6008>
 b3e:	1349                	addi	t1,t1,-14
 b40:	0b0d                	addi	s6,s6,3
 b42:	00000b6b          	.insn	4, 0x0b6b
 b46:	03011707          	.insn	4, 0x03011707
 b4a:	0b0e                	slli	s6,s6,0x3
 b4c:	3b0b3a0b          	.insn	4, 0x3b0b3a0b
 b50:	0721390b          	.insn	4, 0x0721390b
 b54:	1301                	addi	t1,t1,-32
 b56:	0000                	unimp
 b58:	0d08                	addi	a0,sp,656
 b5a:	0300                	addi	s0,sp,384
 b5c:	3a08                	.insn	2, 0x3a08
 b5e:	390b3b0b          	.insn	4, 0x390b3b0b
 b62:	0a21                	addi	s4,s4,8
 b64:	1349                	addi	t1,t1,-14
 b66:	0000                	unimp
 b68:	0d09                	addi	s10,s10,2
 b6a:	0300                	addi	s0,sp,384
 b6c:	3a0e                	.insn	2, 0x3a0e
 b6e:	390b3b0b          	.insn	4, 0x390b3b0b
 b72:	0521                	addi	a0,a0,8
 b74:	1349                	addi	t1,t1,-14
 b76:	0000                	unimp
 b78:	340a                	.insn	2, 0x340a
 b7a:	0300                	addi	s0,sp,384
 b7c:	3a0e                	.insn	2, 0x3a0e
 b7e:	0121                	addi	sp,sp,8
 b80:	21390b3b          	.insn	4, 0x21390b3b
 b84:	02134903          	lbu	s2,33(t1)
 b88:	0b000017          	auipc	zero,0xb000
 b8c:	0034                	addi	a3,sp,8
 b8e:	213a0803          	lb	a6,531(s4)
 b92:	3b01                	addiw	s6,s6,-32
 b94:	0321390b          	.insn	4, 0x0321390b
 b98:	1349                	addi	t1,t1,-14
 b9a:	0000                	unimp
 b9c:	340c                	.insn	2, 0x340c
 b9e:	0300                	addi	s0,sp,384
 ba0:	3a0e                	.insn	2, 0x3a0e
 ba2:	0121                	addi	sp,sp,8
 ba4:	21390b3b          	.insn	4, 0x21390b3b
 ba8:	00134903          	lbu	s2,1(t1)
 bac:	0d00                	addi	s0,sp,656
 bae:	0111                	addi	sp,sp,4
 bb0:	0e25                	addi	t3,t3,9
 bb2:	1f030b13          	addi	s6,t1,496
 bb6:	01111f1b          	slliw	t5,sp,0x11
 bba:	0712                	slli	a4,a4,0x4
 bbc:	1710                	addi	a2,sp,928
 bbe:	0000                	unimp
 bc0:	240e                	.insn	2, 0x240e
 bc2:	0b00                	addi	s0,sp,400
 bc4:	030b3e0b          	.insn	4, 0x030b3e0b
 bc8:	0008                	.insn	2, 0x0008
 bca:	0f00                	addi	s0,sp,912
 bcc:	012e                	slli	sp,sp,0xb
 bce:	0e03193f 0b3b0b3a 	.insn	8, 0x0b3b0b3a0e03193f
 bd6:	0b39                	addi	s6,s6,14
 bd8:	13491927          	.insn	4, 0x13491927
 bdc:	0111                	addi	sp,sp,4
 bde:	0712                	slli	a4,a4,0x4
 be0:	1840                	addi	s0,sp,52
 be2:	197a                	slli	s2,s2,0x3e
 be4:	1301                	addi	t1,t1,-32
 be6:	0000                	unimp
 be8:	0510                	addi	a2,sp,640
 bea:	0300                	addi	s0,sp,384
 bec:	3a08                	.insn	2, 0x3a08
 bee:	390b3b0b          	.insn	4, 0x390b3b0b
 bf2:	0213490b          	.insn	4, 0x0213490b
 bf6:	11000017          	auipc	zero,0x11000
 bfa:	0034                	addi	a3,sp,8
 bfc:	0b3a0e03          	lb	t3,179(s4)
 c00:	0b390b3b          	.insn	4, 0x0b390b3b
 c04:	1349                	addi	t1,t1,-14
 c06:	0b1c                	addi	a5,sp,400
 c08:	0000                	unimp
 c0a:	0b12                	slli	s6,s6,0x4
 c0c:	5501                	li	a0,-32
 c0e:	00130117          	auipc	sp,0x130
 c12:	1300                	addi	s0,sp,416
 c14:	0111010b          	.insn	4, 0x0111010b
 c18:	0712                	slli	a4,a4,0x4
 c1a:	1301                	addi	t1,t1,-32
 c1c:	0000                	unimp
 c1e:	4814                	lw	a3,16(s0)
 c20:	7d00                	ld	s0,56(a0)
 c22:	7f01                	lui	t5,0xfffe0
 c24:	15000013          	li	zero,336
 c28:	1755010b          	.insn	4, 0x1755010b
 c2c:	0000                	unimp
 c2e:	2e16                	.insn	2, 0x2e16
 c30:	3f00                	.insn	2, 0x3f00
 c32:	3c19                	addiw	s8,s8,-26
 c34:	6e19                	lui	t3,0x6
 c36:	030e                	slli	t1,t1,0x3
 c38:	000e                	c.slli	zero,0x3
 c3a:	0000                	unimp
 c3c:	2401                	sext.w	s0,s0
 c3e:	0b00                	addi	s0,sp,400
 c40:	030b3e0b          	.insn	4, 0x030b3e0b
 c44:	000e                	c.slli	zero,0x3
 c46:	0200                	addi	s0,sp,256
 c48:	0034                	addi	a3,sp,8
 c4a:	213a0803          	lb	a6,531(s4)
 c4e:	3b01                	addiw	s6,s6,-32
 c50:	0321390b          	.insn	4, 0x0321390b
 c54:	1349                	addi	t1,t1,-14
 c56:	1702                	slli	a4,a4,0x20
 c58:	0000                	unimp
 c5a:	03003403          	ld	s0,48(zero) # 30 <_tbss_end+0x30>
 c5e:	3a0e                	.insn	2, 0x3a0e
 c60:	0121                	addi	sp,sp,8 # 130c16 <_tbss_end+0x130c16>
 c62:	21390b3b          	.insn	4, 0x21390b3b
 c66:	00134903          	lbu	s2,1(t1)
 c6a:	0400                	addi	s0,sp,512
 c6c:	000d                	c.nop	3
 c6e:	0b3a0e03          	lb	t3,179(s4)
 c72:	0b390b3b          	.insn	4, 0x0b390b3b
 c76:	1349                	addi	t1,t1,-14
 c78:	0b0d                	addi	s6,s6,3
 c7a:	00000b6b          	.insn	4, 0x0b6b
 c7e:	3405                	addiw	s0,s0,-31
 c80:	0300                	addi	s0,sp,384
 c82:	3a08                	.insn	2, 0x3a08
 c84:	0121                	addi	sp,sp,8
 c86:	0b390b3b          	.insn	4, 0x0b390b3b
 c8a:	1349                	addi	t1,t1,-14
 c8c:	0000                	unimp
 c8e:	1606                	slli	a2,a2,0x21
 c90:	0300                	addi	s0,sp,384
 c92:	3a0e                	.insn	2, 0x3a0e
 c94:	390b3b0b          	.insn	4, 0x390b3b0b
 c98:	0f21                	addi	t5,t5,8 # fffffffffffe0008 <__stack_pointer$+0xffffffff77fe0408>
 c9a:	1349                	addi	t1,t1,-14
 c9c:	0000                	unimp
 c9e:	0b011307          	.insn	4, 0x0b011307
 ca2:	3b0b3a0b          	.insn	4, 0x3b0b3a0b
 ca6:	0321390b          	.insn	4, 0x0321390b
 caa:	1301                	addi	t1,t1,-32
 cac:	0000                	unimp
 cae:	0d08                	addi	a0,sp,656
 cb0:	0300                	addi	s0,sp,384
 cb2:	3a08                	.insn	2, 0x3a08
 cb4:	390b3b0b          	.insn	4, 0x390b3b0b
 cb8:	0e21                	addi	t3,t3,8 # 6008 <_tbss_end+0x6008>
 cba:	1349                	addi	t1,t1,-14
 cbc:	0b0d                	addi	s6,s6,3
 cbe:	00000b6b          	.insn	4, 0x0b6b
 cc2:	1709                	addi	a4,a4,-30
 cc4:	0301                	addi	t1,t1,0
 cc6:	0b0e                	slli	s6,s6,0x3
 cc8:	3b0b3a0b          	.insn	4, 0x3b0b3a0b
 ccc:	0721390b          	.insn	4, 0x0721390b
 cd0:	1301                	addi	t1,t1,-32
 cd2:	0000                	unimp
 cd4:	0d0a                	slli	s10,s10,0x2
 cd6:	0300                	addi	s0,sp,384
 cd8:	3a08                	.insn	2, 0x3a08
 cda:	390b3b0b          	.insn	4, 0x390b3b0b
 cde:	0a21                	addi	s4,s4,8
 ce0:	1349                	addi	t1,t1,-14
 ce2:	0000                	unimp
 ce4:	03000d0b          	.insn	4, 0x03000d0b
 ce8:	3a0e                	.insn	2, 0x3a0e
 cea:	390b3b0b          	.insn	4, 0x390b3b0b
 cee:	0521                	addi	a0,a0,8
 cf0:	1349                	addi	t1,t1,-14
 cf2:	0000                	unimp
 cf4:	340c                	.insn	2, 0x340c
 cf6:	0300                	addi	s0,sp,384
 cf8:	3a0e                	.insn	2, 0x3a0e
 cfa:	0121                	addi	sp,sp,8
 cfc:	21390b3b          	.insn	4, 0x21390b3b
 d00:	02134903          	lbu	s2,33(t1)
 d04:	0d000017          	auipc	zero,0xd000
 d08:	1755010b          	.insn	4, 0x1755010b
 d0c:	1301                	addi	t1,t1,-32
 d0e:	0000                	unimp
 d10:	110e                	slli	sp,sp,0x23
 d12:	2501                	sext.w	a0,a0
 d14:	130e                	slli	t1,t1,0x23
 d16:	1b1f030b          	.insn	4, 0x1b1f030b
 d1a:	111f 1201 1007      	.insn	6, 0x10071201111f
 d20:	0f000017          	auipc	zero,0xf000
 d24:	0024                	addi	s1,sp,8
 d26:	0b3e0b0b          	.insn	4, 0x0b3e0b0b
 d2a:	00000803          	lb	a6,0(zero) # 0 <_tbss_end>
 d2e:	2e10                	.insn	2, 0x2e10
 d30:	3f01                	addiw	t5,t5,-32
 d32:	0319                	addi	t1,t1,6
 d34:	3a0e                	.insn	2, 0x3a0e
 d36:	390b3b0b          	.insn	4, 0x390b3b0b
 d3a:	4919270b          	.insn	4, 0x4919270b
 d3e:	12011113          	.insn	4, 0x12011113
 d42:	7a184007          	.insn	4, 0x7a184007
 d46:	0119                	addi	sp,sp,6
 d48:	11000013          	li	zero,272
 d4c:	0005                	c.nop	1
 d4e:	0b3a0803          	lb	a6,179(s4)
 d52:	0b390b3b          	.insn	4, 0x0b390b3b
 d56:	1349                	addi	t1,t1,-14
 d58:	1702                	slli	a4,a4,0x20
 d5a:	0000                	unimp
 d5c:	3412                	.insn	2, 0x3412
 d5e:	0300                	addi	s0,sp,384
 d60:	3a0e                	.insn	2, 0x3a0e
 d62:	390b3b0b          	.insn	4, 0x390b3b0b
 d66:	1c13490b          	.insn	4, 0x1c13490b
 d6a:	1300000b          	.insn	4, 0x1300000b
 d6e:	0000010b          	.insn	4, 0x010b
 d72:	0b14                	addi	a3,sp,400
 d74:	1101                	addi	sp,sp,-32
 d76:	1201                	addi	tp,tp,-32 # ffffffffffffffe0 <__stack_pointer$+0xffffffff780003e0>
 d78:	00000007          	.insn	4, 0x0007
 d7c:	2401                	sext.w	s0,s0
 d7e:	0b00                	addi	s0,sp,400
 d80:	030b3e0b          	.insn	4, 0x030b3e0b
 d84:	000e                	c.slli	zero,0x3
 d86:	0200                	addi	s0,sp,256
 d88:	0016                	c.slli	zero,0x5
 d8a:	213a0e03          	lb	t3,531(s4)
 d8e:	3b02                	.insn	2, 0x3b02
 d90:	490b390b          	.insn	4, 0x490b390b
 d94:	03000013          	li	zero,48
 d98:	0026                	c.slli	zero,0x9
 d9a:	1349                	addi	t1,t1,-14
 d9c:	0000                	unimp
 d9e:	1104                	addi	s1,sp,160
 da0:	2501                	sext.w	a0,a0
 da2:	130e                	slli	t1,t1,0x23
 da4:	1b1f030b          	.insn	4, 0x1b1f030b
 da8:	111f 1201 1007      	.insn	6, 0x10071201111f
 dae:	05000017          	auipc	zero,0x5000
 db2:	0024                	addi	s1,sp,8
 db4:	0b3e0b0b          	.insn	4, 0x0b3e0b0b
 db8:	00000803          	lb	a6,0(zero) # 0 <_tbss_end>
 dbc:	0106                	slli	sp,sp,0x1
 dbe:	4901                	li	s2,0
 dc0:	00130113          	addi	sp,t1,1
 dc4:	0700                	addi	s0,sp,896
 dc6:	0021                	c.nop	8
 dc8:	1349                	addi	t1,t1,-14
 dca:	00000b2f          	.insn	4, 0x0b2f
 dce:	3408                	.insn	2, 0x3408
 dd0:	0300                	addi	s0,sp,384
 dd2:	3a0e                	.insn	2, 0x3a0e
 dd4:	39053b0b          	.insn	4, 0x39053b0b
 dd8:	3f13490b          	.insn	4, 0x3f13490b
 ddc:	3c19                	addiw	s8,s8,-26
 dde:	0019                	c.nop	6
 de0:	0900                	addi	s0,sp,144
 de2:	012e                	slli	sp,sp,0xb
 de4:	0e03193f 053b0b3a 	.insn	8, 0x053b0b3a0e03193f
 dec:	0b39                	addi	s6,s6,14
 dee:	13491927          	.insn	4, 0x13491927
 df2:	0111                	addi	sp,sp,4
 df4:	0712                	slli	a4,a4,0x4
 df6:	1840                	addi	s0,sp,52
 df8:	197a                	slli	s2,s2,0x3e
 dfa:	0000                	unimp
 dfc:	050a                	slli	a0,a0,0x2
 dfe:	0300                	addi	s0,sp,384
 e00:	3a08                	.insn	2, 0x3a08
 e02:	39053b0b          	.insn	4, 0x39053b0b
 e06:	0213490b          	.insn	4, 0x0213490b
 e0a:	0b000017          	auipc	zero,0xb000
 e0e:	0034                	addi	a3,sp,8
 e10:	0b3a0803          	lb	a6,179(s4)
 e14:	0b39053b          	.insn	4, 0x0b39053b
 e18:	1349                	addi	t1,t1,-14
 e1a:	0000                	unimp
 e1c:	0b0c                	addi	a1,sp,400
 e1e:	5501                	li	a0,-32
 e20:	0d000017          	auipc	zero,0xd000
 e24:	0034                	addi	a3,sp,8
 e26:	0b3a0e03          	lb	t3,179(s4)
 e2a:	0b39053b          	.insn	4, 0x0b39053b
 e2e:	1349                	addi	t1,t1,-14
 e30:	1702                	slli	a4,a4,0x20
 e32:	0000                	unimp
 e34:	340e                	.insn	2, 0x340e
 e36:	0300                	addi	s0,sp,384
 e38:	3a08                	.insn	2, 0x3a08
 e3a:	39053b0b          	.insn	4, 0x39053b0b
 e3e:	0213490b          	.insn	4, 0x0213490b
 e42:	00000017          	auipc	zero,0x0
 e46:	2401                	sext.w	s0,s0
 e48:	0b00                	addi	s0,sp,400
 e4a:	030b3e0b          	.insn	4, 0x030b3e0b
 e4e:	000e                	c.slli	zero,0x3
 e50:	0200                	addi	s0,sp,256
 e52:	0026                	c.slli	zero,0x9
 e54:	1349                	addi	t1,t1,-14
 e56:	0000                	unimp
 e58:	25011103          	lh	sp,592(sp)
 e5c:	130e                	slli	t1,t1,0x23
 e5e:	1b1f030b          	.insn	4, 0x1b1f030b
 e62:	101f 0017 0400      	.insn	6, 0x04000017101f
 e68:	0024                	addi	s1,sp,8
 e6a:	0b3e0b0b          	.insn	4, 0x0b3e0b0b
 e6e:	00000803          	lb	a6,0(zero) # 0 <_tbss_end>
 e72:	1605                	addi	a2,a2,-31
 e74:	0300                	addi	s0,sp,384
 e76:	3a0e                	.insn	2, 0x3a0e
 e78:	390b3b0b          	.insn	4, 0x390b3b0b
 e7c:	0013490b          	.insn	4, 0x0013490b
 e80:	0600                	addi	s0,sp,768
 e82:	0101                	addi	sp,sp,0
 e84:	1349                	addi	t1,t1,-14
 e86:	1301                	addi	t1,t1,-32
 e88:	0000                	unimp
 e8a:	49002107          	.insn	4, 0x49002107
 e8e:	000b2f13          	slti	t5,s6,0
 e92:	0800                	addi	s0,sp,16
 e94:	0034                	addi	a3,sp,8
 e96:	0b3a0e03          	lb	t3,179(s4)
 e9a:	0b39053b          	.insn	4, 0x0b39053b
 e9e:	1349                	addi	t1,t1,-14
 ea0:	193c193f 34090000 	.insn	8, 0x34090000193c193f
 ea8:	4700                	lw	s0,8(a4)
 eaa:	3b0b3a13          	sltiu	s4,s6,944
 eae:	3905                	addiw	s2,s2,-31 # fffffffffffe2fe1 <__stack_pointer$+0xffffffff77fe33e1>
 eb0:	0018020b          	.insn	4, 0x0018020b
	...

Disassembly of section .debug_loclists:

0000000000000000 <.debug_loclists>:
       0:	0672                	slli	a2,a2,0x1c
       2:	0000                	unimp
       4:	0005                	c.nop	1
       6:	0008                	.insn	2, 0x0008
       8:	0000                	unimp
       a:	0000                	unimp
       c:	0004                	.insn	2, 0x0004
       e:	017a                	slli	sp,sp,0x1e
      10:	045a                	slli	s0,s0,0x16
      12:	7e7a                	ld	t3,440(sp)
      14:	a306                	.insn	2, 0xa306
      16:	2e0aa503          	lw	a0,736(s5)
      1a:	049f d07e 0101      	.insn	6, 0x0101d07e049f
      20:	045a                	slli	s0,s0,0x16
      22:	01d0                	addi	a2,sp,196
      24:	01d6                	slli	gp,gp,0x15
      26:	a306                	.insn	2, 0xa306
      28:	2e0aa503          	lw	a0,736(s5)
      2c:	049f 01d6 02b4      	.insn	6, 0x02b401d6049f
      32:	5a01                	li	s4,-32
      34:	b404                	.insn	2, 0xb404
      36:	ca02                	sw	zero,20(sp)
      38:	0602                	c.slli64	a2
      3a:	0aa503a3          	sb	a0,167(a0)
      3e:	9f2e                	add	t5,t5,a1
      40:	ca04                	sw	s1,16(a2)
      42:	ce02                	sw	zero,28(sp)
      44:	0102                	c.slli64	sp
      46:	045a                	slli	s0,s0,0x16
      48:	02ce                	slli	t0,t0,0x13
      4a:	02dc                	addi	a5,sp,324
      4c:	a306                	.insn	2, 0xa306
      4e:	2e0aa503          	lw	a0,736(s5)
      52:	049f 02dc 02f0      	.insn	6, 0x02f002dc049f
      58:	5a01                	li	s4,-32
      5a:	f004                	sd	s1,32(s0)
      5c:	9c02                	jalr	s8
      5e:	0606                	slli	a2,a2,0x1
      60:	0aa503a3          	sb	a0,167(a0)
      64:	9f2e                	add	t5,t5,a1
      66:	9c04                	.insn	2, 0x9c04
      68:	a806                	.insn	2, 0xa806
      6a:	0106                	slli	sp,sp,0x1
      6c:	045a                	slli	s0,s0,0x16
      6e:	06a8                	addi	a0,sp,840
      70:	06ba                	slli	a3,a3,0xe
      72:	a306                	.insn	2, 0xa306
      74:	2e0aa503          	lw	a0,736(s5)
      78:	009f 0004 012a      	.insn	6, 0x012a0004009f
      7e:	ba2a045b          	.insn	4, 0xba2a045b
      82:	0606                	slli	a2,a2,0x1
      84:	0ba503a3          	sb	s10,167(a0)
      88:	9f2e                	add	t5,t5,a1
      8a:	0400                	addi	s0,sp,512
      8c:	d000                	sw	s0,32(s0)
      8e:	0201                	addi	tp,tp,0 # 0 <_tbss_end>
      90:	9f30                	.insn	2, 0x9f30
      92:	d604                	sw	s1,40(a2)
      94:	b401                	j	fffffffffffffa94 <__stack_pointer$+0xffffffff77fffe94>
      96:	0202                	c.slli64	tp
      98:	9f30                	.insn	2, 0x9f30
      9a:	dc04                	sw	s1,56(s0)
      9c:	c202                	sw	zero,4(sp)
      9e:	0204                	addi	s1,sp,256
      a0:	9f30                	.insn	2, 0x9f30
      a2:	c604                	sw	s1,8(a2)
      a4:	e404                	sd	s1,8(s0)
      a6:	0204                	addi	s1,sp,256
      a8:	9f30                	.insn	2, 0x9f30
      aa:	c404                	sw	s1,8(s0)
      ac:	ae05                	j	3dc <_tbss_end+0x3dc>
      ae:	0206                	slli	tp,tp,0x1
      b0:	9f30                	.insn	2, 0x9f30
      b2:	0400                	addi	s0,sp,512
      b4:	d028                	sw	a0,96(s0)
      b6:	0101                	addi	sp,sp,0
      b8:	0458                	addi	a4,sp,516
      ba:	01d6                	slli	gp,gp,0x15
      bc:	02b4                	addi	a3,sp,328
      be:	5801                	li	a6,-32
      c0:	ca04                	sw	s1,16(a2)
      c2:	8202                	jr	tp
      c4:	04580103          	lb	sp,69(a6)
      c8:	0392                	slli	t2,t2,0x4
      ca:	03e8                	addi	a0,sp,460
      cc:	5801                	li	a6,-32
      ce:	ea04                	sd	s1,16(a2)
      d0:	0104c403          	lbu	s0,16(s1)
      d4:	0458                	addi	a4,sp,516
      d6:	04c6                	slli	s1,s1,0x11
      d8:	04ee                	slli	s1,s1,0x1b
      da:	5801                	li	a6,-32
      dc:	c404                	sw	s1,8(s0)
      de:	d605                	beqz	a2,6 <_tbss_end+0x6>
      e0:	0105                	addi	sp,sp,1
      e2:	0458                	addi	a4,sp,516
      e4:	0686                	slli	a3,a3,0x1
      e6:	068e                	slli	a3,a3,0x3
      e8:	5801                	li	a6,-32
      ea:	9c04                	.insn	2, 0x9c04
      ec:	ac06                	.insn	2, 0xac06
      ee:	0106                	slli	sp,sp,0x1
      f0:	0458                	addi	a4,sp,516
      f2:	06ae                	slli	a3,a3,0xb
      f4:	06b0                	addi	a2,sp,840
      f6:	5801                	li	a6,-32
      f8:	b204                	.insn	2, 0xb204
      fa:	b606                	.insn	2, 0xb606
      fc:	0106                	slli	sp,sp,0x1
      fe:	0058                	addi	a4,sp,4
     100:	2004                	.insn	2, 0x2004
     102:	014c                	addi	a1,sp,132
     104:	0462                	slli	s0,s0,0x18
     106:	724c                	ld	a1,160(a2)
     108:	7a0a                	ld	s4,160(sp)
     10a:	0800                	addi	s0,sp,16
     10c:	2534                	.insn	2, 0x2534
     10e:	ff0a                	sd	sp,440(sp)
     110:	049f1a07          	.insn	4, 0x049f1a07
     114:	c672                	sw	t3,12(sp)
     116:	0101                	addi	sp,sp,0
     118:	0462                	slli	s0,s0,0x18
     11a:	01c6                	slli	gp,gp,0x11
     11c:	01c8                	addi	a0,sp,196
     11e:	7a0a                	ld	s4,160(sp)
     120:	0800                	addi	s0,sp,16
     122:	2534                	.insn	2, 0x2534
     124:	ff0a                	sd	sp,440(sp)
     126:	049f1a07          	.insn	4, 0x049f1a07
     12a:	01c8                	addi	a0,sp,196
     12c:	01d4                	addi	a3,sp,196
     12e:	6201                	.insn	2, 0x6201
     130:	d604                	sw	s1,40(a2)
     132:	b401                	j	fffffffffffffb32 <__stack_pointer$+0xffffffff77ffff32>
     134:	0102                	c.slli64	sp
     136:	0462                	slli	s0,s0,0x18
     138:	02ca                	slli	t0,t0,0x12
     13a:	02da                	slli	t0,t0,0x16
     13c:	6201                	.insn	2, 0x6201
     13e:	dc04                	sw	s1,56(s0)
     140:	ea02                	sd	zero,272(sp)
     142:	0102                	c.slli64	sp
     144:	0462                	slli	s0,s0,0x18
     146:	02ea                	slli	t0,t0,0x1a
     148:	02ec                	addi	a1,sp,332
     14a:	9f7f7e03          	.insn	4, 0x9f7f7e03
     14e:	ec04                	sd	s1,24(s0)
     150:	8202                	jr	tp
     152:	04620103          	lb	sp,70(tp) # 46 <_tbss_end+0x46>
     156:	0392                	slli	t2,t2,0x4
     158:	03e6                	slli	t2,t2,0x19
     15a:	6201                	.insn	2, 0x6201
     15c:	ea04                	sd	s1,16(a2)
     15e:	0103f603          	.insn	4, 0x0103f603
     162:	0462                	slli	s0,s0,0x18
     164:	03f8                	addi	a4,sp,460
     166:	04c2                	slli	s1,s1,0x10
     168:	6201                	.insn	2, 0x6201
     16a:	c604                	sw	s1,8(a2)
     16c:	f404                	sd	s1,40(s0)
     16e:	0104                	addi	s1,sp,128
     170:	0462                	slli	s0,s0,0x18
     172:	05c4                	addi	s1,sp,708
     174:	05d6                	slli	a1,a1,0x15
     176:	6201                	.insn	2, 0x6201
     178:	8604                	.insn	2, 0x8604
     17a:	8c06                	mv	s8,ra
     17c:	0106                	slli	sp,sp,0x1
     17e:	0462                	slli	s0,s0,0x18
     180:	069c                	addi	a5,sp,832
     182:	069e                	slli	a3,a3,0x7
     184:	6201                	.insn	2, 0x6201
     186:	9e04                	.insn	2, 0x9e04
     188:	a006                	.insn	2, 0xa006
     18a:	0706                	slli	a4,a4,0x1
     18c:	007e                	c.slli	zero,0x1f
     18e:	ff0a                	sd	sp,440(sp)
     190:	049f1a07          	.insn	4, 0x049f1a07
     194:	06a0                	addi	s0,sp,840
     196:	06a4                	addi	s1,sp,840
     198:	6201                	.insn	2, 0x6201
     19a:	a404                	.insn	2, 0xa404
     19c:	a806                	.insn	2, 0xa806
     19e:	0a06                	slli	s4,s4,0x1
     1a0:	007a                	c.slli	zero,0x1e
     1a2:	3408                	.insn	2, 0x3408
     1a4:	0a25                	addi	s4,s4,9
     1a6:	07ff 9f1a a804 aa06 	.insn	10, 0x0106aa06a8049f1a07ff
     1ae:	0106 
     1b0:	0462                	slli	s0,s0,0x18
     1b2:	06ae                	slli	a3,a3,0xb
     1b4:	06b6                	slli	a3,a3,0xd
     1b6:	6201                	.insn	2, 0x6201
     1b8:	0400                	addi	s0,sp,512
     1ba:	4c12                	lw	s8,4(sp)
     1bc:	6001                	.insn	2, 0x6001
     1be:	7204                	ld	s1,32(a2)
     1c0:	01c4                	addi	s1,sp,196
     1c2:	6001                	.insn	2, 0x6001
     1c4:	c804                	sw	s1,16(s0)
     1c6:	8801                	andi	s0,s0,0
     1c8:	0102                	c.slli64	sp
     1ca:	0460                	addi	s0,sp,524
     1cc:	0288                	addi	a0,sp,320
     1ce:	028c                	addi	a1,sp,320
     1d0:	5e01                	li	t3,-32
     1d2:	8c04                	.insn	2, 0x8c04
     1d4:	b402                	.insn	2, 0xb402
     1d6:	0102                	c.slli64	sp
     1d8:	0460                	addi	s0,sp,524
     1da:	02ca                	slli	t0,t0,0x12
     1dc:	0382                	c.slli64	t2
     1de:	6001                	.insn	2, 0x6001
     1e0:	9204                	.insn	2, 0x9204
     1e2:	0103e403          	lwu	s0,16(t2)
     1e6:	0460                	addi	s0,sp,524
     1e8:	03ea                	slli	t2,t2,0x1a
     1ea:	04aa                	slli	s1,s1,0xa
     1ec:	6001                	.insn	2, 0x6001
     1ee:	aa04                	.insn	2, 0xaa04
     1f0:	ae04                	.insn	2, 0xae04
     1f2:	0104                	addi	s1,sp,128
     1f4:	045e                	slli	s0,s0,0x17
     1f6:	04ae                	slli	s1,s1,0xb
     1f8:	04f4                	addi	a3,sp,588
     1fa:	6001                	.insn	2, 0x6001
     1fc:	c404                	sw	s1,8(s0)
     1fe:	d605                	beqz	a2,126 <_tbss_end+0x126>
     200:	0105                	addi	sp,sp,1
     202:	0460                	addi	s0,sp,524
     204:	0686                	slli	a3,a3,0x1
     206:	068e                	slli	a3,a3,0x3
     208:	6001                	.insn	2, 0x6001
     20a:	9c04                	.insn	2, 0x9c04
     20c:	a406                	.insn	2, 0xa406
     20e:	0106                	slli	sp,sp,0x1
     210:	0460                	addi	s0,sp,524
     212:	06a8                	addi	a0,sp,840
     214:	06b6                	slli	a3,a3,0xd
     216:	6001                	.insn	2, 0x6001
     218:	0400                	addi	s0,sp,512
     21a:	3c30                	.insn	2, 0x3c30
     21c:	5b01                	li	s6,-32
     21e:	ec04                	sd	s1,24(s0)
     220:	c202                	sw	zero,4(sp)
     222:	0104                	addi	s1,sp,128
     224:	04c6045b          	.insn	4, 0x04c6045b
     228:	04f4                	addi	a3,sp,588
     22a:	5b01                	li	s6,-32
     22c:	c404                	sw	s1,8(s0)
     22e:	db05                	beqz	a4,15e <_tbss_end+0x15e>
     230:	0105                	addi	sp,sp,1
     232:	0686045b          	.insn	4, 0x0686045b
     236:	068e                	slli	a3,a3,0x3
     238:	5b01                	li	s6,-32
     23a:	a804                	.insn	2, 0xa804
     23c:	b206                	.insn	2, 0xb206
     23e:	0106                	slli	sp,sp,0x1
     240:	3004005b          	.insn	4, 0x3004005b
     244:	02b4                	addi	a3,sp,328
     246:	5c01                	li	s8,-32
     248:	ca04                	sw	s1,16(a2)
     24a:	f402                	sd	zero,40(sp)
     24c:	0104                	addi	s1,sp,128
     24e:	045c                	addi	a5,sp,516
     250:	05c4                	addi	s1,sp,708
     252:	5c0105db          	.insn	4, 0x5c0105db
     256:	8604                	.insn	2, 0x8604
     258:	8e06                	mv	t3,ra
     25a:	0106                	slli	sp,sp,0x1
     25c:	045c                	addi	a5,sp,516
     25e:	069c                	addi	a5,sp,832
     260:	06b6                	slli	a3,a3,0xd
     262:	5c01                	li	s8,-32
     264:	0400                	addi	s0,sp,512
     266:	4c30                	lw	a2,88(s0)
     268:	5f01                	li	t5,-32
     26a:	7204                	ld	s1,32(a2)
     26c:	017c                	addi	a5,sp,140
     26e:	045f aa7e 0101      	.insn	6, 0x0101aa7e045f
     274:	045f 01aa 01b0      	.insn	6, 0x01b001aa045f
     27a:	5e01                	li	t3,-32
     27c:	b004                	.insn	2, 0xb004
     27e:	c401                	beqz	s0,286 <_tbss_end+0x286>
     280:	0101                	addi	sp,sp,0
     282:	045f 01c8 01d0      	.insn	6, 0x01d001c8045f
     288:	5f01                	li	t5,-32
     28a:	d604                	sw	s1,40(a2)
     28c:	8a01                	andi	a2,a2,0
     28e:	0102                	c.slli64	sp
     290:	045f 028c 02a2      	.insn	6, 0x02a2028c045f
     296:	5f01                	li	t5,-32
     298:	ca04                	sw	s1,16(a2)
     29a:	d402                	sw	zero,40(sp)
     29c:	0102                	c.slli64	sp
     29e:	045f 02dc 02e6      	.insn	6, 0x02e602dc045f
     2a4:	5f01                	li	t5,-32
     2a6:	ec04                	sd	s1,24(s0)
     2a8:	8202                	jr	tp
     2aa:	045f0103          	lb	sp,69(t5)
     2ae:	0392                	slli	t2,t2,0x4
     2b0:	03b8                	addi	a4,sp,456
     2b2:	5f01                	li	t5,-32
     2b4:	b804                	.insn	2, 0xb804
     2b6:	0103be03          	ld	t3,16(t2)
     2ba:	045e                	slli	s0,s0,0x17
     2bc:	03be                	slli	t2,t2,0xf
     2be:	03e4                	addi	s1,sp,460
     2c0:	5f01                	li	t5,-32
     2c2:	ea04                	sd	s1,16(a2)
     2c4:	0104ac03          	lw	s8,16(s1)
     2c8:	045f 04ae 04c2      	.insn	6, 0x04c204ae045f
     2ce:	5f01                	li	t5,-32
     2d0:	c604                	sw	s1,8(a2)
     2d2:	d604                	sw	s1,40(a2)
     2d4:	0104                	addi	s1,sp,128
     2d6:	045f 04e4 04ec      	.insn	6, 0x04ec04e4045f
     2dc:	5f01                	li	t5,-32
     2de:	c404                	sw	s1,8(s0)
     2e0:	d605                	beqz	a2,208 <_tbss_end+0x208>
     2e2:	0105                	addi	sp,sp,1
     2e4:	045f 0686 068a      	.insn	6, 0x068a0686045f
     2ea:	5f01                	li	t5,-32
     2ec:	9c04                	.insn	2, 0x9c04
     2ee:	a406                	.insn	2, 0xa406
     2f0:	0106                	slli	sp,sp,0x1
     2f2:	045f 06a8 06aa      	.insn	6, 0x06aa06a8045f
     2f8:	5f01                	li	t5,-32
     2fa:	ae04                	.insn	2, 0xae04
     2fc:	b406                	.insn	2, 0xb406
     2fe:	0106                	slli	sp,sp,0x1
     300:	005f 3804 017a      	.insn	6, 0x017a3804005f
     306:	0458                	addi	a4,sp,516
     308:	d07e                	sw	t6,32(sp)
     30a:	0101                	addi	sp,sp,0
     30c:	0458                	addi	a4,sp,516
     30e:	01d6                	slli	gp,gp,0x15
     310:	02ce                	slli	t0,t0,0x13
     312:	5801                	li	a6,-32
     314:	dc04                	sw	s1,56(s0)
     316:	ec02                	sd	zero,24(sp)
     318:	0102                	c.slli64	sp
     31a:	0458                	addi	a4,sp,516
     31c:	02f4                	addi	a3,sp,332
     31e:	03ce                	slli	t2,t2,0x13
     320:	5801                	li	a6,-32
     322:	d004                	sw	s1,32(s0)
     324:	0104ae03          	lw	t3,16(s1)
     328:	04ce045b          	.insn	4, 0x04ce045b
     32c:	04e4                	addi	s1,sp,588
     32e:	5801                	li	a6,-32
     330:	a004                	.insn	2, 0xa004
     332:	b205                	j	fffffffffffffc52 <__stack_pointer$+0xffffffff78000052>
     334:	0105                	addi	sp,sp,1
     336:	0458                	addi	a4,sp,516
     338:	05c8                	addi	a0,sp,708
     33a:	05d4                	addi	a3,sp,708
     33c:	5801                	li	a6,-32
     33e:	d404                	sw	s1,40(s0)
     340:	d605                	beqz	a2,268 <_tbss_end+0x268>
     342:	0105                	addi	sp,sp,1
     344:	05d6045b          	.insn	4, 0x05d6045b
     348:	06a8                	addi	a0,sp,840
     34a:	5801                	li	a6,-32
     34c:	a804                	.insn	2, 0xa804
     34e:	aa06                	.insn	2, 0xaa06
     350:	0106                	slli	sp,sp,0x1
     352:	4004005b          	.insn	4, 0x4004005b
     356:	017a                	slli	sp,sp,0x1e
     358:	0462                	slli	s0,s0,0x18
     35a:	b07e                	.insn	2, 0xb07e
     35c:	0101                	addi	sp,sp,0
     35e:	0462                	slli	s0,s0,0x18
     360:	01b2                	slli	gp,gp,0xc
     362:	01d0                	addi	a2,sp,196
     364:	5c01                	li	s8,-32
     366:	d604                	sw	s1,40(a2)
     368:	8c01                	sub	s0,s0,s0
     36a:	0102                	c.slli64	sp
     36c:	045c                	addi	a5,sp,516
     36e:	029a                	slli	t0,t0,0x6
     370:	02b2                	slli	t0,t0,0xc
     372:	3002                	.insn	2, 0x3002
     374:	049f 02b2 02b4      	.insn	6, 0x02b402b2049f
     37a:	3102                	.insn	2, 0x3102
     37c:	049f 02b4 02ca      	.insn	6, 0x02ca02b4049f
     382:	6201                	.insn	2, 0x6201
     384:	ca04                	sw	s1,16(a2)
     386:	dc02                	sw	zero,56(sp)
     388:	0402                	c.slli64	s0
     38a:	ff0a                	sd	sp,440(sp)
     38c:	dc049f07          	.insn	4, 0xdc049f07
     390:	ec02                	sd	zero,24(sp)
     392:	0102                	c.slli64	sp
     394:	045e                	slli	s0,s0,0x17
     396:	02f4                	addi	a3,sp,332
     398:	03ce                	slli	t2,t2,0x13
     39a:	6201                	.insn	2, 0x6201
     39c:	d004                	sw	s1,32(s0)
     39e:	0104ae03          	lw	t3,16(s1)
     3a2:	045c                	addi	a5,sp,516
     3a4:	04bc                	addi	a5,sp,584
     3a6:	04c2                	slli	s1,s1,0x10
     3a8:	3002                	.insn	2, 0x3002
     3aa:	049f 04c6 04e4      	.insn	6, 0x04e404c6049f
     3b0:	3002                	.insn	2, 0x3002
     3b2:	049f 04e4 04f4      	.insn	6, 0x04f404e4049f
     3b8:	0a04                	addi	s1,sp,272
     3ba:	07ff 049f 04fe 05be 	.insn	10, 0x620105be04fe049f07ff
     3c2:	6201 
     3c4:	c404                	sw	s1,8(s0)
     3c6:	8205                	srli	a2,a2,0x1
     3c8:	0106                	slli	sp,sp,0x1
     3ca:	0462                	slli	s0,s0,0x18
     3cc:	0682                	c.slli64	a3
     3ce:	0686                	slli	a3,a3,0x1
     3d0:	3002                	.insn	2, 0x3002
     3d2:	049f 0686 068c      	.insn	6, 0x068c0686049f
     3d8:	6201                	.insn	2, 0x6201
     3da:	8e04                	.insn	2, 0x8e04
     3dc:	9c06                	add	s8,s8,ra
     3de:	0106                	slli	sp,sp,0x1
     3e0:	0462                	slli	s0,s0,0x18
     3e2:	069c                	addi	a5,sp,832
     3e4:	06a0                	addi	s0,sp,840
     3e6:	5c01                	li	s8,-32
     3e8:	a004                	.insn	2, 0xa004
     3ea:	a406                	.insn	2, 0xa406
     3ec:	0106                	slli	sp,sp,0x1
     3ee:	045e                	slli	s0,s0,0x17
     3f0:	06a8                	addi	a0,sp,840
     3f2:	06aa                	slli	a3,a3,0xa
     3f4:	5c01                	li	s8,-32
     3f6:	ae04                	.insn	2, 0xae04
     3f8:	b606                	.insn	2, 0xb606
     3fa:	0406                	slli	s0,s0,0x1
     3fc:	ff0a                	sd	sp,440(sp)
     3fe:	b6049f07          	.insn	4, 0xb6049f07
     402:	ba06                	.insn	2, 0xba06
     404:	0106                	slli	sp,sp,0x1
     406:	0062                	c.slli	zero,0x18
     408:	4c04                	lw	s1,24(s0)
     40a:	0154                	addi	a3,sp,132
     40c:	045f 5654 7f0e      	.insn	6, 0x7f0e5654045f
     412:	1100                	addi	s0,sp,160
     414:	ffff                	.insn	2, 0xffff
     416:	ffff                	.insn	2, 0xffff
     418:	ffff                	.insn	2, 0xffff
     41a:	1a7fbfff 6856049f 	.insn	16, 0xffff102531007f156856049f1a7fbfff
     422:	31007f15 ffff1025 
     42a:	ffff                	.insn	2, 0xffff
     42c:	ffff                	.insn	2, 0xffff
     42e:	1a7fdfff 1a31007f 	.insn	20, 0xff102531007f136c68049f211a31007f1a7fdfff
     436:	68049f21 007f136c 
     43e:	ff102531 
     442:	ffff                	.insn	2, 0xffff
     444:	ffff                	.insn	2, 0xffff
     446:	ffff                	.insn	2, 0xffff
     448:	7fdf 7d1a 2100      	.insn	6, 0x21007d1a7fdf
     44e:	049f 6e6c 7f11      	.insn	6, 0x7f116e6c049f
     454:	1000                	addi	s0,sp,32
     456:	ffff                	.insn	2, 0xffff
     458:	ffff                	.insn	2, 0xffff
     45a:	ffff                	.insn	2, 0xffff
     45c:	1a7fdfff 9f21007d 	.insn	20, 0x01c801c4045f0101b001ae049f21007d1a7fdfff
     464:	b001ae04 045f0101 
     46c:	01c801c4 
     470:	5f01                	li	t5,-32
     472:	a204                	.insn	2, 0xa204
     474:	ca02                	sw	zero,20(sp)
     476:	0102                	c.slli64	sp
     478:	045f 02dc 02e6      	.insn	6, 0x02e602dc045f
     47e:	8008                	.insn	2, 0x8008
     480:	7f00                	ld	s0,56(a4)
     482:	2200                	.insn	2, 0x2200
     484:	2531                	addiw	a0,a0,12
     486:	049f 02e6 02e8      	.insn	6, 0x02e802e6049f
     48c:	7f05                	lui	t5,0xfffe1
     48e:	3100                	.insn	2, 0x3100
     490:	9f25                	addw	a4,a4,s1
     492:	8204                	.insn	2, 0x8204
     494:	01039003          	lh	zero,16(t2)
     498:	045f 0390 0392      	.insn	6, 0x03920390045f
     49e:	5901                	li	s2,-32
     4a0:	bc04                	.insn	2, 0xbc04
     4a2:	0103be03          	ld	t3,16(t2)
     4a6:	045f 03e4 03ea      	.insn	6, 0x03ea03e4045f
     4ac:	5f01                	li	t5,-32
     4ae:	c004                	sw	s1,0(s0)
     4b0:	c204                	sw	s1,0(a2)
     4b2:	0104                	addi	s1,sp,128
     4b4:	045f 04ce 04e4      	.insn	6, 0x04e404ce045f
     4ba:	5e01                	li	t3,-32
     4bc:	f404                	sd	s1,40(s0)
     4be:	fc04                	sd	s1,56(s0)
     4c0:	0104                	addi	s1,sp,128
     4c2:	045f 04fc 058e      	.insn	6, 0x058e04fc045f
     4c8:	7f0e                	ld	t5,224(sp)
     4ca:	1100                	addi	s0,sp,160
     4cc:	ffff                	.insn	2, 0xffff
     4ce:	ffff                	.insn	2, 0xffff
     4d0:	ffff                	.insn	2, 0xffff
     4d2:	1a7fbfff 058e049f 	.insn	16, 0xb405a0045f01059c058e049f1a7fbfff
     4da:	5f01059c b405a004 
     4e2:	0105                	addi	sp,sp,1
     4e4:	045f 05c8 05fc      	.insn	6, 0x05fc05c8045f
     4ea:	5901                	li	s2,-32
     4ec:	8204                	.insn	2, 0x8204
     4ee:	8606                	mv	a2,ra
     4f0:	0106                	slli	sp,sp,0x1
     4f2:	045f 0686 069a      	.insn	6, 0x069a0686045f
     4f8:	5901                	li	s2,-32
     4fa:	9a04                	.insn	2, 0x9a04
     4fc:	9c06                	add	s8,s8,ra
     4fe:	0106                	slli	sp,sp,0x1
     500:	045f 06a0 06a4      	.insn	6, 0x06a406a0045f
     506:	8008                	.insn	2, 0x8008
     508:	7f00                	ld	s0,56(a4)
     50a:	2200                	.insn	2, 0x2200
     50c:	2531                	addiw	a0,a0,12
     50e:	049f 06b6 06b8      	.insn	6, 0x06b806b6049f
     514:	7f0e                	ld	t5,224(sp)
     516:	1100                	addi	s0,sp,160
     518:	ffff                	.insn	2, 0xffff
     51a:	ffff                	.insn	2, 0xffff
     51c:	ffff                	.insn	2, 0xffff
     51e:	1a7fbfff ba04009f 	.insn	16, 0x007a007f0805c005ba04009f1a7fbfff
     526:	0805c005 007a007f 
     52e:	a921                	j	946 <_tbss_end+0x946>
     530:	9f2e                	add	t5,t5,a1
     532:	c004                	sw	s1,0(s0)
     534:	c405                	beqz	s0,55c <_tbss_end+0x55c>
     536:	0105                	addi	sp,sp,1
     538:	005a                	c.slli	zero,0x16
     53a:	3c04                	.insn	2, 0x3c04
     53c:	0148                	addi	a0,sp,132
     53e:	045d                	addi	s0,s0,23
     540:	4c48                	lw	a0,28(s0)
     542:	9f7f7d03          	.insn	4, 0x9f7f7d03
     546:	7204                	ld	s1,32(a2)
     548:	037a                	slli	t1,t1,0x1e
     54a:	7f7d                	lui	t5,0xfffff
     54c:	049f 8c7e 0101      	.insn	6, 0x01018c7e049f
     552:	045d                	addi	s0,s0,23
     554:	018c                	addi	a1,sp,192
     556:	01b0                	addi	a2,sp,200
     558:	5b01                	li	s6,-32
     55a:	b004                	.insn	2, 0xb004
     55c:	b201                	j	fffffffffffffe5c <__stack_pointer$+0xffffffff7800025c>
     55e:	0101                	addi	sp,sp,0
     560:	045d                	addi	s0,s0,23
     562:	01b2                	slli	gp,gp,0xc
     564:	01be                	slli	gp,gp,0xf
     566:	7d04                	ld	s1,56(a0)
     568:	1f00                	addi	s0,sp,944
     56a:	049f 01be 01c0      	.insn	6, 0x01c001be049f
     570:	7b04                	ld	s1,48(a4)
     572:	1f00                	addi	s0,sp,944
     574:	049f 01c0 01d0      	.insn	6, 0x01d001c0049f
     57a:	5d01                	li	s10,-32
     57c:	d604                	sw	s1,40(a2)
     57e:	e601                	bnez	a2,586 <_tbss_end+0x586>
     580:	0401                	addi	s0,s0,0
     582:	007d                	c.nop	31
     584:	9f1f e604 ea01      	.insn	6, 0xea01e6049f1f
     58a:	0401                	addi	s0,s0,0
     58c:	9f1f007b          	.insn	4, 0x9f1f007b
     590:	ea04                	sd	s1,16(a2)
     592:	9401                	srai	s0,s0,0x20
     594:	0102                	c.slli64	sp
     596:	045d                	addi	s0,s0,23
     598:	0294                	addi	a3,sp,320
     59a:	02b4                	addi	a3,sp,328
     59c:	5b01                	li	s6,-32
     59e:	ca04                	sw	s1,16(a2)
     5a0:	ce02                	sw	zero,28(sp)
     5a2:	0102                	c.slli64	sp
     5a4:	02dc045b          	.insn	4, 0x02dc045b
     5a8:	02ec                	addi	a1,sp,332
     5aa:	5b01                	li	s6,-32
     5ac:	9c04                	.insn	2, 0x9c04
     5ae:	a006                	.insn	2, 0xa006
     5b0:	0406                	slli	s0,s0,0x1
     5b2:	007d                	c.nop	31
     5b4:	9f1f a004 a406      	.insn	6, 0xa406a0049f1f
     5ba:	0106                	slli	sp,sp,0x1
     5bc:	f004005b          	.insn	4, 0xf004005b
     5c0:	fc02                	sd	zero,56(sp)
     5c2:	0102                	c.slli64	sp
     5c4:	045d                	addi	s0,s0,23
     5c6:	02fc                	addi	a5,sp,332
     5c8:	0382                	c.slli64	t2
     5ca:	9f7f7d03          	.insn	4, 0x9f7f7d03
     5ce:	9204                	.insn	2, 0x9204
     5d0:	03039a03          	lh	s4,48(t2)
     5d4:	7f7d                	lui	t5,0xfffff
     5d6:	049f 039a 03be      	.insn	6, 0x03be039a049f
     5dc:	5a01                	li	s4,-32
     5de:	be04                	.insn	2, 0xbe04
     5e0:	0103d003          	lhu	zero,16(t2)
     5e4:	045d                	addi	s0,s0,23
     5e6:	03d0                	addi	a2,sp,452
     5e8:	03dc                	addi	a5,sp,452
     5ea:	7d04                	ld	s1,56(a0)
     5ec:	1f00                	addi	s0,sp,944
     5ee:	049f 03dc 03de      	.insn	6, 0x03de03dc049f
     5f4:	7a04                	ld	s1,48(a2)
     5f6:	1f00                	addi	s0,sp,944
     5f8:	049f 03de 03f2      	.insn	6, 0x03f203de049f
     5fe:	5d01                	li	s10,-32
     600:	f804                	sd	s1,48(s0)
     602:	04048803          	lb	a6,64(s1)
     606:	007d                	c.nop	31
     608:	9f1f 8804 8c04      	.insn	6, 0x8c0488049f1f
     60e:	0404                	addi	s1,sp,512
     610:	007a                	c.slli	zero,0x1e
     612:	9f1f 8c04 c204      	.insn	6, 0xc2048c049f1f
     618:	0104                	addi	s1,sp,128
     61a:	045d                	addi	s0,s0,23
     61c:	04c6                	slli	s1,s1,0x11
     61e:	04d2                	slli	s1,s1,0x14
     620:	5d01                	li	s10,-32
     622:	d204                	sw	s1,32(a2)
     624:	e404                	sd	s1,8(s0)
     626:	0104                	addi	s1,sp,128
     628:	045a                	slli	s0,s0,0x16
     62a:	04e4                	addi	s1,sp,588
     62c:	04f4                	addi	a3,sp,588
     62e:	5d01                	li	s10,-32
     630:	c404                	sw	s1,8(s0)
     632:	d605                	beqz	a2,55a <_tbss_end+0x55a>
     634:	0105                	addi	sp,sp,1
     636:	045d                	addi	s0,s0,23
     638:	0686                	slli	a3,a3,0x1
     63a:	068e                	slli	a3,a3,0x3
     63c:	5d01                	li	s10,-32
     63e:	a804                	.insn	2, 0xa804
     640:	aa06                	.insn	2, 0xaa06
     642:	0406                	slli	s0,s0,0x1
     644:	007d                	c.nop	31
     646:	9f1f ae04 b206      	.insn	6, 0xb206ae049f1f
     64c:	0106                	slli	sp,sp,0x1
     64e:	005d                	c.nop	23
     650:	dc04                	sw	s1,56(s0)
     652:	e005                	bnez	s0,672 <_tbss_end+0x672>
     654:	0105                	addi	sp,sp,1
     656:	045a                	slli	s0,s0,0x16
     658:	05e0                	addi	s0,sp,716
     65a:	05ee                	slli	a1,a1,0x1b
     65c:	5f01                	li	t5,-32
     65e:	ee04                	sd	s1,24(a2)
     660:	8605                	srai	a2,a2,0x1
     662:	0106                	slli	sp,sp,0x1
     664:	045a                	slli	s0,s0,0x16
     666:	068e                	slli	a3,a3,0x3
     668:	0694                	addi	a3,sp,832
     66a:	5f01                	li	t5,-32
     66c:	9404                	.insn	2, 0x9404
     66e:	9c06                	add	s8,s8,ra
     670:	0306                	slli	t1,t1,0x1
     672:	787a                	ld	a6,440(sp)
     674:	009f 0046 0000      	.insn	6, 0x0046009f
     67a:	0005                	c.nop	1
     67c:	0008                	.insn	2, 0x0008
     67e:	0000                	unimp
     680:	0000                	unimp
     682:	0004                	.insn	2, 0x0004
     684:	0138                	addi	a4,sp,136
     686:	045a                	slli	s0,s0,0x16
     688:	4638                	lw	a4,72(a2)
     68a:	a306                	.insn	2, 0xa306
     68c:	2e0aa503          	lw	a0,736(s5)
     690:	049f 5446 5a01      	.insn	6, 0x5a015446049f
     696:	5404                	lw	s1,40(s0)
     698:	0666                	slli	a2,a2,0x19
     69a:	0aa503a3          	sb	a0,167(a0)
     69e:	9f2e                	add	t5,t5,a1
     6a0:	6604                	ld	s1,8(a2)
     6a2:	0168                	addi	a0,sp,140
     6a4:	045a                	slli	s0,s0,0x16
     6a6:	6e68                	ld	a0,216(a2)
     6a8:	a306                	.insn	2, 0xa306
     6aa:	2e0aa503          	lw	a0,736(s5)
     6ae:	009f 0004 0132      	.insn	6, 0x01320004009f
     6b4:	6e32045b          	.insn	4, 0x6e32045b
     6b8:	a306                	.insn	2, 0xa306
     6ba:	2e0ba503          	lw	a0,736(s7)
     6be:	009f 0082 0000      	.insn	6, 0x0082009f
     6c4:	0005                	c.nop	1
     6c6:	0008                	.insn	2, 0x0008
     6c8:	0000                	unimp
     6ca:	0000                	unimp
     6cc:	0004                	.insn	2, 0x0004
     6ce:	011c                	addi	a5,sp,128
     6d0:	045a                	slli	s0,s0,0x16
     6d2:	801c                	.insn	2, 0x801c
     6d4:	0601                	addi	a2,a2,0
     6d6:	0aa503a3          	sb	a0,167(a0)
     6da:	9f2e                	add	t5,t5,a1
     6dc:	0400                	addi	s0,sp,512
     6de:	3000                	.insn	2, 0x3000
     6e0:	5b01                	li	s6,-32
     6e2:	3004                	.insn	2, 0x3004
     6e4:	0180                	addi	s0,sp,192
     6e6:	a306                	.insn	2, 0xa306
     6e8:	2e0ba503          	lw	a0,736(s7)
     6ec:	009f 2c04 0148      	.insn	6, 0x01482c04009f
     6f2:	045a                	slli	s0,s0,0x16
     6f4:	5a50                	lw	a2,52(a2)
     6f6:	5a01                	li	s4,-32
     6f8:	6004                	ld	s1,0(s0)
     6fa:	0162                	slli	sp,sp,0x18
     6fc:	045a                	slli	s0,s0,0x16
     6fe:	7064                	ld	s1,224(s0)
     700:	5a01                	li	s4,-32
     702:	7404                	ld	s1,40(s0)
     704:	017a                	slli	sp,sp,0x1e
     706:	005a                	c.slli	zero,0x16
     708:	4204                	lw	s1,0(a2)
     70a:	0848                	addi	a0,sp,20
     70c:	007d                	c.nop	31
     70e:	2930                	.insn	2, 0x2930
     710:	ff08                	sd	a0,56(a4)
     712:	9f1a                	add	t5,t5,t1
     714:	6404                	ld	s1,8(s0)
     716:	0866                	slli	a6,a6,0x19
     718:	007d                	c.nop	31
     71a:	2930                	.insn	2, 0x2930
     71c:	ff08                	sd	a0,56(a4)
     71e:	9f1a                	add	t5,t5,t1
     720:	7404                	ld	s1,40(s0)
     722:	0276                	slli	tp,tp,0x1d
     724:	9f30                	.insn	2, 0x9f30
     726:	0400                	addi	s0,sp,512
     728:	4844                	lw	s1,20(s0)
     72a:	7f08                	ld	a0,56(a4)
     72c:	3000                	.insn	2, 0x3000
     72e:	0829                	addi	a6,a6,10
     730:	049f1aff 30026664 	.insn	12, 0x7876049f30026664049f1aff
     738:	7876049f 
     73c:	7f08                	ld	a0,56(a4)
     73e:	3000                	.insn	2, 0x3000
     740:	0829                	addi	a6,a6,10
     742:	009f1aff 000002ef 	.insn	12, 0x00080005000002ef009f1aff
     74a:	00080005 
     74e:	0000                	unimp
     750:	0000                	unimp
     752:	0004                	.insn	2, 0x0004
     754:	013c                	addi	a5,sp,136
     756:	045a                	slli	s0,s0,0x16
     758:	b43c                	.insn	2, 0xb43c
     75a:	0601                	addi	a2,a2,0
     75c:	0aa503a3          	sb	a0,167(a0)
     760:	9f2e                	add	t5,t5,a1
     762:	b404                	.insn	2, 0xb404
     764:	b801                	j	ffffffffffffff74 <__stack_pointer$+0xffffffff78000374>
     766:	0101                	addi	sp,sp,0
     768:	045a                	slli	s0,s0,0x16
     76a:	01b8                	addi	a4,sp,200
     76c:	01d2                	slli	gp,gp,0x14
     76e:	a306                	.insn	2, 0xa306
     770:	2e0aa503          	lw	a0,736(s5)
     774:	049f 01d2 01e4      	.insn	6, 0x01e401d2049f
     77a:	5a01                	li	s4,-32
     77c:	e404                	sd	s1,8(s0)
     77e:	8a01                	andi	a2,a2,0
     780:	0604                	addi	s1,sp,768
     782:	0aa503a3          	sb	a0,167(a0)
     786:	9f2e                	add	t5,t5,a1
     788:	0400                	addi	s0,sp,512
     78a:	3c00                	.insn	2, 0x3c00
     78c:	5b01                	li	s6,-32
     78e:	3c04                	.insn	2, 0x3c04
     790:	0150                	addi	a2,sp,132
     792:	0465                	addi	s0,s0,25
     794:	b450                	.insn	2, 0xb450
     796:	0601                	addi	a2,a2,0
     798:	0ba503a3          	sb	s10,167(a0)
     79c:	9f2e                	add	t5,t5,a1
     79e:	b404                	.insn	2, 0xb404
     7a0:	bb01                	j	4b0 <_tbss_end+0x4b0>
     7a2:	0101                	addi	sp,sp,0
     7a4:	01bb045b          	.insn	4, 0x01bb045b
     7a8:	01d2                	slli	gp,gp,0x14
     7aa:	6501                	.insn	2, 0x6501
     7ac:	d204                	sw	s1,32(a2)
     7ae:	e401                	bnez	s0,7b6 <_tbss_end+0x7b6>
     7b0:	0101                	addi	sp,sp,0
     7b2:	01e4045b          	.insn	4, 0x01e4045b
     7b6:	048a                	slli	s1,s1,0x2
     7b8:	a306                	.insn	2, 0xa306
     7ba:	2e0ba503          	lw	a0,736(s7)
     7be:	009f 0004 023e      	.insn	6, 0x023e0004009f
     7c4:	9f30                	.insn	2, 0x9f30
     7c6:	b404                	.insn	2, 0xb404
     7c8:	e401                	bnez	s0,7d0 <_tbss_end+0x7d0>
     7ca:	0201                	addi	tp,tp,0 # 0 <_tbss_end>
     7cc:	9f30                	.insn	2, 0x9f30
     7ce:	0400                	addi	s0,sp,512
     7d0:	3e3c                	.insn	2, 0x3e3c
     7d2:	3002                	.insn	2, 0x3002
     7d4:	049f b43e 0101      	.insn	6, 0x0101b43e049f
     7da:	0464                	addi	s1,sp,524
     7dc:	01e4                	addi	s1,sp,204
     7de:	0392                	slli	t2,t2,0x4
     7e0:	6401                	.insn	2, 0x6401
     7e2:	9e04                	.insn	2, 0x9e04
     7e4:	01048a03          	lb	s4,16(s1)
     7e8:	0064                	addi	s1,sp,12
     7ea:	2404                	.insn	2, 0x2404
     7ec:	0180                	addi	s0,sp,192
     7ee:	8306                	mv	t1,ra
     7f0:	0800                	addi	s0,sp,16
     7f2:	049f1aff 029201b4 	.insn	12, 0x08008306029201b4049f1aff
     7fa:	08008306 
     7fe:	049f1aff 03aa039e 	.insn	12, 0x0800830603aa039e049f1aff
     806:	08008306 
     80a:	009f1aff 063c2004 	.insn	12, 0xff080082063c2004009f1aff
     812:	ff080082 
     816:	9f1a                	add	t5,t5,t1
     818:	3c04                	.insn	2, 0x3c04
     81a:	016a                	slli	sp,sp,0x1a
     81c:	0462                	slli	s0,s0,0x18
     81e:	01b4                	addi	a3,sp,200
     820:	01c4                	addi	s1,sp,196
     822:	8206                	mv	tp,ra
     824:	0800                	addi	s0,sp,16
     826:	049f1aff 01d601d2 	.insn	12, 0x0800820601d601d2049f1aff
     82e:	08008206 
     832:	049f1aff 01de01d6 	.insn	12, 0x47007a0801de01d6049f1aff
     83a:	47007a08 
     83e:	0825                	addi	a6,a6,9
     840:	049f1aff 01e001de 	.insn	12, 0x0800820601e001de049f1aff
     848:	08008206 
     84c:	049f1aff 01e401e0 	.insn	12, 0x47007a0801e401e0049f1aff
     854:	47007a08 
     858:	0825                	addi	a6,a6,9
     85a:	049f1aff 029201e4 	.insn	12, 0x04006201029201e4049f1aff
     862:	04006201 
     866:	3020                	.insn	2, 0x3020
     868:	5901                	li	s2,-32
     86a:	3004                	.insn	2, 0x3004
     86c:	0732                	slli	a4,a4,0xc
     86e:	0079                	c.nop	30
     870:	4340                	lw	s0,4(a4)
     872:	2124                	.insn	2, 0x2124
     874:	049f 3832 7a0d      	.insn	6, 0x7a0d3832049f
     87a:	0800                	addi	s0,sp,16
     87c:	2429                	addiw	s0,s0,10
     87e:	2908                	.insn	2, 0x2908
     880:	4025                	c.li	zero,9
     882:	9f212443          	.insn	4, 0x9f212443
     886:	3804                	.insn	2, 0x3804
     888:	0190                	addi	a2,sp,192
     88a:	5901                	li	s2,-32
     88c:	b404                	.insn	2, 0xb404
     88e:	be01                	j	39e <_tbss_end+0x39e>
     890:	0102                	c.slli64	sp
     892:	0459                	addi	s0,s0,22
     894:	039e                	slli	t2,t2,0x7
     896:	03b0                	addi	a2,sp,456
     898:	5901                	li	s2,-32
     89a:	f804                	sd	s1,48(s0)
     89c:	01048403          	lb	s0,16(s1)
     8a0:	0059                	c.nop	22
     8a2:	6604                	ld	s1,8(a2)
     8a4:	0268                	addi	a0,sp,268
     8a6:	9f30                	.insn	2, 0x9f30
     8a8:	6804                	ld	s1,16(s0)
     8aa:	019e                	slli	gp,gp,0x7
     8ac:	5e01                	li	t3,-32
     8ae:	9204                	.insn	2, 0x9204
     8b0:	ac02                	.insn	2, 0xac02
     8b2:	0102                	c.slli64	sp
     8b4:	045e                	slli	s0,s0,0x17
     8b6:	039e                	slli	t2,t2,0x7
     8b8:	03ae                	slli	t2,t2,0xb
     8ba:	5e01                	li	t3,-32
     8bc:	0400                	addi	s0,sp,512
     8be:	b450                	.insn	2, 0xb450
     8c0:	0601                	addi	a2,a2,0
     8c2:	0085                	addi	ra,ra,1
     8c4:	ff08                	sd	a0,56(a4)
     8c6:	9f1a                	add	t5,t5,t1
     8c8:	e404                	sd	s1,8(s0)
     8ca:	9401                	srai	s0,s0,0x20
     8cc:	00850603          	lb	a2,8(a0)
     8d0:	ff08                	sd	a0,56(a4)
     8d2:	9f1a                	add	t5,t5,t1
     8d4:	9e04                	.insn	2, 0x9e04
     8d6:	06048a03          	lb	s4,96(s1)
     8da:	0085                	addi	ra,ra,1
     8dc:	ff08                	sd	a0,56(a4)
     8de:	9f1a                	add	t5,t5,t1
     8e0:	0400                	addi	s0,sp,512
     8e2:	664c                	ld	a1,136(a2)
     8e4:	7f06                	ld	t5,96(sp)
     8e6:	0800                	addi	s0,sp,16
     8e8:	049f1aff 5f016e66 	.insn	12, 0xeb01e4045f016e66049f1aff
     8f0:	eb01e404 
     8f4:	0601                	addi	a2,a2,0
     8f6:	007f ff08 9f1a 8004 	.insn	10, 0x840280049f1aff08007f
     8fe:	8402 
     900:	0602                	c.slli64	a2
     902:	007f ff08 9f1a 8c04 	.insn	10, 0x8e028c049f1aff08007f
     90a:	8e02 
     90c:	0602                	c.slli64	a2
     90e:	007f ff08 9f1a 0400 	.insn	10, 0x5a4c04009f1aff08007f
     916:	5a4c 
     918:	5801                	li	a6,-32
     91a:	5a04                	lw	s1,48(a2)
     91c:	075c                	addi	a5,sp,900
     91e:	0078                	addi	a4,sp,12
     920:	4340                	lw	s0,4(a4)
     922:	2124                	.insn	2, 0x2124
     924:	049f a262 0101      	.insn	6, 0x0101a262049f
     92a:	0458                	addi	a4,sp,516
     92c:	01e4                	addi	s1,sp,204
     92e:	02ac                	addi	a1,sp,328
     930:	5801                	li	a6,-32
     932:	9e04                	.insn	2, 0x9e04
     934:	0103ac03          	lw	s8,16(t2)
     938:	0058                	addi	a4,sp,4
     93a:	8c04                	.insn	2, 0x8c04
     93c:	b401                	j	33c <_tbss_end+0x33c>
     93e:	0201                	addi	tp,tp,0 # 0 <_tbss_end>
     940:	9f30                	.insn	2, 0x9f30
     942:	ac04                	.insn	2, 0xac04
     944:	be02                	.insn	2, 0xbe02
     946:	0102                	c.slli64	sp
     948:	005e                	c.slli	zero,0x17
     94a:	6804                	ld	s1,16(s0)
     94c:	0180                	addi	s0,sp,192
     94e:	8309                	srli	a4,a4,0x2
     950:	8500                	.insn	2, 0x8500
     952:	2700                	.insn	2, 0x2700
     954:	ff08                	sd	a0,56(a4)
     956:	9f1a                	add	t5,t5,t1
     958:	ac04                	.insn	2, 0xac04
     95a:	8a02                	jr	s4
     95c:	04630103          	lb	sp,70(t1)
     960:	039e                	slli	t2,t2,0x7
     962:	03aa                	slli	t2,t2,0xa
     964:	8309                	srli	a4,a4,0x2
     966:	8500                	.insn	2, 0x8500
     968:	2700                	.insn	2, 0x2700
     96a:	ff08                	sd	a0,56(a4)
     96c:	9f1a                	add	t5,t5,t1
     96e:	b004                	.insn	2, 0xb004
     970:	0103f803          	.insn	4, 0x0103f803
     974:	04840463          	beq	s0,s0,9bc <_tbss_end+0x9bc>
     978:	048a                	slli	s1,s1,0x2
     97a:	6301                	.insn	2, 0x6301
     97c:	0400                	addi	s0,sp,512
     97e:	b076                	.insn	2, 0xb076
     980:	0101                	addi	sp,sp,0
     982:	045c                	addi	a5,sp,516
     984:	01b0                	addi	a2,sp,200
     986:	01b4                	addi	a3,sp,200
     988:	6201                	.insn	2, 0x6201
     98a:	9204                	.insn	2, 0x9204
     98c:	c202                	sw	zero,4(sp)
     98e:	0102                	c.slli64	sp
     990:	045c                	addi	a5,sp,516
     992:	02c2                	slli	t0,t0,0x10
     994:	0384                	addi	s1,sp,448
     996:	5e01                	li	t3,-32
     998:	9e04                	.insn	2, 0x9e04
     99a:	0103b003          	ld	zero,16(t2)
     99e:	045c                	addi	a5,sp,516
     9a0:	03b0                	addi	a2,sp,456
     9a2:	03b4                	addi	a3,sp,456
     9a4:	5e01                	li	t3,-32
     9a6:	b404                	.insn	2, 0xb404
     9a8:	0103da03          	lhu	s4,16(t2)
     9ac:	045d                	addi	s0,s0,23
     9ae:	03da                	slli	t2,t2,0x16
     9b0:	03ee                	slli	t2,t2,0x1b
     9b2:	0906                	slli	s2,s2,0x1
     9b4:	7c82                	ld	s9,32(sp)
     9b6:	1c00                	addi	s0,sp,560
     9b8:	049f 03ee 03f0      	.insn	6, 0x03f003ee049f
     9be:	7e09                	lui	t3,0xfffe2
     9c0:	7c00                	ld	s0,56(s0)
     9c2:	1c00                	addi	s0,sp,560
     9c4:	7f08                	ld	a0,56(a4)
     9c6:	9f1c                	.insn	2, 0x9f1c
     9c8:	f804                	sd	s1,48(s0)
     9ca:	01048403          	lb	s0,16(s1)
     9ce:	005c                	addi	a5,sp,4
     9d0:	9004                	.insn	2, 0x9004
     9d2:	9601                	srai	a2,a2,0x20
     9d4:	0101                	addi	sp,sp,0
     9d6:	0459                	addi	s0,s0,22
     9d8:	01a2                	slli	gp,gp,0x8
     9da:	01ac                	addi	a1,sp,200
     9dc:	5801                	li	a6,-32
     9de:	ae04                	.insn	2, 0xae04
     9e0:	b401                	j	3e0 <_tbss_end+0x3e0>
     9e2:	0101                	addi	sp,sp,0
     9e4:	0458                	addi	a4,sp,516
     9e6:	02ac                	addi	a1,sp,328
     9e8:	02ec                	addi	a1,sp,332
     9ea:	5801                	li	a6,-32
     9ec:	ec04                	sd	s1,24(s0)
     9ee:	f802                	sd	zero,48(sp)
     9f0:	0502                	c.slli64	a0
     9f2:	0078                	addi	a4,sp,12
     9f4:	049f2533          	.insn	4, 0x049f2533
     9f8:	02f8                	addi	a4,sp,332
     9fa:	039e                	slli	t2,t2,0x7
     9fc:	5f01                	li	t5,-32
     9fe:	b004                	.insn	2, 0xb004
     a00:	0103ce03          	lbu	t3,16(t2)
     a04:	0458                	addi	a4,sp,516
     a06:	03ce                	slli	t2,t2,0x13
     a08:	03e6                	slli	t2,t2,0x19
     a0a:	5f01                	li	t5,-32
     a0c:	8404                	.insn	2, 0x8404
     a0e:	8604                	.insn	2, 0x8604
     a10:	0104                	addi	s1,sp,128
     a12:	0058                	addi	a4,sp,4
     a14:	9804                	.insn	2, 0x9804
     a16:	01039e03          	lh	t3,16(t2)
     a1a:	005a                	c.slli	zero,0x16
     a1c:	c004                	sw	s1,0(s0)
     a1e:	d201                	beqz	a2,91e <_tbss_end+0x91e>
     a20:	0301                	addi	t1,t1,0
     a22:	009f587f 8001f004 	.insn	20, 0x02039a039804009f587e03028001f004009f587f
     a2a:	587e0302 9804009f 
     a32:	02039a03 
     a36:	f05a                	sd	s6,32(sp)
     a38:	7600                	ld	s0,40(a2)
     a3a:	0006                	c.slli	zero,0x1
     a3c:	0500                	addi	s0,sp,640
     a3e:	0800                	addi	s0,sp,16
     a40:	0000                	unimp
     a42:	0000                	unimp
     a44:	0400                	addi	s0,sp,512
     a46:	5600                	lw	s0,40(a2)
     a48:	5a01                	li	s4,-32
     a4a:	5604                	lw	s1,40(a2)
     a4c:	06c6                	slli	a3,a3,0x11
     a4e:	a306                	.insn	2, 0xa306
     a50:	2e0aa503          	lw	a0,736(s5)
     a54:	009f 0004 0144      	.insn	6, 0x01440004009f
     a5a:	c644045b          	.insn	4, 0xc644045b
     a5e:	0606                	slli	a2,a2,0x1
     a60:	0ba503a3          	sb	s10,167(a0)
     a64:	9f2e                	add	t5,t5,a1
     a66:	0400                	addi	s0,sp,512
     a68:	ee00                	sd	s0,24(a2)
     a6a:	0201                	addi	tp,tp,0 # 0 <_tbss_end>
     a6c:	9f30                	.insn	2, 0x9f30
     a6e:	f404                	sd	s1,40(s0)
     a70:	d001                	beqz	s0,970 <_tbss_end+0x970>
     a72:	0202                	c.slli64	tp
     a74:	9f30                	.insn	2, 0x9f30
     a76:	f004                	sd	s1,32(s0)
     a78:	f402                	sd	zero,40(sp)
     a7a:	0204                	addi	s1,sp,256
     a7c:	9f30                	.insn	2, 0x9f30
     a7e:	8a04                	.insn	2, 0x8a04
     a80:	f005                	bnez	s0,9a0 <_tbss_end+0x9a0>
     a82:	0205                	addi	tp,tp,1 # 1 <_tbss_end+0x1>
     a84:	9f30                	.insn	2, 0x9f30
     a86:	bc04                	.insn	2, 0xbc04
     a88:	c206                	sw	ra,4(sp)
     a8a:	0206                	slli	tp,tp,0x1
     a8c:	9f30                	.insn	2, 0x9f30
     a8e:	0400                	addi	s0,sp,512
     a90:	ee40                	sd	s0,152(a2)
     a92:	0101                	addi	sp,sp,0
     a94:	0459                	addi	s0,s0,22
     a96:	01f4                	addi	a3,sp,204
     a98:	02d0                	addi	a2,sp,324
     a9a:	5901                	li	s2,-32
     a9c:	e604                	sd	s1,8(a2)
     a9e:	fa02                	sd	zero,304(sp)
     aa0:	04590103          	lb	sp,69(s2)
     aa4:	03fa                	slli	t2,t2,0x1e
     aa6:	03fe                	slli	t2,t2,0x1f
     aa8:	5b01                	li	s6,-32
     aaa:	fe04                	sd	s1,56(a2)
     aac:	01048a03          	lb	s4,16(s1)
     ab0:	0459                	addi	s0,s0,22
     ab2:	048a                	slli	s1,s1,0x2
     ab4:	048c                	addi	a1,sp,576
     ab6:	5b01                	li	s6,-32
     ab8:	8c04                	.insn	2, 0x8c04
     aba:	d404                	sw	s1,40(s0)
     abc:	0104                	addi	s1,sp,128
     abe:	0459                	addi	s0,s0,22
     ac0:	04d4                	addi	a3,sp,580
     ac2:	04d8                	addi	a4,sp,580
     ac4:	3002                	.insn	2, 0x3002
     ac6:	049f 04d8 04fa      	.insn	6, 0x04fa04d8049f
     acc:	5901                	li	s2,-32
     ace:	fe04                	sd	s1,56(a2)
     ad0:	8a04                	.insn	2, 0x8a04
     ad2:	0205                	addi	tp,tp,1 # 1 <_tbss_end+0x1>
     ad4:	9f30                	.insn	2, 0x9f30
     ad6:	8a04                	.insn	2, 0x8a04
     ad8:	9a05                	andi	a2,a2,-31
     ada:	0105                	addi	sp,sp,1
     adc:	0459                	addi	s0,s0,22
     ade:	059a                	slli	a1,a1,0x6
     ae0:	059c                	addi	a5,sp,704
     ae2:	5b01                	li	s6,-32
     ae4:	9c04                	.insn	2, 0x9c04
     ae6:	d605                	beqz	a2,a0e <_tbss_end+0xa0e>
     ae8:	0105                	addi	sp,sp,1
     aea:	0459                	addi	s0,s0,22
     aec:	05d6                	slli	a1,a1,0x15
     aee:	05d8                	addi	a4,sp,708
     af0:	3002                	.insn	2, 0x3002
     af2:	049f 05d8 05f0      	.insn	6, 0x05f005d8049f
     af8:	5901                	li	s2,-32
     afa:	9a04                	.insn	2, 0x9a04
     afc:	9c06                	add	s8,s8,ra
     afe:	0206                	slli	tp,tp,0x1
     b00:	9f30                	.insn	2, 0x9f30
     b02:	bc04                	.insn	2, 0xbc04
     b04:	be06                	.insn	2, 0xbe06
     b06:	0106                	slli	sp,sp,0x1
     b08:	0459                	addi	s0,s0,22
     b0a:	06be                	slli	a3,a3,0xf
     b0c:	06c2                	slli	a3,a3,0x10
     b0e:	5b01                	li	s6,-32
     b10:	0400                	addi	s0,sp,512
     b12:	6a3c                	ld	a5,80(a2)
     b14:	5801                	li	a6,-32
     b16:	6a04                	ld	s1,16(a2)
     b18:	0190                	addi	a2,sp,192
     b1a:	6001                	.insn	2, 0x6001
     b1c:	9004                	.insn	2, 0x9004
     b1e:	e401                	bnez	s0,b26 <_tbss_end+0xb26>
     b20:	0101                	addi	sp,sp,0
     b22:	0458                	addi	a4,sp,516
     b24:	01e4                	addi	s1,sp,204
     b26:	01e6                	slli	gp,gp,0x19
     b28:	6001                	.insn	2, 0x6001
     b2a:	e604                	sd	s1,8(a2)
     b2c:	f201                	bnez	a2,a2c <_tbss_end+0xa2c>
     b2e:	0101                	addi	sp,sp,0
     b30:	0458                	addi	a4,sp,516
     b32:	01f2                	slli	gp,gp,0x1c
     b34:	01f4                	addi	a3,sp,204
     b36:	6001                	.insn	2, 0x6001
     b38:	f404                	sd	s1,40(s0)
     b3a:	d001                	beqz	s0,a3a <_tbss_end+0xa3a>
     b3c:	0102                	c.slli64	sp
     b3e:	0458                	addi	a4,sp,516
     b40:	02e6                	slli	t0,t0,0x19
     b42:	0380                	addi	s0,sp,448
     b44:	5801                	li	a6,-32
     b46:	8004                	.insn	2, 0x8004
     b48:	01038203          	lb	tp,16(t2)
     b4c:	0460                	addi	s0,sp,524
     b4e:	0382                	c.slli64	t2
     b50:	0394                	addi	a3,sp,448
     b52:	5801                	li	a6,-32
     b54:	a804                	.insn	2, 0xa804
     b56:	0103fa03          	.insn	4, 0x0103fa03
     b5a:	0458                	addi	a4,sp,516
     b5c:	03fe                	slli	t2,t2,0x1f
     b5e:	048a                	slli	s1,s1,0x2
     b60:	5801                	li	a6,-32
     b62:	8a04                	.insn	2, 0x8a04
     b64:	8c04                	.insn	2, 0x8c04
     b66:	0104                	addi	s1,sp,128
     b68:	0460                	addi	s0,sp,524
     b6a:	048c                	addi	a1,sp,576
     b6c:	04d4                	addi	a3,sp,580
     b6e:	5801                	li	a6,-32
     b70:	d404                	sw	s1,40(s0)
     b72:	d804                	sw	s1,48(s0)
     b74:	0104                	addi	s1,sp,128
     b76:	0460                	addi	s0,sp,524
     b78:	04d8                	addi	a4,sp,580
     b7a:	0588                	addi	a0,sp,704
     b7c:	5801                	li	a6,-32
     b7e:	8804                	.insn	2, 0x8804
     b80:	8a05                	andi	a2,a2,1
     b82:	0105                	addi	sp,sp,1
     b84:	0460                	addi	s0,sp,524
     b86:	058a                	slli	a1,a1,0x2
     b88:	059c                	addi	a5,sp,704
     b8a:	5801                	li	a6,-32
     b8c:	ce04                	sw	s1,24(a2)
     b8e:	d605                	beqz	a2,ab6 <_tbss_end+0xab6>
     b90:	0105                	addi	sp,sp,1
     b92:	0458                	addi	a4,sp,516
     b94:	05d6                	slli	a1,a1,0x15
     b96:	05d8                	addi	a4,sp,708
     b98:	6001                	.insn	2, 0x6001
     b9a:	e604                	sd	s1,8(a2)
     b9c:	e805                	bnez	s0,bcc <_tbss_end+0xbcc>
     b9e:	0105                	addi	sp,sp,1
     ba0:	0458                	addi	a4,sp,516
     ba2:	05e8                	addi	a0,sp,716
     ba4:	05ea                	slli	a1,a1,0x1a
     ba6:	6001                	.insn	2, 0x6001
     ba8:	ea04                	sd	s1,16(a2)
     baa:	ee05                	bnez	a2,be2 <_tbss_end+0xbe2>
     bac:	0105                	addi	sp,sp,1
     bae:	0458                	addi	a4,sp,516
     bb0:	05ee                	slli	a1,a1,0x1b
     bb2:	05f0                	addi	a2,sp,716
     bb4:	6001                	.insn	2, 0x6001
     bb6:	bc04                	.insn	2, 0xbc04
     bb8:	be06                	.insn	2, 0xbe06
     bba:	0106                	slli	sp,sp,0x1
     bbc:	0458                	addi	a4,sp,516
     bbe:	06be                	slli	a3,a3,0xf
     bc0:	06c2                	slli	a3,a3,0x10
     bc2:	6001                	.insn	2, 0x6001
     bc4:	0400                	addi	s0,sp,512
     bc6:	1e0a                	slli	t3,t3,0x22
     bc8:	7e09                	lui	t3,0xfffe2
     bca:	0c00                	addi	s0,sp,528
     bcc:	ffff                	.insn	2, 0xffff
     bce:	ffff                	.insn	2, 0xffff
     bd0:	9f1a                	add	t5,t5,t1
     bd2:	1e04                	addi	s1,sp,816
     bd4:	0940                	addi	s0,sp,148
     bd6:	007a                	c.slli	zero,0x1e
     bd8:	ff0c                	sd	a1,56(a4)
     bda:	7fff                	.insn	2, 0x7fff
     bdc:	1a00                	addi	s0,sp,304
     bde:	049f 6a40 5e01      	.insn	6, 0x5e016a40049f
     be4:	9004                	.insn	2, 0x9004
     be6:	e201                	bnez	a2,be6 <_tbss_end+0xbe6>
     be8:	0101                	addi	sp,sp,0
     bea:	045e                	slli	s0,s0,0x17
     bec:	01e6                	slli	gp,gp,0x19
     bee:	029e                	slli	t0,t0,0x7
     bf0:	5e01                	li	t3,-32
     bf2:	a604                	.insn	2, 0xa604
     bf4:	aa02                	.insn	2, 0xaa02
     bf6:	0102                	c.slli64	sp
     bf8:	02aa045b          	.insn	4, 0x02aa045b
     bfc:	02c2                	slli	t0,t0,0x10
     bfe:	5e01                	li	t3,-32
     c00:	e604                	sd	s1,8(a2)
     c02:	fa02                	sd	zero,304(sp)
     c04:	0102                	c.slli64	sp
     c06:	045e                	slli	s0,s0,0x17
     c08:	0382                	c.slli64	t2
     c0a:	0394                	addi	a3,sp,448
     c0c:	5e01                	li	t3,-32
     c0e:	a804                	.insn	2, 0xa804
     c10:	0103f803          	.insn	4, 0x0103f803
     c14:	045e                	slli	s0,s0,0x17
     c16:	03fe                	slli	t2,t2,0x1f
     c18:	04b6                	slli	s1,s1,0xd
     c1a:	5e01                	li	t3,-32
     c1c:	be04                	.insn	2, 0xbe04
     c1e:	c204                	sw	s1,0(a2)
     c20:	0104                	addi	s1,sp,128
     c22:	045a                	slli	s0,s0,0x16
     c24:	04c2                	slli	s1,s1,0x10
     c26:	059c                	addi	a5,sp,704
     c28:	5e01                	li	t3,-32
     c2a:	ce04                	sw	s1,24(a2)
     c2c:	d805                	beqz	s0,b5c <_tbss_end+0xb5c>
     c2e:	0105                	addi	sp,sp,1
     c30:	045e                	slli	s0,s0,0x17
     c32:	05e6                	slli	a1,a1,0x19
     c34:	05ee                	slli	a1,a1,0x1b
     c36:	5e01                	li	t3,-32
     c38:	bc04                	.insn	2, 0xbc04
     c3a:	c206                	sw	ra,4(sp)
     c3c:	0106                	slli	sp,sp,0x1
     c3e:	005e                	c.slli	zero,0x17
     c40:	4404                	lw	s1,8(s0)
     c42:	064e                	slli	a2,a2,0x13
     c44:	ff08007b          	.insn	4, 0xff08007b
     c48:	9f1a                	add	t5,t5,t1
     c4a:	4e04                	lw	s1,24(a2)
     c4c:	016a                	slli	sp,sp,0x1a
     c4e:	0190045b          	.insn	4, 0x0190045b
     c52:	01e2                	slli	gp,gp,0x18
     c54:	5b01                	li	s6,-32
     c56:	e604                	sd	s1,8(a2)
     c58:	ea01                	bnez	a2,c68 <_tbss_end+0xc68>
     c5a:	0101                	addi	sp,sp,0
     c5c:	01f4045b          	.insn	4, 0x01f4045b
     c60:	01f8                	addi	a4,sp,204
     c62:	5b01                	li	s6,-32
     c64:	aa04                	.insn	2, 0xaa04
     c66:	d002                	sw	zero,32(sp)
     c68:	0102                	c.slli64	sp
     c6a:	02e6045b          	.insn	4, 0x02e6045b
     c6e:	05a1                	addi	a1,a1,8
     c70:	5b01                	li	s6,-32
     c72:	ce04                	sw	s1,24(a2)
     c74:	d805                	beqz	s0,ba4 <_tbss_end+0xba4>
     c76:	0105                	addi	sp,sp,1
     c78:	05e6045b          	.insn	4, 0x05e6045b
     c7c:	05ee                	slli	a1,a1,0x1b
     c7e:	5b01                	li	s6,-32
     c80:	bc04                	.insn	2, 0xbc04
     c82:	c206                	sw	ra,4(sp)
     c84:	0106                	slli	sp,sp,0x1
     c86:	4004005b          	.insn	4, 0x4004005b
     c8a:	016a                	slli	sp,sp,0x1a
     c8c:	045c                	addi	a5,sp,516
     c8e:	0190                	addi	a2,sp,192
     c90:	0198                	addi	a4,sp,192
     c92:	5c01                	li	s8,-32
     c94:	9c04                	.insn	2, 0x9c04
     c96:	ac01                	j	ea6 <_tbss_end+0xea6>
     c98:	0101                	addi	sp,sp,0
     c9a:	045c                	addi	a5,sp,516
     c9c:	01ce                	slli	gp,gp,0x13
     c9e:	01ee                	slli	gp,gp,0x1b
     ca0:	5c01                	li	s8,-32
     ca2:	f404                	sd	s1,40(s0)
     ca4:	b201                	j	5a4 <_tbss_end+0x5a4>
     ca6:	0102                	c.slli64	sp
     ca8:	045c                	addi	a5,sp,516
     caa:	0382                	c.slli64	t2
     cac:	0394                	addi	a3,sp,448
     cae:	5c01                	li	s8,-32
     cb0:	a804                	.insn	2, 0xa804
     cb2:	0103b203          	ld	tp,16(t2)
     cb6:	045c                	addi	a5,sp,516
     cb8:	03d4                	addi	a3,sp,452
     cba:	04d4                	addi	a3,sp,580
     cbc:	5c01                	li	s8,-32
     cbe:	d804                	sw	s1,48(s0)
     cc0:	e404                	sd	s1,8(s0)
     cc2:	0104                	addi	s1,sp,128
     cc4:	045c                	addi	a5,sp,516
     cc6:	04f4                	addi	a3,sp,588
     cc8:	04fe                	slli	s1,s1,0x1f
     cca:	5c01                	li	s8,-32
     ccc:	8a04                	.insn	2, 0x8a04
     cce:	9c05                	subw	s0,s0,s1
     cd0:	0105                	addi	sp,sp,1
     cd2:	045c                	addi	a5,sp,516
     cd4:	05ce                	slli	a1,a1,0x13
     cd6:	05d8                	addi	a4,sp,708
     cd8:	5c01                	li	s8,-32
     cda:	e604                	sd	s1,8(a2)
     cdc:	ea05                	bnez	a2,d0c <_tbss_end+0xd0c>
     cde:	0105                	addi	sp,sp,1
     ce0:	045c                	addi	a5,sp,516
     ce2:	06bc                	addi	a5,sp,840
     ce4:	06be                	slli	a3,a3,0xf
     ce6:	5c01                	li	s8,-32
     ce8:	0400                	addi	s0,sp,512
     cea:	6a44                	ld	s1,144(a2)
     cec:	5f01                	li	t5,-32
     cee:	9004                	.insn	2, 0x9004
     cf0:	9a01                	andi	a2,a2,-32
     cf2:	0101                	addi	sp,sp,0
     cf4:	045f 019c 01c0      	.insn	6, 0x01c0019c045f
     cfa:	5f01                	li	t5,-32
     cfc:	c804                	sw	s1,16(s0)
     cfe:	ce01                	beqz	a2,d16 <_tbss_end+0xd16>
     d00:	0101                	addi	sp,sp,0
     d02:	045d                	addi	s0,s0,23
     d04:	01ce                	slli	gp,gp,0x13
     d06:	01e2                	slli	gp,gp,0x18
     d08:	5f01                	li	t5,-32
     d0a:	e604                	sd	s1,8(a2)
     d0c:	ee01                	bnez	a2,d24 <_tbss_end+0xd24>
     d0e:	0101                	addi	sp,sp,0
     d10:	045f 01f4 02a8      	.insn	6, 0x02a801f4045f
     d16:	5f01                	li	t5,-32
     d18:	aa04                	.insn	2, 0xaa04
     d1a:	be02                	.insn	2, 0xbe02
     d1c:	0102                	c.slli64	sp
     d1e:	045f 02e6 02ee      	.insn	6, 0x02ee02e6045f
     d24:	5f01                	li	t5,-32
     d26:	f004                	sd	s1,32(s0)
     d28:	fe02                	sd	zero,312(sp)
     d2a:	0102                	c.slli64	sp
     d2c:	045f 0382 0394      	.insn	6, 0x03940382045f
     d32:	5f01                	li	t5,-32
     d34:	a804                	.insn	2, 0xa804
     d36:	0103c603          	lbu	a2,16(t2)
     d3a:	045f 03ce 03d4      	.insn	6, 0x03d403ce045f
     d40:	5d01                	li	s10,-32
     d42:	d404                	sw	s1,40(s0)
     d44:	0103f803          	.insn	4, 0x0103f803
     d48:	045f 03fe 04c0      	.insn	6, 0x04c003fe045f
     d4e:	5f01                	li	t5,-32
     d50:	c204                	sw	s1,0(a2)
     d52:	d404                	sw	s1,40(s0)
     d54:	0104                	addi	s1,sp,128
     d56:	045f 04d8 04e6      	.insn	6, 0x04e604d8045f
     d5c:	5f01                	li	t5,-32
     d5e:	f404                	sd	s1,40(s0)
     d60:	8404                	.insn	2, 0x8404
     d62:	0105                	addi	sp,sp,1
     d64:	045f 058a 059c      	.insn	6, 0x059c058a045f
     d6a:	5f01                	li	t5,-32
     d6c:	ce04                	sw	s1,24(a2)
     d6e:	d405                	beqz	s0,c96 <_tbss_end+0xc96>
     d70:	0105                	addi	sp,sp,1
     d72:	045f 05e6 05ee      	.insn	6, 0x05ee05e6045f
     d78:	5f01                	li	t5,-32
     d7a:	bc04                	.insn	2, 0xbc04
     d7c:	be06                	.insn	2, 0xbe06
     d7e:	0106                	slli	sp,sp,0x1
     d80:	005f 5a04 0198      	.insn	6, 0x01985a04005f
     d86:	5901                	li	s2,-32
     d88:	9c04                	.insn	2, 0x9c04
     d8a:	ee01                	bnez	a2,da2 <_tbss_end+0xda2>
     d8c:	0101                	addi	sp,sp,0
     d8e:	0459                	addi	s0,s0,22
     d90:	01f4                	addi	a3,sp,204
     d92:	02d0                	addi	a2,sp,324
     d94:	5901                	li	s2,-32
     d96:	e604                	sd	s1,8(a2)
     d98:	e802                	sd	zero,16(sp)
     d9a:	0102                	c.slli64	sp
     d9c:	0459                	addi	s0,s0,22
     d9e:	02f0                	addi	a2,sp,332
     da0:	0382                	c.slli64	t2
     da2:	5901                	li	s2,-32
     da4:	8604                	.insn	2, 0x8604
     da6:	0103e403          	lwu	s0,16(t2)
     daa:	0459                	addi	s0,s0,22
     dac:	03e6                	slli	t2,t2,0x19
     dae:	04c2                	slli	s1,s1,0x10
     db0:	5b01                	li	s6,-32
     db2:	e004                	sd	s1,0(s0)
     db4:	f404                	sd	s1,40(s0)
     db6:	0104                	addi	s1,sp,128
     db8:	0459                	addi	s0,s0,22
     dba:	058e                	slli	a1,a1,0x3
     dbc:	059a                	slli	a1,a1,0x6
     dbe:	5901                	li	s2,-32
     dc0:	9a04                	.insn	2, 0x9a04
     dc2:	9c05                	subw	s0,s0,s1
     dc4:	0105                	addi	sp,sp,1
     dc6:	059c045b          	.insn	4, 0x059c045b
     dca:	05d6                	slli	a1,a1,0x15
     dcc:	5901                	li	s2,-32
     dce:	d604                	sw	s1,40(a2)
     dd0:	d805                	beqz	s0,d00 <_tbss_end+0xd00>
     dd2:	0205                	addi	tp,tp,1 # 1 <_tbss_end+0x1>
     dd4:	9f30                	.insn	2, 0x9f30
     dd6:	d804                	sw	s1,48(s0)
     dd8:	f005                	bnez	s0,cf8 <_tbss_end+0xcf8>
     dda:	0105                	addi	sp,sp,1
     ddc:	0459                	addi	s0,s0,22
     dde:	06bc                	addi	a5,sp,840
     de0:	06be                	slli	a3,a3,0xf
     de2:	5b01                	li	s6,-32
     de4:	0400                	addi	s0,sp,512
     de6:	985e                	add	a6,a6,s7
     de8:	0101                	addi	sp,sp,0
     dea:	0458                	addi	a4,sp,516
     dec:	019c                	addi	a5,sp,192
     dee:	01ce                	slli	gp,gp,0x13
     df0:	5801                	li	a6,-32
     df2:	d004                	sw	s1,32(s0)
     df4:	ee01                	bnez	a2,e0c <_tbss_end+0xe0c>
     df6:	0101                	addi	sp,sp,0
     df8:	045c                	addi	a5,sp,516
     dfa:	01f4                	addi	a3,sp,204
     dfc:	02aa                	slli	t0,t0,0xa
     dfe:	5c01                	li	s8,-32
     e00:	b804                	.insn	2, 0xb804
     e02:	ce02                	sw	zero,28(sp)
     e04:	0202                	c.slli64	tp
     e06:	9f30                	.insn	2, 0x9f30
     e08:	ce04                	sw	s1,24(a2)
     e0a:	d002                	sw	zero,32(sp)
     e0c:	0202                	c.slli64	tp
     e0e:	9f31                	addw	a4,a4,a2
     e10:	d004                	sw	s1,32(s0)
     e12:	e602                	sd	zero,264(sp)
     e14:	0102                	c.slli64	sp
     e16:	0458                	addi	a4,sp,516
     e18:	02e6                	slli	t0,t0,0x19
     e1a:	02f0                	addi	a2,sp,332
     e1c:	9fff0803          	lb	a6,-1537(t5) # ffffffffffffe9ff <__stack_pointer$+0xffffffff77ffedff>
     e20:	f004                	sd	s1,32(s0)
     e22:	8202                	jr	tp
     e24:	045d0103          	lb	sp,69(s10)
     e28:	0386                	slli	t2,t2,0x1
     e2a:	03e4                	addi	s1,sp,460
     e2c:	5801                	li	a6,-32
     e2e:	e604                	sd	s1,8(a2)
     e30:	0104c203          	lbu	tp,16(s1)
     e34:	045c                	addi	a5,sp,516
     e36:	04d0                	addi	a2,sp,580
     e38:	04d4                	addi	a3,sp,580
     e3a:	3002                	.insn	2, 0x3002
     e3c:	049f 04d8 04f4      	.insn	6, 0x04f404d8049f
     e42:	3002                	.insn	2, 0x3002
     e44:	049f 04f4 058a      	.insn	6, 0x058a04f4049f
     e4a:	9fff0803          	lb	a6,-1537(t5)
     e4e:	8a04                	.insn	2, 0x8a04
     e50:	ca05                	beqz	a2,e80 <_tbss_end+0xe80>
     e52:	0105                	addi	sp,sp,1
     e54:	0458                	addi	a4,sp,516
     e56:	05ca                	slli	a1,a1,0x12
     e58:	05ce                	slli	a1,a1,0x13
     e5a:	3002                	.insn	2, 0x3002
     e5c:	049f 05ce 05d6      	.insn	6, 0x05d605ce049f
     e62:	5801                	li	a6,-32
     e64:	d604                	sw	s1,40(a2)
     e66:	d805                	beqz	s0,d96 <_tbss_end+0xd96>
     e68:	0105                	addi	sp,sp,1
     e6a:	0460                	addi	s0,sp,524
     e6c:	05d8                	addi	a4,sp,708
     e6e:	05e6                	slli	a1,a1,0x19
     e70:	5801                	li	a6,-32
     e72:	e604                	sd	s1,8(a2)
     e74:	ea05                	bnez	a2,ea4 <_tbss_end+0xea4>
     e76:	0105                	addi	sp,sp,1
     e78:	045c                	addi	a5,sp,516
     e7a:	05ea                	slli	a1,a1,0x1a
     e7c:	05ee                	slli	a1,a1,0x1b
     e7e:	5d01                	li	s10,-32
     e80:	fa04                	sd	s1,48(a2)
     e82:	a005                	j	ea2 <_tbss_end+0xea2>
     e84:	0106                	slli	sp,sp,0x1
     e86:	0458                	addi	a4,sp,516
     e88:	06bc                	addi	a5,sp,840
     e8a:	06be                	slli	a3,a3,0xf
     e8c:	5c01                	li	s8,-32
     e8e:	c204                	sw	s1,0(a2)
     e90:	c606                	sw	ra,12(sp)
     e92:	0106                	slli	sp,sp,0x1
     e94:	0058                	addi	a4,sp,4
     e96:	6a04                	ld	s1,16(a2)
     e98:	0172                	slli	sp,sp,0x1c
     e9a:	045f 7472 7f09      	.insn	6, 0x7f097472045f
     ea0:	1100                	addi	s0,sp,160
     ea2:	ffff                	.insn	2, 0xffff
     ea4:	9f1a5fff 01867404 	.insn	20, 0xffffefffffff102531007f15018674049f1a5fff
     eac:	31007f15 ffff1025 
     eb4:	ffffefff 
     eb8:	ffff                	.insn	2, 0xffff
     eba:	007f1a7f 9f211a31 	.insn	12, 0x8a0186049f211a31007f1a7f
     ec2:	8a018604 
     ec6:	1301                	addi	t1,t1,-32
     ec8:	007f 2531 ff10 ffff 	.insn	10, 0xffefffffff102531007f
     ed0:	ffef 
     ed2:	ffff                	.insn	2, 0xffff
     ed4:	7fff                	.insn	2, 0x7fff
     ed6:	7d1a                	ld	s10,416(sp)
     ed8:	2100                	.insn	2, 0x2100
     eda:	049f 018a 018c      	.insn	6, 0x018c018a049f
     ee0:	7f11                	lui	t5,0xfffe4
     ee2:	1000                	addi	s0,sp,32
     ee4:	ffff                	.insn	2, 0xffff
     ee6:	efff ffff ffff 1a7f 	.insn	22, 0x01e2045f0101ce01cc049f21007d1a7fffffffffefff
     eee:	007d 9f21 cc04 ce01 
     ef6:	0101 045f 01e2 
     efc:	01e6                	slli	gp,gp,0x19
     efe:	5f01                	li	t5,-32
     f00:	be04                	.insn	2, 0xbe04
     f02:	e602                	sd	zero,264(sp)
     f04:	0102                	c.slli64	sp
     f06:	045f 02f0 02fa      	.insn	6, 0x02fa02f0045f
     f0c:	7e08                	ld	a0,56(a2)
     f0e:	7f00                	ld	s0,56(a4)
     f10:	2200                	.insn	2, 0x2200
     f12:	2531                	addiw	a0,a0,12
     f14:	049f 02fa 0382      	.insn	6, 0x038202fa049f
     f1a:	7e05                	lui	t3,0xfffe1
     f1c:	3100                	.insn	2, 0x3100
     f1e:	9f25                	addw	a4,a4,s1
     f20:	9404                	.insn	2, 0x9404
     f22:	0103a603          	lw	a2,16(t2)
     f26:	045f 03a6 03a8      	.insn	6, 0x03a803a6045f
     f2c:	6201                	.insn	2, 0x6201
     f2e:	d204                	sw	s1,32(a2)
     f30:	0103d403          	lhu	s0,16(t2)
     f34:	045f 03f8 03fe      	.insn	6, 0x03fe03f8045f
     f3a:	5f01                	li	t5,-32
     f3c:	d204                	sw	s1,32(a2)
     f3e:	d404                	sw	s1,40(s0)
     f40:	0104                	addi	s1,sp,128
     f42:	045f 04e0 04f4      	.insn	6, 0x04f404e0045f
     f48:	5d01                	li	s10,-32
     f4a:	8e04                	.insn	2, 0x8e04
     f4c:	c205                	beqz	a2,f6c <_tbss_end+0xf6c>
     f4e:	0105                	addi	sp,sp,1
     f50:	0462                	slli	s0,s0,0x18
     f52:	05ca                	slli	a1,a1,0x12
     f54:	05ce                	slli	a1,a1,0x13
     f56:	5f01                	li	t5,-32
     f58:	ce04                	sw	s1,24(a2)
     f5a:	e405                	bnez	s0,f82 <_tbss_end+0xf82>
     f5c:	0105                	addi	sp,sp,1
     f5e:	0462                	slli	s0,s0,0x18
     f60:	05e4                	addi	s1,sp,716
     f62:	05e6                	slli	a1,a1,0x19
     f64:	5f01                	li	t5,-32
     f66:	ea04                	sd	s1,16(a2)
     f68:	ee05                	bnez	a2,fa0 <_tbss_end+0xfa0>
     f6a:	0805                	addi	a6,a6,1
     f6c:	007e                	c.slli	zero,0x1f
     f6e:	007f 3122 9f25 f004 	.insn	10, 0xf805f0049f253122007f
     f76:	f805 
     f78:	0105                	addi	sp,sp,1
     f7a:	045f 05f8 068a      	.insn	6, 0x068a05f8045f
     f80:	7f09                	lui	t5,0xfffe2
     f82:	1100                	addi	s0,sp,160
     f84:	ffff                	.insn	2, 0xffff
     f86:	9f1a5fff 9a068a04 	.insn	20, 0xc2045f0106a2069c045f01069a068a049f1a5fff
     f8e:	045f0106 06a2069c 
     f96:	c2045f01 
     f9a:	c406                	sw	ra,8(sp)
     f9c:	0906                	slli	s2,s2,0x1
     f9e:	007f ff11 ffff 1a5f 	.insn	10, 0x009f1a5fffffff11007f
     fa6:	009f 
     fa8:	6604                	ld	s1,8(a2)
     faa:	036a                	slli	t1,t1,0x1a
     fac:	7f7d                	lui	t5,0xfffff
     fae:	049f 0190 0194      	.insn	6, 0x01940190049f
     fb4:	9f7f7d03          	.insn	4, 0x9f7f7d03
     fb8:	9404                	.insn	2, 0x9404
     fba:	9801                	andi	s0,s0,-32
     fbc:	0701                	addi	a4,a4,0
     fbe:	007c                	addi	a5,sp,12
     fc0:	8020                	.insn	2, 0x8020
     fc2:	2200                	.insn	2, 0x2200
     fc4:	049f 01aa 01ce      	.insn	6, 0x01ce01aa049f
     fca:	5a01                	li	s4,-32
     fcc:	d004                	sw	s1,32(s0)
     fce:	dc01                	beqz	s0,ee6 <_tbss_end+0xee6>
     fd0:	0401                	addi	s0,s0,0
     fd2:	007d                	c.nop	31
     fd4:	9f1f dc04 de01      	.insn	6, 0xde01dc049f1f
     fda:	0401                	addi	s0,s0,0
     fdc:	007a                	c.slli	zero,0x1e
     fde:	9f1f de04 e201      	.insn	6, 0xe201de049f1f
     fe4:	0101                	addi	sp,sp,0
     fe6:	045d                	addi	s0,s0,23
     fe8:	01e6                	slli	gp,gp,0x19
     fea:	01ee                	slli	gp,gp,0x1b
     fec:	5d01                	li	s10,-32
     fee:	f404                	sd	s1,40(s0)
     ff0:	8401                	c.srai64	s0
     ff2:	0402                	c.slli64	s0
     ff4:	007d                	c.nop	31
     ff6:	9f1f 8404 8602      	.insn	6, 0x860284049f1f
     ffc:	0402                	c.slli64	s0
     ffe:	007a                	c.slli	zero,0x1e
    1000:	9f1f 8604 9a02      	.insn	6, 0x9a0286049f1f
    1006:	0102                	c.slli64	sp
    1008:	045d                	addi	s0,s0,23
    100a:	05e6                	slli	a1,a1,0x19
    100c:	05ea                	slli	a1,a1,0x1a
    100e:	7d04                	ld	s1,56(a0)
    1010:	1f00                	addi	s0,sp,944
    1012:	009f 8e04 9403      	.insn	6, 0x94038e04009f
    1018:	7f7d0303          	lb	t1,2039(s10)
    101c:	049f 03a8 03ac      	.insn	6, 0x03ac03a8049f
    1022:	9f7f7d03          	.insn	4, 0x9f7f7d03
    1026:	ac04                	.insn	2, 0xac04
    1028:	0703b003          	ld	zero,112(t2)
    102c:	007c                	addi	a5,sp,12
    102e:	8020                	.insn	2, 0x8020
    1030:	2200                	.insn	2, 0x2200
    1032:	049f 03b0 03d4      	.insn	6, 0x03d403b0049f
    1038:	5a01                	li	s4,-32
    103a:	e604                	sd	s1,8(a2)
    103c:	0403f203          	.insn	4, 0x0403f203
    1040:	007d                	c.nop	31
    1042:	9f1f f204 f403      	.insn	6, 0xf403f2049f1f
    1048:	007a0403          	lb	s0,7(s4)
    104c:	9f1f f404 f803      	.insn	6, 0xf803f4049f1f
    1052:	045d0103          	lb	sp,69(s10)
    1056:	03fe                	slli	t2,t2,0x1f
    1058:	0486                	slli	s1,s1,0x1
    105a:	5d01                	li	s10,-32
    105c:	8c04                	.insn	2, 0x8c04
    105e:	9c04                	.insn	2, 0x9c04
    1060:	0404                	addi	s1,sp,512
    1062:	007d                	c.nop	31
    1064:	9f1f 9c04 9e04      	.insn	6, 0x9e049c049f1f
    106a:	0604                	addi	s1,sp,768
    106c:	007c                	addi	a5,sp,12
    106e:	0080                	addi	s0,sp,64
    1070:	9f1c                	.insn	2, 0x9f1c
    1072:	9e04                	.insn	2, 0x9e04
    1074:	b204                	.insn	2, 0xb204
    1076:	0104                	addi	s1,sp,128
    1078:	045d                	addi	s0,s0,23
    107a:	06bc                	addi	a5,sp,840
    107c:	06be                	slli	a3,a3,0xf
    107e:	7d04                	ld	s1,56(a0)
    1080:	1f00                	addi	s0,sp,944
    1082:	009f a204 a605      	.insn	6, 0xa605a204009f
    1088:	0105                	addi	sp,sp,1
    108a:	045a                	slli	s0,s0,0x16
    108c:	05a6                	slli	a1,a1,0x9
    108e:	05b4                	addi	a3,sp,712
    1090:	5f01                	li	t5,-32
    1092:	b404                	.insn	2, 0xb404
    1094:	ce05                	beqz	a2,10cc <_tbss_end+0x10cc>
    1096:	0105                	addi	sp,sp,1
    1098:	045a                	slli	s0,s0,0x16
    109a:	05d8                	addi	a4,sp,708
    109c:	05de                	slli	a1,a1,0x17
    109e:	5f01                	li	t5,-32
    10a0:	de04                	sw	s1,56(a2)
    10a2:	e605                	bnez	a2,10ca <_tbss_end+0x10ca>
    10a4:	0305                	addi	t1,t1,1
    10a6:	5b7a                	lw	s6,188(sp)
    10a8:	009f b604 b806      	.insn	6, 0xb806b604009f
    10ae:	0206                	slli	tp,tp,0x1
    10b0:	f05a                	sd	s6,32(sp)
    10b2:	ab00                	.insn	2, 0xab00
    10b4:	0000                	unimp
    10b6:	0500                	addi	s0,sp,640
    10b8:	0800                	addi	s0,sp,16
    10ba:	0000                	unimp
    10bc:	0000                	unimp
    10be:	0400                	addi	s0,sp,512
    10c0:	2c00                	.insn	2, 0x2c00
    10c2:	5a01                	li	s4,-32
    10c4:	2c04                	.insn	2, 0x2c04
    10c6:	0632                	slli	a2,a2,0xc
    10c8:	0aa503a3          	sb	a0,167(a0)
    10cc:	9f2e                	add	t5,t5,a1
    10ce:	3204                	.insn	2, 0x3204
    10d0:	0136                	slli	sp,sp,0xd
    10d2:	045a                	slli	s0,s0,0x16
    10d4:	6636                	ld	a2,328(sp)
    10d6:	a306                	.insn	2, 0xa306
    10d8:	2e0aa503          	lw	a0,736(s5)
    10dc:	049f 6866 5a01      	.insn	6, 0x5a016866049f
    10e2:	6804                	ld	s1,16(s0)
    10e4:	066a                	slli	a2,a2,0x1a
    10e6:	0aa503a3          	sb	a0,167(a0)
    10ea:	9f2e                	add	t5,t5,a1
    10ec:	0400                	addi	s0,sp,512
    10ee:	6800                	ld	s0,16(s0)
    10f0:	3002                	.insn	2, 0x3002
    10f2:	009f 1804 014e      	.insn	6, 0x014e1804009f
    10f8:	045d                	addi	s0,s0,23
    10fa:	5a56                	lw	s4,116(sp)
    10fc:	5d01                	li	s10,-32
    10fe:	6604                	ld	s1,8(a2)
    1100:	0168                	addi	a0,sp,140
    1102:	005d                	c.nop	23
    1104:	1804                	addi	s1,sp,48
    1106:	093a                	slli	s2,s2,0xe
    1108:	007f ff0c ffff 1aff 	.insn	10, 0x049f1affffffff0c007f
    1110:	049f 
    1112:	4e3a                	lw	t3,140(sp)
    1114:	5a01                	li	s4,-32
    1116:	5604                	lw	s1,40(a2)
    1118:	0f5e                	slli	t5,t5,0x17
    111a:	007a                	c.slli	zero,0x1e
    111c:	9608                	.insn	2, 0x9608
    111e:	007f 0c1c ffff ffff 	.insn	10, 0x251affffffff0c1c007f
    1126:	251a 
    1128:	049f 6866 7f09      	.insn	6, 0x7f096866049f
    112e:	0c00                	addi	s0,sp,528
    1130:	ffff                	.insn	2, 0xffff
    1132:	ffff                	.insn	2, 0xffff
    1134:	9f1a                	add	t5,t5,t1
    1136:	0400                	addi	s0,sp,512
    1138:	3028                	.insn	2, 0x3028
    113a:	4005                	c.li	zero,1
    113c:	9f1f244b          	.insn	4, 0x9f1f244b
    1140:	3004                	.insn	2, 0x3004
    1142:	0732                	slli	a4,a4,0xc
    1144:	ff7e                	sd	t6,440(sp)
    1146:	ffff                	.insn	2, 0xffff
    1148:	07ff 049f 5446 5a01 	.insn	10, 0x64045a015446049f07ff
    1150:	6404 
    1152:	0166                	slli	sp,sp,0x19
    1154:	045a                	slli	s0,s0,0x16
    1156:	6a68                	ld	a0,208(a2)
    1158:	5a01                	li	s4,-32
    115a:	0400                	addi	s0,sp,512
    115c:	4e32                	lw	t3,12(sp)
    115e:	3002                	.insn	2, 0x3002
    1160:	009f 00a6 0000      	.insn	6, 0x00a6009f
    1166:	0005                	c.nop	1
    1168:	0008                	.insn	2, 0x0008
    116a:	0000                	unimp
    116c:	0000                	unimp
    116e:	0004                	.insn	2, 0x0004
    1170:	0124                	addi	s1,sp,136
    1172:	045a                	slli	s0,s0,0x16
    1174:	c424                	sw	s1,72(s0)
    1176:	0401                	addi	s0,s0,0
    1178:	9f5a01a3          	sb	s5,-1565(s4)
    117c:	c404                	sw	s1,8(s0)
    117e:	cc01                	beqz	s0,1196 <_tbss_end+0x1196>
    1180:	0101                	addi	sp,sp,0
    1182:	005a                	c.slli	zero,0x16
    1184:	0004                	.insn	2, 0x0004
    1186:	0242                	slli	tp,tp,0x10
    1188:	9f30                	.insn	2, 0x9f30
    118a:	5e04                	lw	s1,56(a2)
    118c:	01a4                	addi	s1,sp,200
    118e:	3002                	.insn	2, 0x3002
    1190:	049f 01a4 01ae      	.insn	6, 0x01ae01a4049f
    1196:	3102                	.insn	2, 0x3102
    1198:	049f 01c4 01cc      	.insn	6, 0x01cc01c4049f
    119e:	3002                	.insn	2, 0x3002
    11a0:	009f 1404 0142      	.insn	6, 0x01421404009f
    11a6:	0462                	slli	s0,s0,0x18
    11a8:	c45e                	sw	s7,8(sp)
    11aa:	0101                	addi	sp,sp,0
    11ac:	0062                	c.slli	zero,0x18
    11ae:	2e04                	.insn	2, 0x2e04
    11b0:	0148                	addi	a0,sp,132
    11b2:	045f c45e 0101      	.insn	6, 0x0101c45e045f
    11b8:	005f 3604 0144      	.insn	6, 0x01443604005f
    11be:	0458                	addi	a4,sp,516
    11c0:	018a                	slli	gp,gp,0x2
    11c2:	01a2                	slli	gp,gp,0x8
    11c4:	5901                	li	s2,-32
    11c6:	a204                	.insn	2, 0xa204
    11c8:	c401                	beqz	s0,11d0 <_tbss_end+0x11d0>
    11ca:	0101                	addi	sp,sp,0
    11cc:	0058                	addi	a4,sp,4
    11ce:	1004                	addi	s1,sp,32
    11d0:	0142                	slli	sp,sp,0x10
    11d2:	0459                	addi	s0,s0,22
    11d4:	785e                	ld	a6,496(sp)
    11d6:	5901                	li	s2,-32
    11d8:	8204                	.insn	2, 0x8204
    11da:	8401                	c.srai64	s0
    11dc:	0101                	addi	sp,sp,0
    11de:	0059                	c.nop	22
    11e0:	2804                	.insn	2, 0x2804
    11e2:	013e                	slli	sp,sp,0xf
    11e4:	045a                	slli	s0,s0,0x16
    11e6:	423e                	lw	tp,204(sp)
    11e8:	9f287a03          	.insn	4, 0x9f287a03
    11ec:	5e04                	lw	s1,56(a2)
    11ee:	0192                	slli	gp,gp,0x4
    11f0:	5a01                	li	s4,-32
    11f2:	9204                	.insn	2, 0x9204
    11f4:	9601                	srai	a2,a2,0x20
    11f6:	0301                	addi	t1,t1,0
    11f8:	257a                	.insn	2, 0x257a
    11fa:	009f a204 c401      	.insn	6, 0xc401a204009f
    1200:	0201                	addi	tp,tp,0 # 0 <_tbss_end>
    1202:	9f30                	.insn	2, 0x9f30
    1204:	0400                	addi	s0,sp,512
    1206:	5452                	lw	s0,52(sp)
    1208:	5a02                	lw	s4,32(sp)
    120a:	00f0                	addi	a2,sp,76
    120c:	00cc                	addi	a1,sp,68
    120e:	0000                	unimp
    1210:	0005                	c.nop	1
    1212:	0008                	.insn	2, 0x0008
    1214:	0000                	unimp
    1216:	0000                	unimp
    1218:	0004                	.insn	2, 0x0004
    121a:	0114                	addi	a3,sp,128
    121c:	045a                	slli	s0,s0,0x16
    121e:	3214                	.insn	2, 0x3214
    1220:	5901                	li	s2,-32
    1222:	3204                	.insn	2, 0x3204
    1224:	0446                	slli	s0,s0,0x11
    1226:	9f5a01a3          	sb	s5,-1565(s4)
    122a:	4604                	lw	s1,8(a2)
    122c:	0160                	addi	s0,sp,140
    122e:	0459                	addi	s0,s0,22
    1230:	ac60                	.insn	2, 0xac60
    1232:	0401                	addi	s0,s0,0
    1234:	9f5a01a3          	sb	s5,-1565(s4)
    1238:	ac04                	.insn	2, 0xac04
    123a:	b201                	j	b3a <_tbss_end+0xb3a>
    123c:	0101                	addi	sp,sp,0
    123e:	005a                	c.slli	zero,0x16
    1240:	0004                	.insn	2, 0x0004
    1242:	0232                	slli	tp,tp,0xc
    1244:	9f30                	.insn	2, 0x9f30
    1246:	4604                	lw	s1,8(a2)
    1248:	018c                	addi	a1,sp,192
    124a:	3002                	.insn	2, 0x3002
    124c:	049f 018c 0196      	.insn	6, 0x0196018c049f
    1252:	3102                	.insn	2, 0x3102
    1254:	049f 01ac 01b2      	.insn	6, 0x01b201ac049f
    125a:	3002                	.insn	2, 0x3002
    125c:	009f 1204 01ac      	.insn	6, 0x01ac1204009f
    1262:	3002                	.insn	2, 0x3002
    1264:	009f 1e04 0132      	.insn	6, 0x01321e04009f
    126a:	045f a646 0101      	.insn	6, 0x0101a646045f
    1270:	045f 01a6 01a8      	.insn	6, 0x01a801a6045f
    1276:	9f017f03          	.insn	4, 0x9f017f03
    127a:	a804                	.insn	2, 0xa804
    127c:	ac01                	j	148c <_tbss_end+0x148c>
    127e:	0101                	addi	sp,sp,0
    1280:	005f 2604 0134      	.insn	6, 0x01342604005f
    1286:	0458                	addi	a4,sp,516
    1288:	8a72                	mv	s4,t3
    128a:	0101                	addi	sp,sp,0
    128c:	0459                	addi	s0,s0,22
    128e:	018a                	slli	gp,gp,0x2
    1290:	01ac                	addi	a1,sp,200
    1292:	5801                	li	a6,-32
    1294:	0400                	addi	s0,sp,512
    1296:	1412                	slli	s0,s0,0x24
    1298:	5a01                	li	s4,-32
    129a:	1404                	addi	s1,sp,544
    129c:	0132                	slli	sp,sp,0xc
    129e:	0459                	addi	s0,s0,22
    12a0:	6046                	.insn	2, 0x6046
    12a2:	5901                	li	s2,-32
    12a4:	6004                	ld	s1,0(s0)
    12a6:	046a                	slli	s0,s0,0x1a
    12a8:	9f5a01a3          	sb	s5,-1565(s4)
    12ac:	6a04                	ld	s1,16(a2)
    12ae:	016c                	addi	a1,sp,140
    12b0:	0059                	c.nop	22
    12b2:	1804                	addi	s1,sp,48
    12b4:	012e                	slli	sp,sp,0xb
    12b6:	045a                	slli	s0,s0,0x16
    12b8:	322e                	.insn	2, 0x322e
    12ba:	9f287a03          	.insn	4, 0x9f287a03
    12be:	4604                	lw	s1,8(a2)
    12c0:	017a                	slli	sp,sp,0x1e
    12c2:	045a                	slli	s0,s0,0x16
    12c4:	fe7a                	sd	t5,312(sp)
    12c6:	0300                	addi	s0,sp,384
    12c8:	257a                	.insn	2, 0x257a
    12ca:	009f 8a04 ac01      	.insn	6, 0xac018a04009f
    12d0:	0201                	addi	tp,tp,0 # 0 <_tbss_end>
    12d2:	9f30                	.insn	2, 0x9f30
    12d4:	0400                	addi	s0,sp,512
    12d6:	3e3c                	.insn	2, 0x3e3c
    12d8:	5a02                	lw	s4,32(sp)
    12da:	00f0                	addi	a2,sp,76
    12dc:	000000cb          	.insn	4, 0x00cb
    12e0:	0005                	c.nop	1
    12e2:	0008                	.insn	2, 0x0008
    12e4:	0000                	unimp
    12e6:	0000                	unimp
    12e8:	0004                	.insn	2, 0x0004
    12ea:	012a                	slli	sp,sp,0xa
    12ec:	045a                	slli	s0,s0,0x16
    12ee:	422a                	lw	tp,136(sp)
    12f0:	a306                	.insn	2, 0xa306
    12f2:	2e0aa503          	lw	a0,736(s5)
    12f6:	049f 4842 5a01      	.insn	6, 0x5a014842049f
    12fc:	4804                	lw	s1,16(s0)
    12fe:	065c                	addi	a5,sp,772
    1300:	0aa503a3          	sb	a0,167(a0)
    1304:	9f2e                	add	t5,t5,a1
    1306:	5c04                	lw	s1,56(s0)
    1308:	016c                	addi	a1,sp,140
    130a:	005a                	c.slli	zero,0x16
    130c:	0004                	.insn	2, 0x0004
    130e:	022a                	slli	tp,tp,0xa
    1310:	9f30                	.insn	2, 0x9f30
    1312:	4204                	lw	s1,0(a2)
    1314:	0262                	slli	tp,tp,0x18
    1316:	9f30                	.insn	2, 0x9f30
    1318:	6204                	ld	s1,0(a2)
    131a:	026c                	addi	a1,sp,268
    131c:	9f40                	.insn	2, 0x9f40
    131e:	0400                	addi	s0,sp,512
    1320:	3e22                	.insn	2, 0x3e22
    1322:	7906                	ld	s2,96(sp)
    1324:	0800                	addi	s0,sp,16
    1326:	049f1aff 79066c42 	.insn	12, 0x1aff080079066c42049f1aff
    132e:	1aff0800 
    1332:	009f 1e04 0128      	.insn	6, 0x01281e04009f
    1338:	045f 2a28 7f04      	.insn	6, 0x7f042a28045f
    133e:	7980                	ld	s0,48(a1)
    1340:	049f 4b42 5f01      	.insn	6, 0x5f014b42049f
    1346:	5c04                	lw	s1,56(s0)
    1348:	0160                	addi	s0,sp,140
    134a:	045f 6c60 7a08      	.insn	6, 0x7a086c60045f
    1350:	4700                	lw	s0,8(a4)
    1352:	0825                	addi	a6,a6,9
    1354:	009f1aff 012a1e04 	.insn	12, 0x54420458012a1e04009f1aff
    135c:	54420458 
    1360:	5801                	li	a6,-32
    1362:	5c04                	lw	s1,56(s0)
    1364:	0166                	slli	sp,sp,0x19
    1366:	0458                	addi	a4,sp,516
    1368:	6c66                	ld	s8,88(sp)
    136a:	7a09                	lui	s4,0xfffe2
    136c:	0800                	addi	s0,sp,16
    136e:	2429                	addiw	s0,s0,10
    1370:	2908                	.insn	2, 0x2908
    1372:	9f25                	addw	a4,a4,s1
    1374:	0400                	addi	s0,sp,512
    1376:	3028                	.insn	2, 0x3028
    1378:	5f01                	li	t5,-32
    137a:	5a04                	lw	s1,48(a2)
    137c:	015c                	addi	a5,sp,132
    137e:	045f 6c5c 0a04      	.insn	6, 0x0a046c5c045f
    1384:	07ff 009f 2204 012c 	.insn	10, 0x0458012c2204009f07ff
    138c:	0458 
    138e:	6c42                	ld	s8,16(sp)
    1390:	5801                	li	a6,-32
    1392:	0400                	addi	s0,sp,512
    1394:	3c3a                	.insn	2, 0x3c3a
    1396:	7f08                	ld	a0,56(a4)
    1398:	7a00                	ld	s0,48(a2)
    139a:	2100                	.insn	2, 0x2100
    139c:	35a9                	addiw	a1,a1,-22
    139e:	049f 423c 5a01      	.insn	6, 0x5a01423c049f
    13a4:	0400                	addi	s0,sp,512
    13a6:	5c4c                	lw	a1,60(s0)
    13a8:	5a01                	li	s4,-32
    13aa:	5700                	lw	s0,40(a4)
    13ac:	0001                	nop
    13ae:	0500                	addi	s0,sp,640
    13b0:	0800                	addi	s0,sp,16
    13b2:	0000                	unimp
    13b4:	0000                	unimp
    13b6:	0400                	addi	s0,sp,512
    13b8:	1a00                	addi	s0,sp,304
    13ba:	5a01                	li	s4,-32
    13bc:	1a04                	addi	s1,sp,304
    13be:	01d8                	addi	a4,sp,196
    13c0:	a306                	.insn	2, 0xa306
    13c2:	2e0aa503          	lw	a0,736(s5)
    13c6:	009f 0004 0252      	.insn	6, 0x02520004009f
    13cc:	9f30                	.insn	2, 0x9f30
    13ce:	5a04                	lw	s1,48(a2)
    13d0:	0262                	slli	tp,tp,0x18
    13d2:	9f30                	.insn	2, 0x9f30
    13d4:	6604                	ld	s1,8(a2)
    13d6:	0274                	addi	a3,sp,268
    13d8:	9f30                	.insn	2, 0x9f30
    13da:	7e04                	ld	s1,56(a2)
    13dc:	0184                	addi	s1,sp,192
    13de:	3002                	.insn	2, 0x3002
    13e0:	049f 01c2 01c6      	.insn	6, 0x01c601c2049f
    13e6:	3002                	.insn	2, 0x3002
    13e8:	009f 1a04 01ae      	.insn	6, 0x01ae1a04009f
    13ee:	5a01                	li	s4,-32
    13f0:	ae04                	.insn	2, 0xae04
    13f2:	b001                	j	bf2 <_tbss_end+0xbf2>
    13f4:	0201                	addi	tp,tp,0 # 0 <_tbss_end>
    13f6:	9f30                	.insn	2, 0x9f30
    13f8:	c204                	sw	s1,0(a2)
    13fa:	d801                	beqz	s0,130a <_tbss_end+0x130a>
    13fc:	0101                	addi	sp,sp,0
    13fe:	005a                	c.slli	zero,0x16
    1400:	1804                	addi	s1,sp,48
    1402:	0122                	slli	sp,sp,0x8
    1404:	045e                	slli	s0,s0,0x17
    1406:	4222                	lw	tp,8(sp)
    1408:	7e04                	ld	s1,56(a2)
    140a:	0780                	addi	s0,sp,960
    140c:	049f 625a 7e04      	.insn	6, 0x7e04625a049f
    1412:	0780                	addi	s0,sp,960
    1414:	049f 7266 5e01      	.insn	6, 0x5e017266049f
    141a:	7e04                	ld	s1,56(a2)
    141c:	0184                	addi	s1,sp,192
    141e:	7e04                	ld	s1,56(a2)
    1420:	0780                	addi	s0,sp,960
    1422:	049f 01c2 01c6      	.insn	6, 0x01c601c2049f
    1428:	7e04                	ld	s1,56(a2)
    142a:	0780                	addi	s0,sp,960
    142c:	009f 1804 011c      	.insn	6, 0x011c1804009f
    1432:	045d                	addi	s0,s0,23
    1434:	4a1c                	lw	a5,16(a2)
    1436:	5f01                	li	t5,-32
    1438:	5004                	lw	s1,32(s0)
    143a:	0152                	slli	sp,sp,0x14
    143c:	045f 5e5a 5f01      	.insn	6, 0x5f015e5a045f
    1442:	6604                	ld	s1,8(a2)
    1444:	016c                	addi	a1,sp,140
    1446:	045f 746e 5f01      	.insn	6, 0x5f01746e045f
    144c:	7404                	ld	s1,40(s0)
    144e:	0576                	slli	a0,a0,0x1d
    1450:	007f 254d 049f 7876 	.insn	10, 0x5f017876049f254d007f
    1458:	5f01 
    145a:	7e04                	ld	s1,56(a2)
    145c:	0180                	addi	s0,sp,192
    145e:	5f01                	li	t5,-32
    1460:	c204                	sw	s1,0(a2)
    1462:	c401                	beqz	s0,146a <_tbss_end+0x146a>
    1464:	0101                	addi	sp,sp,0
    1466:	005f 1c04 01ae      	.insn	6, 0x01ae1c04005f
    146c:	5a01                	li	s4,-32
    146e:	ae04                	.insn	2, 0xae04
    1470:	b001                	j	c70 <_tbss_end+0xc70>
    1472:	0201                	addi	tp,tp,0 # 0 <_tbss_end>
    1474:	9f30                	.insn	2, 0x9f30
    1476:	c204                	sw	s1,0(a2)
    1478:	d801                	beqz	s0,1388 <_tbss_end+0x1388>
    147a:	0101                	addi	sp,sp,0
    147c:	005a                	c.slli	zero,0x16
    147e:	2204                	.insn	2, 0x2204
    1480:	0142                	slli	sp,sp,0x10
    1482:	045e                	slli	s0,s0,0x17
    1484:	6252                	ld	tp,272(sp)
    1486:	5e01                	li	t3,-32
    1488:	6804                	ld	s1,16(s0)
    148a:	026e                	slli	tp,tp,0x1b
    148c:	9f30                	.insn	2, 0x9f30
    148e:	6e04                	ld	s1,24(a2)
    1490:	037e                	slli	t1,t1,0x1f
    1492:	ff08                	sd	a0,56(a4)
    1494:	049f 847e 0101      	.insn	6, 0x0101847e049f
    149a:	045e                	slli	s0,s0,0x17
    149c:	018e                	slli	gp,gp,0x3
    149e:	01b4                	addi	a3,sp,200
    14a0:	5e01                	li	t3,-32
    14a2:	c204                	sw	s1,0(a2)
    14a4:	d801                	beqz	s0,13b4 <_tbss_end+0x13b4>
    14a6:	0101                	addi	sp,sp,0
    14a8:	005e                	c.slli	zero,0x17
    14aa:	5204                	lw	s1,32(a2)
    14ac:	015a                	slli	sp,sp,0x16
    14ae:	045f 6664 5f01      	.insn	6, 0x5f016664045f
    14b4:	7404                	ld	s1,40(s0)
    14b6:	0576                	slli	a0,a0,0x1d
    14b8:	007f 254d 049f 7e76 	.insn	10, 0x5f017e76049f254d007f
    14c0:	5f01 
    14c2:	8404                	.insn	2, 0x8404
    14c4:	8c01                	sub	s0,s0,s0
    14c6:	0101                	addi	sp,sp,0
    14c8:	045f 018c 019e      	.insn	6, 0x019e018c045f
    14ce:	7f09                	lui	t5,0xfffe2
    14d0:	1100                	addi	s0,sp,160
    14d2:	ffff                	.insn	2, 0xffff
    14d4:	9f1a5fff ae019e04 	.insn	20, 0xc6045f0101ba01b0045f0101ae019e049f1a5fff
    14dc:	045f0101 01ba01b0 
    14e4:	c6045f01 
    14e8:	d401                	beqz	s0,13f0 <_tbss_end+0x13f0>
    14ea:	0101                	addi	sp,sp,0
    14ec:	045f 01d4 01d6      	.insn	6, 0x01d601d4045f
    14f2:	7f09                	lui	t5,0xfffe2
    14f4:	1100                	addi	s0,sp,160
    14f6:	ffff                	.insn	2, 0xffff
    14f8:	9f1a5fff 01be0400 	.insn	20, 0x00050000004200f05a0201c001be04009f1a5fff
    1500:	5a0201c0 004200f0 
    1508:	00050000 
    150c:	0008                	.insn	2, 0x0008
    150e:	0000                	unimp
    1510:	0000                	unimp
    1512:	0004                	.insn	2, 0x0004
    1514:	0122                	slli	sp,sp,0x8
    1516:	045a                	slli	s0,s0,0x16
    1518:	3622                	.insn	2, 0x3622
    151a:	a304                	.insn	2, 0xa304
    151c:	5a01                	li	s4,-32
    151e:	049f 3c36 5a01      	.insn	6, 0x5a013c36049f
    1524:	0400                	addi	s0,sp,512
    1526:	2200                	.insn	2, 0x2200
    1528:	5a01                	li	s4,-32
    152a:	2204                	.insn	2, 0x2204
    152c:	0436                	slli	s0,s0,0xd
    152e:	9f5a01a3          	sb	s5,-1565(s4) # fffffffffffe19e3 <__stack_pointer$+0xffffffff77fe1de3>
    1532:	3604                	.insn	2, 0x3604
    1534:	013c                	addi	a5,sp,136
    1536:	005a                	c.slli	zero,0x16
    1538:	0004                	.insn	2, 0x0004
    153a:	030a                	slli	t1,t1,0x2
    153c:	3808                	.insn	2, 0x3808
    153e:	049f 180a 5f01      	.insn	6, 0x5f01180a049f
    1544:	3604                	.insn	2, 0x3604
    1546:	033c                	addi	a5,sp,392
    1548:	3808                	.insn	2, 0x3808
    154a:	Address 0x154a is out of bounds.


Disassembly of section .debug_aranges:

0000000000000000 <.debug_aranges>:
   0:	002c                	addi	a1,sp,8
   2:	0000                	unimp
   4:	0002                	c.slli64	zero
   6:	0000                	unimp
   8:	0000                	unimp
   a:	0008                	.insn	2, 0x0008
   c:	0000                	unimp
   e:	0000                	unimp
  10:	2f1a                	.insn	2, 0x2f1a
  12:	8000                	.insn	2, 0x8000
  14:	0000                	unimp
  16:	0000                	unimp
  18:	033a                	slli	t1,t1,0xe
	...
  2e:	0000                	unimp
  30:	002c                	addi	a1,sp,8
  32:	0000                	unimp
  34:	0002                	c.slli64	zero
  36:	032d                	addi	t1,t1,11
  38:	0000                	unimp
  3a:	0008                	.insn	2, 0x0008
  3c:	0000                	unimp
  3e:	0000                	unimp
  40:	3254                	.insn	2, 0x3254
  42:	8000                	.insn	2, 0x8000
  44:	0000                	unimp
  46:	0000                	unimp
  48:	006e                	c.slli	zero,0x1b
	...
  5e:	0000                	unimp
  60:	002c                	addi	a1,sp,8
  62:	0000                	unimp
  64:	0002                	c.slli64	zero
  66:	0539                	addi	a0,a0,14
  68:	0000                	unimp
  6a:	0008                	.insn	2, 0x0008
  6c:	0000                	unimp
  6e:	0000                	unimp
  70:	32c2                	.insn	2, 0x32c2
  72:	8000                	.insn	2, 0x8000
  74:	0000                	unimp
  76:	0000                	unimp
  78:	0080                	addi	s0,sp,64
	...
  8e:	0000                	unimp
  90:	002c                	addi	a1,sp,8
  92:	0000                	unimp
  94:	0002                	c.slli64	zero
  96:	074d                	addi	a4,a4,19
  98:	0000                	unimp
  9a:	0008                	.insn	2, 0x0008
  9c:	0000                	unimp
  9e:	0000                	unimp
  a0:	3342                	.insn	2, 0x3342
  a2:	8000                	.insn	2, 0x8000
  a4:	0000                	unimp
  a6:	0000                	unimp
  a8:	020a                	slli	tp,tp,0x2
	...
  be:	0000                	unimp
  c0:	002c                	addi	a1,sp,8
  c2:	0000                	unimp
  c4:	0002                	c.slli64	zero
  c6:	00000a0f          	.insn	4, 0x0a0f
  ca:	0008                	.insn	2, 0x0008
  cc:	0000                	unimp
  ce:	0000                	unimp
  d0:	354c                	.insn	2, 0x354c
  d2:	8000                	.insn	2, 0x8000
  d4:	0000                	unimp
  d6:	0000                	unimp
  d8:	0346                	slli	t1,t1,0x11
	...
  ee:	0000                	unimp
  f0:	002c                	addi	a1,sp,8
  f2:	0000                	unimp
  f4:	0002                	c.slli64	zero
  f6:	0d34                	addi	a3,sp,664
  f8:	0000                	unimp
  fa:	0008                	.insn	2, 0x0008
  fc:	0000                	unimp
  fe:	0000                	unimp
 100:	3892                	.insn	2, 0x3892
 102:	8000                	.insn	2, 0x8000
 104:	0000                	unimp
 106:	0000                	unimp
 108:	006a                	c.slli	zero,0x1a
	...
 11e:	0000                	unimp
 120:	002c                	addi	a1,sp,8
 122:	0000                	unimp
 124:	0002                	c.slli64	zero
 126:	0ef8                	addi	a4,sp,860
 128:	0000                	unimp
 12a:	0008                	.insn	2, 0x0008
 12c:	0000                	unimp
 12e:	0000                	unimp
 130:	38fc                	.insn	2, 0x38fc
 132:	8000                	.insn	2, 0x8000
 134:	0000                	unimp
 136:	0000                	unimp
 138:	00cc                	addi	a1,sp,68
	...
 14e:	0000                	unimp
 150:	002c                	addi	a1,sp,8
 152:	0000                	unimp
 154:	0002                	c.slli64	zero
 156:	00001137          	lui	sp,0x1
 15a:	0008                	.insn	2, 0x0008
 15c:	0000                	unimp
 15e:	0000                	unimp
 160:	39c8                	.insn	2, 0x39c8
 162:	8000                	.insn	2, 0x8000
 164:	0000                	unimp
 166:	0000                	unimp
 168:	00b2                	slli	ra,ra,0xc
	...
 17e:	0000                	unimp
 180:	002c                	addi	a1,sp,8
 182:	0000                	unimp
 184:	0002                	c.slli64	zero
 186:	135f 0000 0008      	.insn	6, 0x00080000135f
 18c:	0000                	unimp
 18e:	0000                	unimp
 190:	3a7a                	.insn	2, 0x3a7a
 192:	8000                	.insn	2, 0x8000
 194:	0000                	unimp
 196:	0000                	unimp
 198:	006c                	addi	a1,sp,12
	...
 1ae:	0000                	unimp
 1b0:	002c                	addi	a1,sp,8
 1b2:	0000                	unimp
 1b4:	0002                	c.slli64	zero
 1b6:	000015c7          	.insn	4, 0x15c7
 1ba:	0008                	.insn	2, 0x0008
 1bc:	0000                	unimp
 1be:	0000                	unimp
 1c0:	3ae6                	.insn	2, 0x3ae6
 1c2:	8000                	.insn	2, 0x8000
 1c4:	0000                	unimp
 1c6:	0000                	unimp
 1c8:	00d8                	addi	a4,sp,68
	...
 1de:	0000                	unimp
 1e0:	002c                	addi	a1,sp,8
 1e2:	0000                	unimp
 1e4:	0002                	c.slli64	zero
 1e6:	0000183b          	sllw	a6,zero,zero
 1ea:	0008                	.insn	2, 0x0008
 1ec:	0000                	unimp
 1ee:	0000                	unimp
 1f0:	3bbe                	.insn	2, 0x3bbe
 1f2:	8000                	.insn	2, 0x8000
 1f4:	0000                	unimp
 1f6:	0000                	unimp
 1f8:	003c                	addi	a5,sp,8
	...
 20e:	0000                	unimp
 210:	001c                	.insn	2, 0x001c
 212:	0000                	unimp
 214:	0002                	c.slli64	zero
 216:	19a9                	addi	s3,s3,-22
 218:	0000                	unimp
 21a:	0008                	.insn	2, 0x0008
	...

Disassembly of section .debug_rnglists:

0000000000000000 <.debug_rnglists>:
   0:	0096                	slli	ra,ra,0x5
   2:	0000                	unimp
   4:	0005                	c.nop	1
   6:	0008                	.insn	2, 0x0008
   8:	0000                	unimp
   a:	0000                	unimp
   c:	0004                	.insn	2, 0x0004
   e:	0402                	c.slli64	s0
  10:	0604                	addi	s1,sp,768
  12:	0a04                	addi	s1,sp,272
  14:	0412                	slli	s0,s0,0x4
  16:	201c                	.insn	2, 0x201c
  18:	2404                	.insn	2, 0x2404
  1a:	0028                	addi	a0,sp,8
  1c:	0604                	addi	s1,sp,768
  1e:	040a                	slli	s0,s0,0x2
  20:	1614                	addi	a3,sp,800
  22:	1804                	addi	s1,sp,48
  24:	041c                	addi	a5,sp,512
  26:	2a28                	.insn	2, 0x2a28
  28:	3004                	.insn	2, 0x3004
  2a:	0030                	addi	a2,sp,8
  2c:	3804                	.insn	2, 0x3804
  2e:	047a                	slli	s0,s0,0x1e
  30:	d07e                	sw	t6,32(sp)
  32:	0401                	addi	s0,s0,0
  34:	01d6                	slli	gp,gp,0x15
  36:	02b4                	addi	a3,sp,328
  38:	ca04                	sw	s1,16(a2)
  3a:	ce02                	sw	zero,28(sp)
  3c:	0402                	c.slli64	s0
  3e:	02d2                	slli	t0,t0,0x14
  40:	02ec                	addi	a1,sp,332
  42:	9c04                	.insn	2, 0x9c04
  44:	a806                	.insn	2, 0xa806
  46:	0006                	c.slli	zero,0x1
  48:	7a04                	ld	s1,48(a2)
  4a:	047e                	slli	s0,s0,0x1f
  4c:	01d0                	addi	a2,sp,196
  4e:	01d6                	slli	gp,gp,0x15
  50:	b404                	.insn	2, 0xb404
  52:	b402                	.insn	2, 0xb402
  54:	0402                	c.slli64	s0
  56:	02ce                	slli	t0,t0,0x13
  58:	02d2                	slli	t0,t0,0x14
  5a:	ec04                	sd	s1,24(s0)
  5c:	f402                	sd	zero,40(sp)
  5e:	0404                	addi	s1,sp,512
  60:	05c4                	addi	s1,sp,708
  62:	069c                	addi	a5,sp,832
  64:	a804                	.insn	2, 0xa804
  66:	b606                	.insn	2, 0xb606
  68:	0006                	c.slli	zero,0x1
  6a:	8a04                	.insn	2, 0x8a04
  6c:	04039203          	lh	tp,64(t2)
  70:	05d6                	slli	a1,a1,0x15
  72:	0686                	slli	a3,a3,0x1
  74:	8e04                	.insn	2, 0x8e04
  76:	9c06                	add	s8,s8,ra
  78:	0006                	c.slli	zero,0x1
  7a:	b404                	.insn	2, 0xb404
  7c:	ca02                	sw	zero,20(sp)
  7e:	0402                	c.slli64	s0
  80:	04f4                	addi	a3,sp,588
  82:	05a0                	addi	s0,sp,712
  84:	b604                	.insn	2, 0xb604
  86:	ba06                	.insn	2, 0xba06
  88:	0006                	c.slli	zero,0x1
  8a:	a004                	.insn	2, 0xa004
  8c:	a405                	j	2ac <_tbss_end+0x2ac>
  8e:	0405                	addi	s0,s0,1
  90:	05a6                	slli	a1,a1,0x9
  92:	05b0                	addi	a2,sp,712
  94:	b204                	.insn	2, 0xb204
  96:	ba05                	j	fffffffffffff9c6 <__stack_pointer$+0xffffffff77fffdc6>
  98:	0005                	c.nop	1
  9a:	001f 0000 0005      	.insn	6, 0x00050000001f
  a0:	0008                	.insn	2, 0x0008
  a2:	0000                	unimp
  a4:	0000                	unimp
  a6:	0004                	.insn	2, 0x0004
  a8:	040e                	slli	s0,s0,0x3
  aa:	1614                	addi	a3,sp,800
  ac:	1804                	addi	s1,sp,48
  ae:	041c                	addi	a5,sp,512
  b0:	2820                	.insn	2, 0x2820
  b2:	0400                	addi	s0,sp,512
  b4:	140e                	slli	s0,s0,0x23
  b6:	1604                	addi	s1,sp,800
  b8:	0418                	addi	a4,sp,512
  ba:	3228                	.insn	2, 0x3228
  bc:	2a00                	.insn	2, 0x2a00
  be:	0000                	unimp
  c0:	0500                	addi	s0,sp,640
  c2:	0800                	addi	s0,sp,16
  c4:	0000                	unimp
  c6:	0000                	unimp
  c8:	0400                	addi	s0,sp,512
  ca:	0e00                	addi	s0,sp,784
  cc:	1004                	addi	s1,sp,32
  ce:	0416                	slli	s0,s0,0x5
  d0:	201c                	.insn	2, 0x201c
  d2:	2404                	.insn	2, 0x2404
  d4:	0026                	c.slli	zero,0x9
  d6:	0e04                	addi	s1,sp,784
  d8:	0410                	addi	a2,sp,512
  da:	1c16                	slli	s8,s8,0x25
  dc:	2604                	.insn	2, 0x2604
  de:	0030                	addi	a2,sp,8
  e0:	4004                	lw	s1,0(s0)
  e2:	0460                	addi	s0,sp,524
  e4:	7264                	ld	s1,224(a2)
  e6:	7404                	ld	s1,40(s0)
  e8:	0180                	addi	s0,sp,192
  ea:	5c00                	lw	s0,56(s0)
  ec:	0000                	unimp
  ee:	0500                	addi	s0,sp,640
  f0:	0800                	addi	s0,sp,16
  f2:	0000                	unimp
  f4:	0000                	unimp
  f6:	0400                	addi	s0,sp,512
  f8:	0000                	unimp
  fa:	0e04                	addi	s1,sp,784
  fc:	0412                	slli	s0,s0,0x4
  fe:	241e                	.insn	2, 0x241e
 100:	d204                	sw	s1,32(a2)
 102:	d601                	beqz	a2,a <_tbss_end+0xa>
 104:	0401                	addi	s0,s0,0
 106:	01de                	slli	gp,gp,0x17
 108:	01e0                	addi	s0,sp,204
 10a:	0400                	addi	s0,sp,512
 10c:	3e3c                	.insn	2, 0x3e3c
 10e:	b604                	.insn	2, 0xb604
 110:	d201                	beqz	a2,10 <_tbss_end+0x10>
 112:	0001                	nop
 114:	3e04                	.insn	2, 0x3e04
 116:	0450                	addi	a2,sp,516
 118:	0280                	addi	s0,sp,320
 11a:	0284                	addi	s1,sp,320
 11c:	8c04                	.insn	2, 0x8c04
 11e:	8e02                	jr	t3
 120:	0402                	c.slli64	s0
 122:	02aa                	slli	t0,t0,0xa
 124:	02ac                	addi	a1,sp,328
 126:	0400                	addi	s0,sp,512
 128:	6866                	ld	a6,88(sp)
 12a:	e604                	sd	s1,8(a2)
 12c:	8001                	c.srli64	s0
 12e:	0002                	c.slli64	zero
 130:	f804                	sd	s1,48(s0)
 132:	f802                	sd	zero,48(sp)
 134:	0402                	c.slli64	s0
 136:	02fc                	addi	a5,sp,332
 138:	038c                	addi	a1,sp,448
 13a:	9404                	.insn	2, 0x9404
 13c:	00039803          	lh	a6,0(t2)
 140:	b004                	.insn	2, 0xb004
 142:	0403f003          	.insn	4, 0x0403f003
 146:	0484                	addi	s1,sp,576
 148:	048a                	slli	s1,s1,0x2
 14a:	8600                	.insn	2, 0x8600
 14c:	0000                	unimp
 14e:	0500                	addi	s0,sp,640
 150:	0800                	addi	s0,sp,16
 152:	0000                	unimp
 154:	0000                	unimp
 156:	0400                	addi	s0,sp,512
 158:	0a00                	addi	s0,sp,272
 15a:	3a04                	.insn	2, 0x3a04
 15c:	0040                	addi	s0,sp,4
 15e:	0e04                	addi	s1,sp,784
 160:	0410                	addi	a2,sp,512
 162:	4440                	lw	s0,12(s0)
 164:	0400                	addi	s0,sp,512
 166:	564e                	lw	a2,240(sp)
 168:	5a04                	lw	s1,48(a2)
 16a:	0198                	addi	a4,sp,192
 16c:	9c04                	.insn	2, 0x9c04
 16e:	ee01                	bnez	a2,186 <_tbss_end+0x186>
 170:	0401                	addi	s0,s0,0
 172:	01f4                	addi	a3,sp,204
 174:	02d0                	addi	a2,sp,324
 176:	e604                	sd	s1,8(a2)
 178:	e802                	sd	zero,16(sp)
 17a:	0402                	c.slli64	s0
 17c:	02f0                	addi	a2,sp,332
 17e:	0382                	c.slli64	t2
 180:	e604                	sd	s1,8(a2)
 182:	f005                	bnez	s0,a2 <_tbss_end+0xa2>
 184:	0005                	c.nop	1
 186:	9804                	.insn	2, 0x9804
 188:	9c01                	subw	s0,s0,s0
 18a:	0401                	addi	s0,s0,0
 18c:	01ee                	slli	gp,gp,0x1b
 18e:	01f4                	addi	a3,sp,204
 190:	d004                	sw	s1,32(s0)
 192:	d002                	sw	zero,32(sp)
 194:	0402                	c.slli64	s0
 196:	02e8                	addi	a0,sp,332
 198:	02f0                	addi	a2,sp,332
 19a:	8204                	.insn	2, 0x8204
 19c:	0405e603          	lwu	a2,64(a1)
 1a0:	06bc                	addi	a5,sp,840
 1a2:	06c2                	slli	a3,a3,0x10
 1a4:	0400                	addi	s0,sp,512
 1a6:	039c                	addi	a5,sp,448
 1a8:	03a8                	addi	a0,sp,456
 1aa:	9c04                	.insn	2, 0x9c04
 1ac:	ce05                	beqz	a2,1e4 <_tbss_end+0x1e4>
 1ae:	0405                	addi	s0,s0,1
 1b0:	05d8                	addi	a4,sp,708
 1b2:	05e6                	slli	a1,a1,0x19
 1b4:	0400                	addi	s0,sp,512
 1b6:	02d0                	addi	a2,sp,324
 1b8:	02e6                	slli	t0,t0,0x19
 1ba:	f004                	sd	s1,32(s0)
 1bc:	9c05                	subw	s0,s0,s1
 1be:	0406                	slli	s0,s0,0x1
 1c0:	06c2                	slli	a3,a3,0x10
 1c2:	06c6                	slli	a3,a3,0x11
 1c4:	0400                	addi	s0,sp,512
 1c6:	069c                	addi	a5,sp,832
 1c8:	06a8                	addi	a0,sp,840
 1ca:	aa04                	.insn	2, 0xaa04
 1cc:	ac06                	.insn	2, 0xac06
 1ce:	0406                	slli	s0,s0,0x1
 1d0:	06ae                	slli	a3,a3,0xb
 1d2:	06b2                	slli	a3,a3,0xc
 1d4:	1900                	addi	s0,sp,176
 1d6:	0000                	unimp
 1d8:	0500                	addi	s0,sp,640
 1da:	0800                	addi	s0,sp,16
 1dc:	0000                	unimp
 1de:	0000                	unimp
 1e0:	0400                	addi	s0,sp,512
 1e2:	1200                	addi	s0,sp,288
 1e4:	1604                	addi	s1,sp,800
 1e6:	041c                	addi	a5,sp,512
 1e8:	3832                	.insn	2, 0x3832
 1ea:	0400                	addi	s0,sp,512
 1ec:	3232                	.insn	2, 0x3232
 1ee:	3804                	.insn	2, 0x3804
 1f0:	0066                	c.slli	zero,0x19
 1f2:	0026                	c.slli	zero,0x9
 1f4:	0000                	unimp
 1f6:	0005                	c.nop	1
 1f8:	0008                	.insn	2, 0x0008
 1fa:	0000                	unimp
 1fc:	0000                	unimp
 1fe:	0004                	.insn	2, 0x0004
 200:	0400                	addi	s0,sp,512
 202:	420a                	lw	tp,128(sp)
 204:	5e04                	lw	s1,56(a2)
 206:	01cc                	addi	a1,sp,196
 208:	0400                	addi	s0,sp,512
 20a:	420c                	lw	a1,0(a2)
 20c:	5e04                	lw	s1,56(a2)
 20e:	01c4                	addi	s1,sp,196
 210:	0400                	addi	s0,sp,512
 212:	019c                	addi	a5,sp,192
 214:	01a0                	addi	s0,sp,200
 216:	a204                	.insn	2, 0xa204
 218:	c401                	beqz	s0,220 <_tbss_end+0x220>
 21a:	0001                	nop
 21c:	002d                	c.nop	11
 21e:	0000                	unimp
 220:	0005                	c.nop	1
 222:	0008                	.insn	2, 0x0008
 224:	0000                	unimp
 226:	0000                	unimp
 228:	0004                	.insn	2, 0x0004
 22a:	0400                	addi	s0,sp,512
 22c:	3208                	.insn	2, 0x3208
 22e:	4604                	lw	s1,8(a2)
 230:	01b2                	slli	gp,gp,0xc
 232:	0400                	addi	s0,sp,512
 234:	320a                	.insn	2, 0x320a
 236:	4604                	lw	s1,8(a2)
 238:	01ac                	addi	a1,sp,200
 23a:	0400                	addi	s0,sp,512
 23c:	120a                	slli	tp,tp,0x22
 23e:	1204                	addi	s1,sp,288
 240:	001e                	c.slli	zero,0x7
 242:	8404                	.insn	2, 0x8404
 244:	8801                	andi	s0,s0,0
 246:	0401                	addi	s0,s0,0
 248:	018a                	slli	gp,gp,0x2
 24a:	01ac                	addi	a1,sp,200
 24c:	1c00                	addi	s0,sp,560
 24e:	0000                	unimp
 250:	0500                	addi	s0,sp,640
 252:	0800                	addi	s0,sp,16
 254:	0000                	unimp
 256:	0000                	unimp
 258:	0400                	addi	s0,sp,512
 25a:	0800                	addi	s0,sp,16
 25c:	1204                	addi	s1,sp,288
 25e:	0416                	slli	s0,s0,0x5
 260:	221c                	.insn	2, 0x221c
 262:	0400                	addi	s0,sp,512
 264:	302a                	.insn	2, 0x302a
 266:	3204                	.insn	2, 0x3204
 268:	0434                	addi	a3,sp,520
 26a:	3a36                	.insn	2, 0x3a36
 26c:	2000                	.insn	2, 0x2000
 26e:	0000                	unimp
 270:	0500                	addi	s0,sp,640
 272:	0800                	addi	s0,sp,16
 274:	0000                	unimp
 276:	0000                	unimp
 278:	0400                	addi	s0,sp,512
 27a:	0800                	addi	s0,sp,16
 27c:	0c04                	addi	s1,sp,528
 27e:	0410                	addi	a2,sp,512
 280:	1a14                	addi	a3,sp,304
 282:	0400                	addi	s0,sp,512
 284:	5a52                	lw	s4,52(sp)
 286:	8404                	.insn	2, 0x8404
 288:	b001                	j	fffffffffffffa88 <__stack_pointer$+0xffffffff77fffe88>
 28a:	0401                	addi	s0,s0,0
 28c:	01c6                	slli	gp,gp,0x11
 28e:	01d8                	addi	a4,sp,196
 290:	1200                	addi	s0,sp,288
 292:	0000                	unimp
 294:	0500                	addi	s0,sp,640
 296:	0800                	addi	s0,sp,16
 298:	0000                	unimp
 29a:	0000                	unimp
 29c:	0400                	addi	s0,sp,512
 29e:	1800                	addi	s0,sp,48
 2a0:	1804                	addi	s1,sp,48
 2a2:	0430                	addi	a2,sp,520
 2a4:	3c36                	.insn	2, 0x3c36
	...

Disassembly of section .debug_line:

0000000000000000 <.debug_line>:
       0:	00000c2f          	.insn	4, 0x0c2f
       4:	0005                	c.nop	1
       6:	0008                	.insn	2, 0x0008
       8:	00000033          	add	zero,zero,zero
       c:	0101                	addi	sp,sp,0 # 1000 <_tbss_end+0x1000>
       e:	fb01                	bnez	a4,ffffffffffffff1e <__stack_pointer$+0xffffffff7800031e>
      10:	0d0e                	slli	s10,s10,0x3
      12:	0100                	addi	s0,sp,128
      14:	0101                	addi	sp,sp,0
      16:	0001                	nop
      18:	0000                	unimp
      1a:	0001                	nop
      1c:	0100                	addi	s0,sp,128
      1e:	0101                	addi	sp,sp,0
      20:	021f 002d 0000      	.insn	6, 0x002d021f
      26:	0098                	addi	a4,sp,64
      28:	0000                	unimp
      2a:	0102                	c.slli64	sp
      2c:	021f 030f 0024      	.insn	6, 0x0024030f021f
      32:	0000                	unimp
      34:	2401                	sext.w	s0,s0
      36:	0000                	unimp
      38:	0100                	addi	s0,sp,128
      3a:	00bc                	addi	a5,sp,72
      3c:	0000                	unimp
      3e:	0501                	addi	a0,a0,0
      40:	0001                	nop
      42:	0209                	addi	tp,tp,2 # 2 <_tbss_end+0x2>
      44:	2f1a                	.insn	2, 0x2f1a
      46:	8000                	.insn	2, 0x8000
      48:	0000                	unimp
      4a:	0000                	unimp
      4c:	05012103          	lw	sp,80(sp)
      50:	09010303          	lb	t1,144(sp)
      54:	0000                	unimp
      56:	0301                	addi	t1,t1,0
      58:	0900                	addi	s0,sp,144
      5a:	0000                	unimp
      5c:	0501                	addi	a0,a0,0
      5e:	030d                	addi	t1,t1,3
      60:	0900                	addi	s0,sp,144
      62:	0000                	unimp
      64:	0501                	addi	a0,a0,0
      66:	09010303          	lb	t1,144(sp)
      6a:	0000                	unimp
      6c:	0301                	addi	t1,t1,0
      6e:	0900                	addi	s0,sp,144
      70:	0000                	unimp
      72:	0301                	addi	t1,t1,0
      74:	0900                	addi	s0,sp,144
      76:	0000                	unimp
      78:	0301                	addi	t1,t1,0
      7a:	0900                	addi	s0,sp,144
      7c:	0000                	unimp
      7e:	0301                	addi	t1,t1,0
      80:	0901                	addi	s2,s2,0
      82:	0000                	unimp
      84:	0301                	addi	t1,t1,0
      86:	0900                	addi	s0,sp,144
      88:	0000                	unimp
      8a:	0301                	addi	t1,t1,0
      8c:	0900                	addi	s0,sp,144
      8e:	0000                	unimp
      90:	0301                	addi	t1,t1,0
      92:	0900                	addi	s0,sp,144
      94:	0000                	unimp
      96:	0301                	addi	t1,t1,0
      98:	0901                	addi	s2,s2,0
      9a:	0000                	unimp
      9c:	0301                	addi	t1,t1,0
      9e:	0900                	addi	s0,sp,144
      a0:	0000                	unimp
      a2:	0301                	addi	t1,t1,0
      a4:	0900                	addi	s0,sp,144
      a6:	0000                	unimp
      a8:	0301                	addi	t1,t1,0
      aa:	0900                	addi	s0,sp,144
      ac:	0000                	unimp
      ae:	0301                	addi	t1,t1,0
      b0:	0901                	addi	s2,s2,0
      b2:	0000                	unimp
      b4:	0301                	addi	t1,t1,0
      b6:	0902                	c.slli64	s2
      b8:	0000                	unimp
      ba:	0301                	addi	t1,t1,0
      bc:	0901                	addi	s2,s2,0
      be:	0000                	unimp
      c0:	0301                	addi	t1,t1,0
      c2:	0900                	addi	s0,sp,144
      c4:	0000                	unimp
      c6:	0301                	addi	t1,t1,0
      c8:	0900                	addi	s0,sp,144
      ca:	0000                	unimp
      cc:	0301                	addi	t1,t1,0
      ce:	0900                	addi	s0,sp,144
      d0:	0000                	unimp
      d2:	0301                	addi	t1,t1,0
      d4:	0900                	addi	s0,sp,144
      d6:	0000                	unimp
      d8:	0501                	addi	a0,a0,0
      da:	0601                	addi	a2,a2,0
      dc:	02097803          	.insn	4, 0x02097803
      e0:	0100                	addi	s0,sp,128
      e2:	0305                	addi	t1,t1,1
      e4:	02090803          	lb	a6,32(s2)
      e8:	0100                	addi	s0,sp,128
      ea:	02090103          	lb	sp,32(s2)
      ee:	0100                	addi	s0,sp,128
      f0:	04097f03          	.insn	4, 0x04097f03
      f4:	0100                	addi	s0,sp,128
      f6:	0306                	slli	t1,t1,0x1
      f8:	0900                	addi	s0,sp,144
      fa:	0008                	.insn	2, 0x0008
      fc:	0501                	addi	a0,a0,0
      fe:	0601                	addi	a2,a2,0
     100:	00097803          	.insn	4, 0x00097803
     104:	0100                	addi	s0,sp,128
     106:	0305                	addi	t1,t1,1
     108:	02090903          	lb	s2,32(s2)
     10c:	0100                	addi	s0,sp,128
     10e:	0105                	addi	sp,sp,1
     110:	02097703          	.insn	4, 0x02097703
     114:	0100                	addi	s0,sp,128
     116:	0305                	addi	t1,t1,1
     118:	02090903          	lb	s2,32(s2)
     11c:	0100                	addi	s0,sp,128
     11e:	04097f03          	.insn	4, 0x04097f03
     122:	0100                	addi	s0,sp,128
     124:	0306                	slli	t1,t1,0x1
     126:	0900                	addi	s0,sp,144
     128:	0004                	.insn	2, 0x0004
     12a:	0501                	addi	a0,a0,0
     12c:	0601                	addi	a2,a2,0
     12e:	00097803          	.insn	4, 0x00097803
     132:	0100                	addi	s0,sp,128
     134:	0305                	addi	t1,t1,1
     136:	04090803          	lb	a6,64(s2)
     13a:	0100                	addi	s0,sp,128
     13c:	0306                	slli	t1,t1,0x1
     13e:	0900                	addi	s0,sp,144
     140:	0004                	.insn	2, 0x0004
     142:	0301                	addi	t1,t1,0
     144:	0900                	addi	s0,sp,144
     146:	0000                	unimp
     148:	0301                	addi	t1,t1,0
     14a:	0900                	addi	s0,sp,144
     14c:	0000                	unimp
     14e:	0001                	nop
     150:	0402                	c.slli64	s0
     152:	0302                	c.slli64	t1
     154:	0900                	addi	s0,sp,144
     156:	0000                	unimp
     158:	0601                	addi	a2,a2,0
     15a:	00090103          	lb	sp,0(s2)
     15e:	0100                	addi	s0,sp,128
     160:	0200                	addi	s0,sp,256
     162:	0204                	addi	s1,sp,256
     164:	02090003          	lb	zero,32(s2)
     168:	0100                	addi	s0,sp,128
     16a:	0200                	addi	s0,sp,256
     16c:	0204                	addi	s1,sp,256
     16e:	04097f03          	.insn	4, 0x04097f03
     172:	0100                	addi	s0,sp,128
     174:	0200                	addi	s0,sp,256
     176:	0404                	addi	s1,sp,512
     178:	0306                	slli	t1,t1,0x1
     17a:	0900                	addi	s0,sp,144
     17c:	0002                	c.slli64	zero
     17e:	0001                	nop
     180:	0402                	c.slli64	s0
     182:	0304                	addi	s1,sp,384
     184:	0900                	addi	s0,sp,144
     186:	0000                	unimp
     188:	0301                	addi	t1,t1,0
     18a:	0901                	addi	s2,s2,0
     18c:	0000                	unimp
     18e:	0301                	addi	t1,t1,0
     190:	0900                	addi	s0,sp,144
     192:	0000                	unimp
     194:	0301                	addi	t1,t1,0
     196:	0900                	addi	s0,sp,144
     198:	0000                	unimp
     19a:	0301                	addi	t1,t1,0
     19c:	0900                	addi	s0,sp,144
     19e:	0000                	unimp
     1a0:	0301                	addi	t1,t1,0
     1a2:	0900                	addi	s0,sp,144
     1a4:	0000                	unimp
     1a6:	0301                	addi	t1,t1,0
     1a8:	0900                	addi	s0,sp,144
     1aa:	0000                	unimp
     1ac:	0301                	addi	t1,t1,0
     1ae:	0900                	addi	s0,sp,144
     1b0:	0000                	unimp
     1b2:	0301                	addi	t1,t1,0
     1b4:	0900                	addi	s0,sp,144
     1b6:	0000                	unimp
     1b8:	0301                	addi	t1,t1,0
     1ba:	0900                	addi	s0,sp,144
     1bc:	0000                	unimp
     1be:	0301                	addi	t1,t1,0
     1c0:	0900                	addi	s0,sp,144
     1c2:	0000                	unimp
     1c4:	0001                	nop
     1c6:	0402                	c.slli64	s0
     1c8:	0302                	c.slli64	t1
     1ca:	0900                	addi	s0,sp,144
     1cc:	0000                	unimp
     1ce:	0001                	nop
     1d0:	0402                	c.slli64	s0
     1d2:	0304                	addi	s1,sp,384
     1d4:	0900                	addi	s0,sp,144
     1d6:	0000                	unimp
     1d8:	0001                	nop
     1da:	0402                	c.slli64	s0
     1dc:	0304                	addi	s1,sp,384
     1de:	0900                	addi	s0,sp,144
     1e0:	0000                	unimp
     1e2:	0301                	addi	t1,t1,0
     1e4:	0901                	addi	s2,s2,0
     1e6:	0000                	unimp
     1e8:	0301                	addi	t1,t1,0
     1ea:	0900                	addi	s0,sp,144
     1ec:	0000                	unimp
     1ee:	0301                	addi	t1,t1,0
     1f0:	0900                	addi	s0,sp,144
     1f2:	0000                	unimp
     1f4:	0001                	nop
     1f6:	0402                	c.slli64	s0
     1f8:	09000303          	lb	t1,144(zero) # 90 <_tbss_end+0x90>
     1fc:	0000                	unimp
     1fe:	0001                	nop
     200:	0402                	c.slli64	s0
     202:	09000303          	lb	t1,144(zero) # 90 <_tbss_end+0x90>
     206:	0000                	unimp
     208:	0001                	nop
     20a:	0402                	c.slli64	s0
     20c:	09000303          	lb	t1,144(zero) # 90 <_tbss_end+0x90>
     210:	0000                	unimp
     212:	0001                	nop
     214:	0402                	c.slli64	s0
     216:	0306                	slli	t1,t1,0x1
     218:	0900                	addi	s0,sp,144
     21a:	0000                	unimp
     21c:	0001                	nop
     21e:	0402                	c.slli64	s0
     220:	0306                	slli	t1,t1,0x1
     222:	0900                	addi	s0,sp,144
     224:	0000                	unimp
     226:	0001                	nop
     228:	0402                	c.slli64	s0
     22a:	09000307          	.insn	4, 0x09000307
     22e:	0008                	.insn	2, 0x0008
     230:	0001                	nop
     232:	0402                	c.slli64	s0
     234:	09000307          	.insn	4, 0x09000307
     238:	0000                	unimp
     23a:	0001                	nop
     23c:	0402                	c.slli64	s0
     23e:	09000307          	.insn	4, 0x09000307
     242:	0004                	.insn	2, 0x0004
     244:	0001                	nop
     246:	0402                	c.slli64	s0
     248:	0309                	addi	t1,t1,2
     24a:	0900                	addi	s0,sp,144
     24c:	0004                	.insn	2, 0x0004
     24e:	0001                	nop
     250:	0402                	c.slli64	s0
     252:	0309                	addi	t1,t1,2
     254:	0900                	addi	s0,sp,144
     256:	0000                	unimp
     258:	0001                	nop
     25a:	0402                	c.slli64	s0
     25c:	0900030b          	.insn	4, 0x0900030b
     260:	0002                	c.slli64	zero
     262:	0001                	nop
     264:	0402                	c.slli64	s0
     266:	030e                	slli	t1,t1,0x3
     268:	0900                	addi	s0,sp,144
     26a:	0002                	c.slli64	zero
     26c:	0001                	nop
     26e:	0402                	c.slli64	s0
     270:	030e                	slli	t1,t1,0x3
     272:	0900                	addi	s0,sp,144
     274:	0000                	unimp
     276:	0001                	nop
     278:	0402                	c.slli64	s0
     27a:	030e                	slli	t1,t1,0x3
     27c:	0900                	addi	s0,sp,144
     27e:	0004                	.insn	2, 0x0004
     280:	0001                	nop
     282:	0402                	c.slli64	s0
     284:	09000317          	auipc	t1,0x9000
     288:	0002                	c.slli64	zero
     28a:	0001                	nop
     28c:	0402                	c.slli64	s0
     28e:	09000317          	auipc	t1,0x9000
     292:	0002                	c.slli64	zero
     294:	0001                	nop
     296:	0402                	c.slli64	s0
     298:	0370                	addi	a2,sp,396
     29a:	0900                	addi	s0,sp,144
     29c:	0000                	unimp
     29e:	0001                	nop
     2a0:	01ab0403          	lb	s0,26(s6)
     2a4:	08090003          	lb	zero,128(s2)
     2a8:	0100                	addi	s0,sp,128
     2aa:	0300                	addi	s0,sp,384
     2ac:	ab04                	.insn	2, 0xab04
     2ae:	0301                	addi	t1,t1,0 # 900028e <_free_space+0x100cc66>
     2b0:	0900                	addi	s0,sp,144
     2b2:	0000                	unimp
     2b4:	0001                	nop
     2b6:	01ab0403          	lb	s0,26(s6)
     2ba:	02090003          	lb	zero,32(s2)
     2be:	0100                	addi	s0,sp,128
     2c0:	0300                	addi	s0,sp,384
     2c2:	ab04                	.insn	2, 0xab04
     2c4:	0301                	addi	t1,t1,0
     2c6:	0900                	addi	s0,sp,144
     2c8:	0000                	unimp
     2ca:	0001                	nop
     2cc:	0402                	c.slli64	s0
     2ce:	0318                	addi	a4,sp,384
     2d0:	0900                	addi	s0,sp,144
     2d2:	001c                	.insn	2, 0x001c
     2d4:	0001                	nop
     2d6:	02b00403          	lb	s0,43(zero) # 2b <_tbss_end+0x2b>
     2da:	0306                	slli	t1,t1,0x1
     2dc:	0900                	addi	s0,sp,144
     2de:	0008                	.insn	2, 0x0008
     2e0:	0001                	nop
     2e2:	0402                	c.slli64	s0
     2e4:	060c                	addi	a1,sp,768
     2e6:	04090003          	lb	zero,64(s2)
     2ea:	0100                	addi	s0,sp,128
     2ec:	0200                	addi	s0,sp,256
     2ee:	2604                	.insn	2, 0x2604
     2f0:	08090003          	lb	zero,128(s2)
     2f4:	0100                	addi	s0,sp,128
     2f6:	0200                	addi	s0,sp,256
     2f8:	2f04                	.insn	2, 0x2f04
     2fa:	06090003          	lb	zero,96(s2)
     2fe:	0100                	addi	s0,sp,128
     300:	0200                	addi	s0,sp,256
     302:	3904                	.insn	2, 0x3904
     304:	0306                	slli	t1,t1,0x1
     306:	0900                	addi	s0,sp,144
     308:	0004                	.insn	2, 0x0004
     30a:	0001                	nop
     30c:	0402                	c.slli64	s0
     30e:	0900032f          	.insn	4, 0x0900032f
     312:	0002                	c.slli64	zero
     314:	0001                	nop
     316:	0402                	c.slli64	s0
     318:	0630                	addi	a2,sp,776
     31a:	04090003          	lb	zero,64(s2)
     31e:	0100                	addi	s0,sp,128
     320:	0200                	addi	s0,sp,256
     322:	3504                	.insn	2, 0x3504
     324:	0306                	slli	t1,t1,0x1
     326:	0900                	addi	s0,sp,144
     328:	0000                	unimp
     32a:	0001                	nop
     32c:	0402                	c.slli64	s0
     32e:	0330                	addi	a2,sp,392
     330:	0900                	addi	s0,sp,144
     332:	000a                	c.slli	zero,0x2
     334:	0001                	nop
     336:	0402                	c.slli64	s0
     338:	0335                	addi	t1,t1,13
     33a:	0900                	addi	s0,sp,144
     33c:	0004                	.insn	2, 0x0004
     33e:	0001                	nop
     340:	0402                	c.slli64	s0
     342:	09000337          	lui	t1,0x9000
     346:	0004                	.insn	2, 0x0004
     348:	0001                	nop
     34a:	0402                	c.slli64	s0
     34c:	0003063b          	addw	a2,t1,zero
     350:	0209                	addi	tp,tp,2 # 2 <_tbss_end+0x2>
     352:	0100                	addi	s0,sp,128
     354:	0200                	addi	s0,sp,256
     356:	0a04                	addi	s1,sp,272
     358:	06090003          	lb	zero,96(s2)
     35c:	0100                	addi	s0,sp,128
     35e:	0200                	addi	s0,sp,256
     360:	3d04                	.insn	2, 0x3d04
     362:	02090003          	lb	zero,32(s2)
     366:	0100                	addi	s0,sp,128
     368:	0200                	addi	s0,sp,256
     36a:	3d04                	.insn	2, 0x3d04
     36c:	00090003          	lb	zero,0(s2)
     370:	0100                	addi	s0,sp,128
     372:	0200                	addi	s0,sp,256
     374:	3d04                	.insn	2, 0x3d04
     376:	00090003          	lb	zero,0(s2)
     37a:	0100                	addi	s0,sp,128
     37c:	0200                	addi	s0,sp,256
     37e:	3f04                	.insn	2, 0x3f04
     380:	04090003          	lb	zero,64(s2)
     384:	0100                	addi	s0,sp,128
     386:	0200                	addi	s0,sp,256
     388:	4204                	lw	s1,0(a2)
     38a:	04090003          	lb	zero,64(s2)
     38e:	0100                	addi	s0,sp,128
     390:	0200                	addi	s0,sp,256
     392:	4204                	lw	s1,0(a2)
     394:	00090003          	lb	zero,0(s2)
     398:	0100                	addi	s0,sp,128
     39a:	0200                	addi	s0,sp,256
     39c:	4204                	lw	s1,0(a2)
     39e:	06090003          	lb	zero,96(s2)
     3a2:	0100                	addi	s0,sp,128
     3a4:	0200                	addi	s0,sp,256
     3a6:	4b04                	lw	s1,16(a4)
     3a8:	02090003          	lb	zero,32(s2)
     3ac:	0100                	addi	s0,sp,128
     3ae:	0200                	addi	s0,sp,256
     3b0:	4b04                	lw	s1,16(a4)
     3b2:	02090003          	lb	zero,32(s2)
     3b6:	0100                	addi	s0,sp,128
     3b8:	0200                	addi	s0,sp,256
     3ba:	3d04                	.insn	2, 0x3d04
     3bc:	0306                	slli	t1,t1,0x1
     3be:	0900                	addi	s0,sp,144
     3c0:	0000                	unimp
     3c2:	0001                	nop
     3c4:	0402                	c.slli64	s0
     3c6:	064c                	addi	a1,sp,772
     3c8:	04090003          	lb	zero,64(s2)
     3cc:	0100                	addi	s0,sp,128
     3ce:	0300                	addi	s0,sp,384
     3d0:	c704                	sw	s1,8(a4)
     3d2:	0602                	c.slli64	a2
     3d4:	08090003          	lb	zero,128(s2)
     3d8:	0100                	addi	s0,sp,128
     3da:	0200                	addi	s0,sp,256
     3dc:	4004                	lw	s1,0(s0)
     3de:	0306                	slli	t1,t1,0x1
     3e0:	0900                	addi	s0,sp,144
     3e2:	0006                	c.slli	zero,0x1
     3e4:	0001                	nop
     3e6:	0402                	c.slli64	s0
     3e8:	065a                	slli	a2,a2,0x16
     3ea:	08090003          	lb	zero,128(s2)
     3ee:	0100                	addi	s0,sp,128
     3f0:	0200                	addi	s0,sp,256
     3f2:	3d04                	.insn	2, 0x3d04
     3f4:	04090003          	lb	zero,64(s2)
     3f8:	0100                	addi	s0,sp,128
     3fa:	0200                	addi	s0,sp,256
     3fc:	5a04                	lw	s1,48(a2)
     3fe:	0306                	slli	t1,t1,0x1
     400:	0900                	addi	s0,sp,144
     402:	0004                	.insn	2, 0x0004
     404:	0001                	nop
     406:	0402                	c.slli64	s0
     408:	09000363          	beq	zero,a6,48e <_tbss_end+0x48e>
     40c:	0004                	.insn	2, 0x0004
     40e:	0001                	nop
     410:	0402                	c.slli64	s0
     412:	066d                	addi	a2,a2,27
     414:	04090003          	lb	zero,64(s2)
     418:	0100                	addi	s0,sp,128
     41a:	0200                	addi	s0,sp,256
     41c:	6304                	ld	s1,0(a4)
     41e:	02090003          	lb	zero,32(s2)
     422:	0100                	addi	s0,sp,128
     424:	0200                	addi	s0,sp,256
     426:	6404                	ld	s1,8(s0)
     428:	0306                	slli	t1,t1,0x1
     42a:	0900                	addi	s0,sp,144
     42c:	0004                	.insn	2, 0x0004
     42e:	0001                	nop
     430:	0402                	c.slli64	s0
     432:	0669                	addi	a2,a2,26
     434:	00090003          	lb	zero,0(s2)
     438:	0100                	addi	s0,sp,128
     43a:	0200                	addi	s0,sp,256
     43c:	6404                	ld	s1,8(s0)
     43e:	0a090003          	lb	zero,160(s2)
     442:	0100                	addi	s0,sp,128
     444:	0200                	addi	s0,sp,256
     446:	6904                	ld	s1,16(a0)
     448:	04090003          	lb	zero,64(s2)
     44c:	0100                	addi	s0,sp,128
     44e:	0200                	addi	s0,sp,256
     450:	6b04                	ld	s1,16(a4)
     452:	04090003          	lb	zero,64(s2)
     456:	0100                	addi	s0,sp,128
     458:	0200                	addi	s0,sp,256
     45a:	6f04                	ld	s1,24(a4)
     45c:	0306                	slli	t1,t1,0x1
     45e:	0900                	addi	s0,sp,144
     460:	0002                	c.slli64	zero
     462:	0001                	nop
     464:	0402                	c.slli64	s0
     466:	033e                	slli	t1,t1,0xf
     468:	0900                	addi	s0,sp,144
     46a:	0004                	.insn	2, 0x0004
     46c:	0001                	nop
     46e:	0402                	c.slli64	s0
     470:	0371                	addi	t1,t1,28 # 900001c <_free_space+0x100c9f4>
     472:	0900                	addi	s0,sp,144
     474:	000a                	c.slli	zero,0x2
     476:	0001                	nop
     478:	0402                	c.slli64	s0
     47a:	09000373          	.insn	4, 0x09000373
     47e:	0004                	.insn	2, 0x0004
     480:	0001                	nop
     482:	0402                	c.slli64	s0
     484:	09000373          	.insn	4, 0x09000373
     488:	0000                	unimp
     48a:	0001                	nop
     48c:	0402                	c.slli64	s0
     48e:	0376                	slli	t1,t1,0x1d
     490:	0900                	addi	s0,sp,144
     492:	0004                	.insn	2, 0x0004
     494:	0001                	nop
     496:	0402                	c.slli64	s0
     498:	037c                	addi	a5,sp,396
     49a:	0900                	addi	s0,sp,144
     49c:	0002                	c.slli64	zero
     49e:	0001                	nop
     4a0:	0402                	c.slli64	s0
     4a2:	037c                	addi	a5,sp,396
     4a4:	0900                	addi	s0,sp,144
     4a6:	0000                	unimp
     4a8:	0001                	nop
     4aa:	0402                	c.slli64	s0
     4ac:	037c                	addi	a5,sp,396
     4ae:	0900                	addi	s0,sp,144
     4b0:	0002                	c.slli64	zero
     4b2:	0001                	nop
     4b4:	0402                	c.slli64	s0
     4b6:	037e                	slli	t1,t1,0x1f
     4b8:	0900                	addi	s0,sp,144
     4ba:	0008                	.insn	2, 0x0008
     4bc:	0001                	nop
     4be:	0402                	c.slli64	s0
     4c0:	037e                	slli	t1,t1,0x1f
     4c2:	0900                	addi	s0,sp,144
     4c4:	0008                	.insn	2, 0x0008
     4c6:	0001                	nop
     4c8:	02f90403          	lb	s0,47(s2)
     4cc:	02090003          	lb	zero,32(s2)
     4d0:	0100                	addi	s0,sp,128
     4d2:	0300                	addi	s0,sp,384
     4d4:	f904                	sd	s1,48(a0)
     4d6:	0302                	c.slli64	t1
     4d8:	0900                	addi	s0,sp,144
     4da:	0000                	unimp
     4dc:	0301                	addi	t1,t1,0
     4de:	0901                	addi	s2,s2,0
     4e0:	0000                	unimp
     4e2:	0301                	addi	t1,t1,0
     4e4:	0900                	addi	s0,sp,144
     4e6:	0000                	unimp
     4e8:	0301                	addi	t1,t1,0
     4ea:	0900                	addi	s0,sp,144
     4ec:	0000                	unimp
     4ee:	0001                	nop
     4f0:	0402                	c.slli64	s0
     4f2:	0324                	addi	s1,sp,392
     4f4:	0900                	addi	s0,sp,144
     4f6:	0000                	unimp
     4f8:	0001                	nop
     4fa:	0402                	c.slli64	s0
     4fc:	0324                	addi	s1,sp,392
     4fe:	0900                	addi	s0,sp,144
     500:	0000                	unimp
     502:	0001                	nop
     504:	0402                	c.slli64	s0
     506:	0325                	addi	t1,t1,9
     508:	0900                	addi	s0,sp,144
     50a:	0008                	.insn	2, 0x0008
     50c:	0001                	nop
     50e:	0402                	c.slli64	s0
     510:	0325                	addi	t1,t1,9
     512:	0900                	addi	s0,sp,144
     514:	0000                	unimp
     516:	0001                	nop
     518:	0402                	c.slli64	s0
     51a:	0328                	addi	a0,sp,392
     51c:	0900                	addi	s0,sp,144
     51e:	0000                	unimp
     520:	0001                	nop
     522:	0402                	c.slli64	s0
     524:	0328                	addi	a0,sp,392
     526:	0900                	addi	s0,sp,144
     528:	0000                	unimp
     52a:	0001                	nop
     52c:	0402                	c.slli64	s0
     52e:	032c                	addi	a1,sp,392
     530:	0900                	addi	s0,sp,144
     532:	000a                	c.slli	zero,0x2
     534:	0001                	nop
     536:	0402                	c.slli64	s0
     538:	0374                	addi	a3,sp,396
     53a:	097f 0004 0001 0402 	.insn	10, 0x0374040200010004097f
     542:	0374 
     544:	0900                	addi	s0,sp,144
     546:	0000                	unimp
     548:	0001                	nop
     54a:	01880403          	lb	s0,24(a6)
     54e:	00090003          	lb	zero,0(s2)
     552:	0100                	addi	s0,sp,128
     554:	0300                	addi	s0,sp,384
     556:	8804                	.insn	2, 0x8804
     558:	0301                	addi	t1,t1,0
     55a:	0900                	addi	s0,sp,144
     55c:	0000                	unimp
     55e:	0001                	nop
     560:	01880403          	lb	s0,24(a6)
     564:	00090003          	lb	zero,0(s2)
     568:	0100                	addi	s0,sp,128
     56a:	0300                	addi	s0,sp,384
     56c:	8f04                	.insn	2, 0x8f04
     56e:	0301                	addi	t1,t1,0
     570:	0900                	addi	s0,sp,144
     572:	0000                	unimp
     574:	0001                	nop
     576:	018f0403          	lb	s0,24(t5) # fffffffffffe2018 <__stack_pointer$+0xffffffff77fe2418>
     57a:	00090003          	lb	zero,0(s2)
     57e:	0100                	addi	s0,sp,128
     580:	0300                	addi	s0,sp,384
     582:	8f04                	.insn	2, 0x8f04
     584:	0301                	addi	t1,t1,0
     586:	0900                	addi	s0,sp,144
     588:	0000                	unimp
     58a:	0001                	nop
     58c:	02c90403          	lb	s0,44(s2)
     590:	04090003          	lb	zero,64(s2)
     594:	0100                	addi	s0,sp,128
     596:	0300                	addi	s0,sp,384
     598:	9704                	.insn	2, 0x9704
     59a:	0601                	addi	a2,a2,0
     59c:	04090003          	lb	zero,64(s2)
     5a0:	0100                	addi	s0,sp,128
     5a2:	0300                	addi	s0,sp,384
     5a4:	8f04                	.insn	2, 0x8f04
     5a6:	0301                	addi	t1,t1,0
     5a8:	0900                	addi	s0,sp,144
     5aa:	0004                	.insn	2, 0x0004
     5ac:	0001                	nop
     5ae:	0402                	c.slli64	s0
     5b0:	0672                	slli	a2,a2,0x1c
     5b2:	06090003          	lb	zero,96(s2)
     5b6:	0100                	addi	s0,sp,128
     5b8:	0200                	addi	s0,sp,256
     5ba:	7204                	ld	s1,32(a2)
     5bc:	00090003          	lb	zero,0(s2)
     5c0:	0100                	addi	s0,sp,128
     5c2:	0200                	addi	s0,sp,256
     5c4:	7204                	ld	s1,32(a2)
     5c6:	00090003          	lb	zero,0(s2)
     5ca:	0100                	addi	s0,sp,128
     5cc:	0200                	addi	s0,sp,256
     5ce:	7204                	ld	s1,32(a2)
     5d0:	00090003          	lb	zero,0(s2)
     5d4:	0100                	addi	s0,sp,128
     5d6:	0200                	addi	s0,sp,256
     5d8:	0804                	addi	s1,sp,16
     5da:	10090003          	lb	zero,256(s2)
     5de:	0100                	addi	s0,sp,128
     5e0:	0200                	addi	s0,sp,256
     5e2:	0804                	addi	s1,sp,16
     5e4:	04090003          	lb	zero,64(s2)
     5e8:	0100                	addi	s0,sp,128
     5ea:	0300                	addi	s0,sp,384
     5ec:	bd04                	.insn	2, 0xbd04
     5ee:	0301                	addi	t1,t1,0
     5f0:	0900                	addi	s0,sp,144
     5f2:	0004                	.insn	2, 0x0004
     5f4:	0001                	nop
     5f6:	01bd0403          	lb	s0,27(s10)
     5fa:	00090003          	lb	zero,0(s2)
     5fe:	0100                	addi	s0,sp,128
     600:	0300                	addi	s0,sp,384
     602:	bd04                	.insn	2, 0xbd04
     604:	0301                	addi	t1,t1,0
     606:	0900                	addi	s0,sp,144
     608:	0000                	unimp
     60a:	0001                	nop
     60c:	01bf0403          	lb	s0,27(t5)
     610:	02090003          	lb	zero,32(s2)
     614:	0100                	addi	s0,sp,128
     616:	0300                	addi	s0,sp,384
     618:	c204                	sw	s1,0(a2)
     61a:	0301                	addi	t1,t1,0
     61c:	0900                	addi	s0,sp,144
     61e:	0002                	c.slli64	zero
     620:	0001                	nop
     622:	01c20403          	lb	s0,28(tp) # 1c <_tbss_end+0x1c>
     626:	00090003          	lb	zero,0(s2)
     62a:	0100                	addi	s0,sp,128
     62c:	0300                	addi	s0,sp,384
     62e:	c204                	sw	s1,0(a2)
     630:	0301                	addi	t1,t1,0
     632:	0900                	addi	s0,sp,144
     634:	0004                	.insn	2, 0x0004
     636:	0001                	nop
     638:	01cb0403          	lb	s0,28(s6)
     63c:	02090003          	lb	zero,32(s2)
     640:	0100                	addi	s0,sp,128
     642:	0300                	addi	s0,sp,384
     644:	cb04                	sw	s1,16(a4)
     646:	0301                	addi	t1,t1,0
     648:	0900                	addi	s0,sp,144
     64a:	0004                	.insn	2, 0x0004
     64c:	0001                	nop
     64e:	02a40403          	lb	s0,42(s0)
     652:	00090003          	lb	zero,0(s2)
     656:	0100                	addi	s0,sp,128
     658:	0300                	addi	s0,sp,384
     65a:	df04                	sw	s1,56(a4)
     65c:	0302                	c.slli64	t1
     65e:	0900                	addi	s0,sp,144
     660:	0008                	.insn	2, 0x0008
     662:	0001                	nop
     664:	02df0403          	lb	s0,45(t5)
     668:	00090003          	lb	zero,0(s2)
     66c:	0100                	addi	s0,sp,128
     66e:	0300                	addi	s0,sp,384
     670:	cc04                	sw	s1,24(s0)
     672:	0301                	addi	t1,t1,0
     674:	0900                	addi	s0,sp,144
     676:	0008                	.insn	2, 0x0008
     678:	0001                	nop
     67a:	01e30403          	lb	s0,30(t1)
     67e:	08090003          	lb	zero,128(s2)
     682:	0100                	addi	s0,sp,128
     684:	0300                	addi	s0,sp,384
     686:	ed04                	sd	s1,24(a0)
     688:	0601                	addi	a2,a2,0
     68a:	04090003          	lb	zero,64(s2)
     68e:	0100                	addi	s0,sp,128
     690:	0300                	addi	s0,sp,384
     692:	e304                	sd	s1,0(a4)
     694:	0301                	addi	t1,t1,0
     696:	0900                	addi	s0,sp,144
     698:	0002                	c.slli64	zero
     69a:	0001                	nop
     69c:	01e40403          	lb	s0,30(s0)
     6a0:	0306                	slli	t1,t1,0x1
     6a2:	0900                	addi	s0,sp,144
     6a4:	0004                	.insn	2, 0x0004
     6a6:	0001                	nop
     6a8:	01e90403          	lb	s0,30(s2)
     6ac:	0306                	slli	t1,t1,0x1
     6ae:	0900                	addi	s0,sp,144
     6b0:	0000                	unimp
     6b2:	0001                	nop
     6b4:	01e40403          	lb	s0,30(s0)
     6b8:	0a090003          	lb	zero,160(s2)
     6bc:	0100                	addi	s0,sp,128
     6be:	0300                	addi	s0,sp,384
     6c0:	e904                	sd	s1,16(a0)
     6c2:	0301                	addi	t1,t1,0
     6c4:	0900                	addi	s0,sp,144
     6c6:	0004                	.insn	2, 0x0004
     6c8:	0001                	nop
     6ca:	01eb0403          	lb	s0,30(s6)
     6ce:	04090003          	lb	zero,64(s2)
     6d2:	0100                	addi	s0,sp,128
     6d4:	0300                	addi	s0,sp,384
     6d6:	ef04                	sd	s1,24(a4)
     6d8:	0601                	addi	a2,a2,0
     6da:	02090003          	lb	zero,32(s2)
     6de:	0100                	addi	s0,sp,128
     6e0:	0300                	addi	s0,sp,384
     6e2:	c004                	sw	s1,0(s0)
     6e4:	0301                	addi	t1,t1,0
     6e6:	0900                	addi	s0,sp,144
     6e8:	0006                	c.slli	zero,0x1
     6ea:	0001                	nop
     6ec:	01da0403          	lb	s0,29(s4)
     6f0:	08090003          	lb	zero,128(s2)
     6f4:	0100                	addi	s0,sp,128
     6f6:	0300                	addi	s0,sp,384
     6f8:	be04                	.insn	2, 0xbe04
     6fa:	0301                	addi	t1,t1,0
     6fc:	0900                	addi	s0,sp,144
     6fe:	0008                	.insn	2, 0x0008
     700:	0001                	nop
     702:	01f10403          	lb	s0,31(sp)
     706:	02090003          	lb	zero,32(s2)
     70a:	0100                	addi	s0,sp,128
     70c:	0300                	addi	s0,sp,384
     70e:	f104                	sd	s1,32(a0)
     710:	0301                	addi	t1,t1,0
     712:	0900                	addi	s0,sp,144
     714:	0000                	unimp
     716:	0001                	nop
     718:	01f10403          	lb	s0,31(sp)
     71c:	00090003          	lb	zero,0(s2)
     720:	0100                	addi	s0,sp,128
     722:	0300                	addi	s0,sp,384
     724:	f104                	sd	s1,32(a0)
     726:	0301                	addi	t1,t1,0
     728:	0900                	addi	s0,sp,144
     72a:	0000                	unimp
     72c:	0001                	nop
     72e:	01f30403          	lb	s0,31(t1)
     732:	04090003          	lb	zero,64(s2)
     736:	0100                	addi	s0,sp,128
     738:	0300                	addi	s0,sp,384
     73a:	f604                	sd	s1,40(a2)
     73c:	0301                	addi	t1,t1,0
     73e:	0900                	addi	s0,sp,144
     740:	0004                	.insn	2, 0x0004
     742:	0001                	nop
     744:	01f60403          	lb	s0,31(a2)
     748:	00090003          	lb	zero,0(s2)
     74c:	0100                	addi	s0,sp,128
     74e:	0300                	addi	s0,sp,384
     750:	f604                	sd	s1,40(a2)
     752:	0301                	addi	t1,t1,0
     754:	0900                	addi	s0,sp,144
     756:	0006                	c.slli	zero,0x1
     758:	0001                	nop
     75a:	01ff0403          	lb	s0,31(t5)
     75e:	02090003          	lb	zero,32(s2)
     762:	0100                	addi	s0,sp,128
     764:	0300                	addi	s0,sp,384
     766:	ff04                	sd	s1,56(a4)
     768:	0301                	addi	t1,t1,0
     76a:	0900                	addi	s0,sp,144
     76c:	0004                	.insn	2, 0x0004
     76e:	0001                	nop
     770:	01f10403          	lb	s0,31(sp)
     774:	0306                	slli	t1,t1,0x1
     776:	0900                	addi	s0,sp,144
     778:	0000                	unimp
     77a:	0001                	nop
     77c:	02800403          	lb	s0,40(zero) # 28 <_tbss_end+0x28>
     780:	0306                	slli	t1,t1,0x1
     782:	0900                	addi	s0,sp,144
     784:	0006                	c.slli	zero,0x1
     786:	0001                	nop
     788:	01f10403          	lb	s0,31(sp)
     78c:	0306                	slli	t1,t1,0x1
     78e:	0900                	addi	s0,sp,144
     790:	0008                	.insn	2, 0x0008
     792:	0001                	nop
     794:	01f40403          	lb	s0,31(s0)
     798:	0306                	slli	t1,t1,0x1
     79a:	0900                	addi	s0,sp,144
     79c:	0006                	c.slli	zero,0x1
     79e:	0001                	nop
     7a0:	028e0403          	lb	s0,40(t3) # fffffffffffe1028 <__stack_pointer$+0xffffffff77fe1428>
     7a4:	0306                	slli	t1,t1,0x1
     7a6:	0900                	addi	s0,sp,144
     7a8:	0008                	.insn	2, 0x0008
     7aa:	0001                	nop
     7ac:	01f10403          	lb	s0,31(sp)
     7b0:	04090003          	lb	zero,64(s2)
     7b4:	0100                	addi	s0,sp,128
     7b6:	0300                	addi	s0,sp,384
     7b8:	8e04                	.insn	2, 0x8e04
     7ba:	0602                	c.slli64	a2
     7bc:	04090003          	lb	zero,64(s2)
     7c0:	0100                	addi	s0,sp,128
     7c2:	0300                	addi	s0,sp,384
     7c4:	9704                	.insn	2, 0x9704
     7c6:	0302                	c.slli64	t1
     7c8:	0900                	addi	s0,sp,144
     7ca:	0004                	.insn	2, 0x0004
     7cc:	0001                	nop
     7ce:	02a10403          	lb	s0,42(sp)
     7d2:	0306                	slli	t1,t1,0x1
     7d4:	0900                	addi	s0,sp,144
     7d6:	0004                	.insn	2, 0x0004
     7d8:	0001                	nop
     7da:	02970403          	lb	s0,41(a4)
     7de:	02090003          	lb	zero,32(s2)
     7e2:	0100                	addi	s0,sp,128
     7e4:	0300                	addi	s0,sp,384
     7e6:	9804                	.insn	2, 0x9804
     7e8:	0602                	c.slli64	a2
     7ea:	04090003          	lb	zero,64(s2)
     7ee:	0100                	addi	s0,sp,128
     7f0:	0300                	addi	s0,sp,384
     7f2:	9d04                	.insn	2, 0x9d04
     7f4:	0602                	c.slli64	a2
     7f6:	00090003          	lb	zero,0(s2)
     7fa:	0100                	addi	s0,sp,128
     7fc:	0300                	addi	s0,sp,384
     7fe:	9804                	.insn	2, 0x9804
     800:	0302                	c.slli64	t1
     802:	0900                	addi	s0,sp,144
     804:	000a                	c.slli	zero,0x2
     806:	0001                	nop
     808:	029d0403          	lb	s0,41(s10)
     80c:	04090003          	lb	zero,64(s2)
     810:	0100                	addi	s0,sp,128
     812:	0300                	addi	s0,sp,384
     814:	9f04                	.insn	2, 0x9f04
     816:	0302                	c.slli64	t1
     818:	0900                	addi	s0,sp,144
     81a:	0004                	.insn	2, 0x0004
     81c:	0001                	nop
     81e:	02a30403          	lb	s0,42(t1)
     822:	0306                	slli	t1,t1,0x1
     824:	0900                	addi	s0,sp,144
     826:	0002                	c.slli64	zero
     828:	0001                	nop
     82a:	01f20403          	lb	s0,31(tp) # 1f <_tbss_end+0x1f>
     82e:	04090003          	lb	zero,64(s2)
     832:	0100                	addi	s0,sp,128
     834:	0300                	addi	s0,sp,384
     836:	a504                	.insn	2, 0xa504
     838:	0302                	c.slli64	t1
     83a:	0900                	addi	s0,sp,144
     83c:	000a                	c.slli	zero,0x2
     83e:	0001                	nop
     840:	02a70403          	lb	s0,42(a4)
     844:	04090003          	lb	zero,64(s2)
     848:	0100                	addi	s0,sp,128
     84a:	0300                	addi	s0,sp,384
     84c:	a704                	.insn	2, 0xa704
     84e:	0302                	c.slli64	t1
     850:	0900                	addi	s0,sp,144
     852:	0000                	unimp
     854:	0001                	nop
     856:	02a90403          	lb	s0,42(s2)
     85a:	04090003          	lb	zero,64(s2)
     85e:	0100                	addi	s0,sp,128
     860:	0300                	addi	s0,sp,384
     862:	a904                	.insn	2, 0xa904
     864:	0302                	c.slli64	t1
     866:	0900                	addi	s0,sp,144
     868:	0000                	unimp
     86a:	0001                	nop
     86c:	02db0403          	lb	s0,45(s6)
     870:	0306                	slli	t1,t1,0x1
     872:	0900                	addi	s0,sp,144
     874:	0002                	c.slli64	zero
     876:	0001                	nop
     878:	02aa0403          	lb	s0,42(s4)
     87c:	0306                	slli	t1,t1,0x1
     87e:	0900                	addi	s0,sp,144
     880:	0004                	.insn	2, 0x0004
     882:	0001                	nop
     884:	02b10403          	lb	s0,43(sp)
     888:	04090003          	lb	zero,64(s2)
     88c:	0100                	addi	s0,sp,128
     88e:	0300                	addi	s0,sp,384
     890:	b104                	.insn	2, 0xb104
     892:	0302                	c.slli64	t1
     894:	0900                	addi	s0,sp,144
     896:	0000                	unimp
     898:	0001                	nop
     89a:	02b10403          	lb	s0,43(sp)
     89e:	04090003          	lb	zero,64(s2)
     8a2:	0100                	addi	s0,sp,128
     8a4:	0300                	addi	s0,sp,384
     8a6:	b104                	.insn	2, 0xb104
     8a8:	0302                	c.slli64	t1
     8aa:	0900                	addi	s0,sp,144
     8ac:	0000                	unimp
     8ae:	0001                	nop
     8b0:	02b30403          	lb	s0,43(t1)
     8b4:	0306                	slli	t1,t1,0x1
     8b6:	0900                	addi	s0,sp,144
     8b8:	0004                	.insn	2, 0x0004
     8ba:	0001                	nop
     8bc:	02b10403          	lb	s0,43(sp)
     8c0:	04090003          	lb	zero,64(s2)
     8c4:	0100                	addi	s0,sp,128
     8c6:	0300                	addi	s0,sp,384
     8c8:	b404                	.insn	2, 0xb404
     8ca:	0602                	c.slli64	a2
     8cc:	04090003          	lb	zero,64(s2)
     8d0:	0100                	addi	s0,sp,128
     8d2:	0300                	addi	s0,sp,384
     8d4:	b104                	.insn	2, 0xb104
     8d6:	0602                	c.slli64	a2
     8d8:	00090003          	lb	zero,0(s2)
     8dc:	0100                	addi	s0,sp,128
     8de:	0300                	addi	s0,sp,384
     8e0:	b404                	.insn	2, 0xb404
     8e2:	0302                	c.slli64	t1
     8e4:	0900                	addi	s0,sp,144
     8e6:	0002                	c.slli64	zero
     8e8:	0001                	nop
     8ea:	02b10403          	lb	s0,43(sp)
     8ee:	04090003          	lb	zero,64(s2)
     8f2:	0100                	addi	s0,sp,128
     8f4:	0300                	addi	s0,sp,384
     8f6:	a804                	.insn	2, 0xa804
     8f8:	0602                	c.slli64	a2
     8fa:	04090003          	lb	zero,64(s2)
     8fe:	0100                	addi	s0,sp,128
     900:	0300                	addi	s0,sp,384
     902:	a804                	.insn	2, 0xa804
     904:	0302                	c.slli64	t1
     906:	0900                	addi	s0,sp,144
     908:	0000                	unimp
     90a:	0001                	nop
     90c:	02c00403          	lb	s0,44(zero) # 2c <_tbss_end+0x2c>
     910:	00090003          	lb	zero,0(s2)
     914:	0100                	addi	s0,sp,128
     916:	0300                	addi	s0,sp,384
     918:	c004                	sw	s1,0(s0)
     91a:	0302                	c.slli64	t1
     91c:	0900                	addi	s0,sp,144
     91e:	0000                	unimp
     920:	0001                	nop
     922:	02c00403          	lb	s0,44(zero) # 2c <_tbss_end+0x2c>
     926:	00090003          	lb	zero,0(s2)
     92a:	0100                	addi	s0,sp,128
     92c:	0300                	addi	s0,sp,384
     92e:	c704                	sw	s1,8(a4)
     930:	0302                	c.slli64	t1
     932:	0900                	addi	s0,sp,144
     934:	0000                	unimp
     936:	0001                	nop
     938:	02c70403          	lb	s0,44(a4)
     93c:	00090003          	lb	zero,0(s2)
     940:	0100                	addi	s0,sp,128
     942:	0300                	addi	s0,sp,384
     944:	c704                	sw	s1,8(a4)
     946:	0302                	c.slli64	t1
     948:	0900                	addi	s0,sp,144
     94a:	0000                	unimp
     94c:	0001                	nop
     94e:	02c80403          	lb	s0,44(a6)
     952:	04090003          	lb	zero,64(s2)
     956:	0100                	addi	s0,sp,128
     958:	0300                	addi	s0,sp,384
     95a:	cd04                	sw	s1,24(a0)
     95c:	0602                	c.slli64	a2
     95e:	02090003          	lb	zero,32(s2)
     962:	0100                	addi	s0,sp,128
     964:	0300                	addi	s0,sp,384
     966:	ca04                	sw	s1,16(a2)
     968:	0302                	c.slli64	t1
     96a:	0900                	addi	s0,sp,144
     96c:	0002                	c.slli64	zero
     96e:	0001                	nop
     970:	02cd0403          	lb	s0,44(s10)
     974:	02090003          	lb	zero,32(s2)
     978:	0100                	addi	s0,sp,128
     97a:	0300                	addi	s0,sp,384
     97c:	c704                	sw	s1,8(a4)
     97e:	0302                	c.slli64	t1
     980:	0900                	addi	s0,sp,144
     982:	0002                	c.slli64	zero
     984:	0001                	nop
     986:	0402                	c.slli64	s0
     988:	0103062f          	.insn	4, 0x0103062f
     98c:	0409                	addi	s0,s0,2
     98e:	0100                	addi	s0,sp,128
     990:	0200                	addi	s0,sp,256
     992:	2f04                	.insn	2, 0x2f04
     994:	00090003          	lb	zero,0(s2)
     998:	0100                	addi	s0,sp,128
     99a:	0200                	addi	s0,sp,256
     99c:	3e04                	.insn	2, 0x3e04
     99e:	00090003          	lb	zero,0(s2)
     9a2:	0100                	addi	s0,sp,128
     9a4:	0200                	addi	s0,sp,256
     9a6:	3f04                	.insn	2, 0x3f04
     9a8:	08090003          	lb	zero,128(s2)
     9ac:	0100                	addi	s0,sp,128
     9ae:	0200                	addi	s0,sp,256
     9b0:	3f04                	.insn	2, 0x3f04
     9b2:	00090003          	lb	zero,0(s2)
     9b6:	0100                	addi	s0,sp,128
     9b8:	0200                	addi	s0,sp,256
     9ba:	3f04                	.insn	2, 0x3f04
     9bc:	02090003          	lb	zero,32(s2)
     9c0:	0100                	addi	s0,sp,128
     9c2:	0200                	addi	s0,sp,256
     9c4:	4f04                	lw	s1,24(a4)
     9c6:	10090003          	lb	zero,256(s2)
     9ca:	0100                	addi	s0,sp,128
     9cc:	0200                	addi	s0,sp,256
     9ce:	4f04                	lw	s1,24(a4)
     9d0:	00090003          	lb	zero,0(s2)
     9d4:	0100                	addi	s0,sp,128
     9d6:	0200                	addi	s0,sp,256
     9d8:	4f04                	lw	s1,24(a4)
     9da:	06090003          	lb	zero,96(s2)
     9de:	0100                	addi	s0,sp,128
     9e0:	0200                	addi	s0,sp,256
     9e2:	5004                	lw	s1,32(s0)
     9e4:	0306                	slli	t1,t1,0x1
     9e6:	0900                	addi	s0,sp,144
     9e8:	0004                	.insn	2, 0x0004
     9ea:	0001                	nop
     9ec:	0402                	c.slli64	s0
     9ee:	0354                	addi	a3,sp,388
     9f0:	0900                	addi	s0,sp,144
     9f2:	0002                	c.slli64	zero
     9f4:	0001                	nop
     9f6:	0402                	c.slli64	s0
     9f8:	065a                	slli	a2,a2,0x16
     9fa:	06090003          	lb	zero,96(s2)
     9fe:	0100                	addi	s0,sp,128
     a00:	0200                	addi	s0,sp,256
     a02:	5a04                	lw	s1,48(a2)
     a04:	00090003          	lb	zero,0(s2)
     a08:	0100                	addi	s0,sp,128
     a0a:	0200                	addi	s0,sp,256
     a0c:	5a04                	lw	s1,48(a2)
     a0e:	00090003          	lb	zero,0(s2)
     a12:	0100                	addi	s0,sp,128
     a14:	0200                	addi	s0,sp,256
     a16:	5a04                	lw	s1,48(a2)
     a18:	00090003          	lb	zero,0(s2)
     a1c:	0100                	addi	s0,sp,128
     a1e:	0200                	addi	s0,sp,256
     a20:	5a04                	lw	s1,48(a2)
     a22:	00090003          	lb	zero,0(s2)
     a26:	0100                	addi	s0,sp,128
     a28:	0200                	addi	s0,sp,256
     a2a:	5a04                	lw	s1,48(a2)
     a2c:	00090003          	lb	zero,0(s2)
     a30:	0100                	addi	s0,sp,128
     a32:	0200                	addi	s0,sp,256
     a34:	5a04                	lw	s1,48(a2)
     a36:	00090003          	lb	zero,0(s2)
     a3a:	0100                	addi	s0,sp,128
     a3c:	0105                	addi	sp,sp,1
     a3e:	0306                	slli	t1,t1,0x1
     a40:	0904                	addi	s1,sp,144
     a42:	0004                	.insn	2, 0x0004
     a44:	0501                	addi	a0,a0,0
     a46:	04020003          	lb	zero,64(tp) # 40 <_tbss_end+0x40>
     a4a:	035a                	slli	t1,t1,0x16
     a4c:	097c                	addi	a5,sp,156
     a4e:	0002                	c.slli64	zero
     a50:	0501                	addi	a0,a0,0
     a52:	0301                	addi	t1,t1,0
     a54:	0904                	addi	s1,sp,144
     a56:	000a                	c.slli	zero,0x2
     a58:	0501                	addi	a0,a0,0
     a5a:	04020003          	lb	zero,64(tp) # 40 <_tbss_end+0x40>
     a5e:	035a                	slli	t1,t1,0x16
     a60:	097c                	addi	a5,sp,156
     a62:	0002                	c.slli64	zero
     a64:	0001                	nop
     a66:	0402                	c.slli64	s0
     a68:	065a                	slli	a2,a2,0x16
     a6a:	08090003          	lb	zero,128(s2)
     a6e:	0100                	addi	s0,sp,128
     a70:	0200                	addi	s0,sp,256
     a72:	5a04                	lw	s1,48(a2)
     a74:	00090003          	lb	zero,0(s2)
     a78:	0100                	addi	s0,sp,128
     a7a:	0200                	addi	s0,sp,256
     a7c:	5a04                	lw	s1,48(a2)
     a7e:	00090003          	lb	zero,0(s2)
     a82:	0100                	addi	s0,sp,128
     a84:	00090103          	lb	sp,0(s2)
     a88:	0100                	addi	s0,sp,128
     a8a:	00090003          	lb	zero,0(s2)
     a8e:	0100                	addi	s0,sp,128
     a90:	00090003          	lb	zero,0(s2)
     a94:	0100                	addi	s0,sp,128
     a96:	00090203          	lb	tp,0(s2)
     a9a:	0100                	addi	s0,sp,128
     a9c:	0105                	addi	sp,sp,1
     a9e:	0306                	slli	t1,t1,0x1
     aa0:	0901                	addi	s2,s2,0
     aa2:	0000                	unimp
     aa4:	0501                	addi	a0,a0,0
     aa6:	04030003          	lb	zero,64(t1)
     aaa:	02a6                	slli	t0,t0,0x9
     aac:	0306                	slli	t1,t1,0x1
     aae:	000a097b          	.insn	4, 0x000a097b
     ab2:	0001                	nop
     ab4:	02a60403          	lb	s0,42(a2)
     ab8:	00090003          	lb	zero,0(s2)
     abc:	0100                	addi	s0,sp,128
     abe:	0300                	addi	s0,sp,384
     ac0:	a604                	.insn	2, 0xa604
     ac2:	0302                	c.slli64	t1
     ac4:	0900                	addi	s0,sp,144
     ac6:	0004                	.insn	2, 0x0004
     ac8:	0001                	nop
     aca:	02a60403          	lb	s0,42(a2)
     ace:	00090003          	lb	zero,0(s2)
     ad2:	0100                	addi	s0,sp,128
     ad4:	0300                	addi	s0,sp,384
     ad6:	d804                	sw	s1,48(s0)
     ad8:	0302                	c.slli64	t1
     ada:	0900                	addi	s0,sp,144
     adc:	0008                	.insn	2, 0x0008
     ade:	0001                	nop
     ae0:	02d80403          	lb	s0,45(a6)
     ae4:	04090003          	lb	zero,64(s2)
     ae8:	0100                	addi	s0,sp,128
     aea:	0300                	addi	s0,sp,384
     aec:	e104                	sd	s1,0(a0)
     aee:	0302                	c.slli64	t1
     af0:	0900                	addi	s0,sp,144
     af2:	0002                	c.slli64	zero
     af4:	0001                	nop
     af6:	02e10403          	lb	s0,46(sp)
     afa:	00090003          	lb	zero,0(s2)
     afe:	0100                	addi	s0,sp,128
     b00:	0300                	addi	s0,sp,384
     b02:	e104                	sd	s1,0(a0)
     b04:	0302                	c.slli64	t1
     b06:	0900                	addi	s0,sp,144
     b08:	0000                	unimp
     b0a:	0001                	nop
     b0c:	02e30403          	lb	s0,46(t1)
     b10:	00090003          	lb	zero,0(s2)
     b14:	0100                	addi	s0,sp,128
     b16:	0300                	addi	s0,sp,384
     b18:	e504                	sd	s1,8(a0)
     b1a:	0302                	c.slli64	t1
     b1c:	0900                	addi	s0,sp,144
     b1e:	0000                	unimp
     b20:	0001                	nop
     b22:	02e80403          	lb	s0,46(a6)
     b26:	06090003          	lb	zero,96(s2)
     b2a:	0100                	addi	s0,sp,128
     b2c:	0300                	addi	s0,sp,384
     b2e:	e804                	sd	s1,16(s0)
     b30:	0302                	c.slli64	t1
     b32:	0900                	addi	s0,sp,144
     b34:	0000                	unimp
     b36:	0001                	nop
     b38:	02e80403          	lb	s0,46(a6)
     b3c:	04090003          	lb	zero,64(s2)
     b40:	0100                	addi	s0,sp,128
     b42:	0300                	addi	s0,sp,384
     b44:	e804                	sd	s1,16(s0)
     b46:	0302                	c.slli64	t1
     b48:	0900                	addi	s0,sp,144
     b4a:	0000                	unimp
     b4c:	0001                	nop
     b4e:	02ec0403          	lb	s0,46(s8)
     b52:	00090003          	lb	zero,0(s2)
     b56:	0100                	addi	s0,sp,128
     b58:	0300                	addi	s0,sp,384
     b5a:	ee04                	sd	s1,24(a2)
     b5c:	0302                	c.slli64	t1
     b5e:	0900                	addi	s0,sp,144
     b60:	0004                	.insn	2, 0x0004
     b62:	0001                	nop
     b64:	02ee0403          	lb	s0,46(t3)
     b68:	00090003          	lb	zero,0(s2)
     b6c:	0100                	addi	s0,sp,128
     b6e:	0300                	addi	s0,sp,384
     b70:	ef04                	sd	s1,24(a4)
     b72:	0302                	c.slli64	t1
     b74:	0900                	addi	s0,sp,144
     b76:	0004                	.insn	2, 0x0004
     b78:	0001                	nop
     b7a:	02ef0403          	lb	s0,46(t5)
     b7e:	06090003          	lb	zero,96(s2)
     b82:	0100                	addi	s0,sp,128
     b84:	0300                	addi	s0,sp,384
     b86:	f404                	sd	s1,40(s0)
     b88:	0602                	c.slli64	a2
     b8a:	00090003          	lb	zero,0(s2)
     b8e:	0100                	addi	s0,sp,128
     b90:	0300                	addi	s0,sp,384
     b92:	ef04                	sd	s1,24(a4)
     b94:	0302                	c.slli64	t1
     b96:	0900                	addi	s0,sp,144
     b98:	0006                	c.slli	zero,0x1
     b9a:	0001                	nop
     b9c:	02f40403          	lb	s0,47(s0)
     ba0:	04090003          	lb	zero,64(s2)
     ba4:	0100                	addi	s0,sp,128
     ba6:	0300                	addi	s0,sp,384
     ba8:	f604                	sd	s1,40(a2)
     baa:	0302                	c.slli64	t1
     bac:	0900                	addi	s0,sp,144
     bae:	0008                	.insn	2, 0x0008
     bb0:	0001                	nop
     bb2:	02f60403          	lb	s0,47(a2)
     bb6:	0306                	slli	t1,t1,0x1
     bb8:	0900                	addi	s0,sp,144
     bba:	0002                	c.slli64	zero
     bbc:	0001                	nop
     bbe:	02d90403          	lb	s0,45(s2)
     bc2:	04090003          	lb	zero,64(s2)
     bc6:	0100                	addi	s0,sp,128
     bc8:	0300                	addi	s0,sp,384
     bca:	a604                	.insn	2, 0xa604
     bcc:	0602                	c.slli64	a2
     bce:	02090003          	lb	zero,32(s2)
     bd2:	0100                	addi	s0,sp,128
     bd4:	0300                	addi	s0,sp,384
     bd6:	db04                	sw	s1,48(a4)
     bd8:	0302                	c.slli64	t1
     bda:	0900                	addi	s0,sp,144
     bdc:	0002                	c.slli64	zero
     bde:	0001                	nop
     be0:	02f00403          	lb	s0,47(zero) # 2f <_tbss_end+0x2f>
     be4:	0306                	slli	t1,t1,0x1
     be6:	0900                	addi	s0,sp,144
     be8:	0004                	.insn	2, 0x0004
     bea:	0001                	nop
     bec:	02f00403          	lb	s0,47(zero) # 2f <_tbss_end+0x2f>
     bf0:	04090003          	lb	zero,64(s2)
     bf4:	0100                	addi	s0,sp,128
     bf6:	0200                	addi	s0,sp,256
     bf8:	3d04                	.insn	2, 0x3d04
     bfa:	0306                	slli	t1,t1,0x1
     bfc:	0900                	addi	s0,sp,144
     bfe:	000a                	c.slli	zero,0x2
     c00:	0001                	nop
     c02:	01f10403          	lb	s0,31(sp)
     c06:	0c090003          	lb	zero,192(s2)
     c0a:	0100                	addi	s0,sp,128
     c0c:	0300                	addi	s0,sp,384
     c0e:	ac04                	.insn	2, 0xac04
     c10:	0302                	c.slli64	t1
     c12:	0900                	addi	s0,sp,144
     c14:	0002                	c.slli64	zero
     c16:	0001                	nop
     c18:	02cb0403          	lb	s0,44(s6)
     c1c:	04090003          	lb	zero,64(s2)
     c20:	0100                	addi	s0,sp,128
     c22:	0300                	addi	s0,sp,384
     c24:	d004                	sw	s1,32(s0)
     c26:	0302                	c.slli64	t1
     c28:	0900                	addi	s0,sp,144
     c2a:	0004                	.insn	2, 0x0004
     c2c:	0901                	addi	s2,s2,0
     c2e:	0008                	.insn	2, 0x0008
     c30:	0100                	addi	s0,sp,128
     c32:	7501                	lui	a0,0xfffe0
     c34:	0002                	c.slli64	zero
     c36:	0500                	addi	s0,sp,640
     c38:	0800                	addi	s0,sp,16
     c3a:	3c00                	.insn	2, 0x3c00
     c3c:	0000                	unimp
     c3e:	0100                	addi	s0,sp,128
     c40:	0101                	addi	sp,sp,0
     c42:	000d0efb          	.insn	4, 0x000d0efb
     c46:	0101                	addi	sp,sp,0
     c48:	0101                	addi	sp,sp,0
     c4a:	0000                	unimp
     c4c:	0100                	addi	s0,sp,128
     c4e:	0000                	unimp
     c50:	0101                	addi	sp,sp,0
     c52:	1f01                	addi	t5,t5,-32
     c54:	00002d03          	lw	s10,0(zero) # 0 <_tbss_end>
     c58:	9800                	.insn	2, 0x9800
     c5a:	0000                	unimp
     c5c:	f100                	sd	s0,32(a0)
     c5e:	0000                	unimp
     c60:	0200                	addi	s0,sp,256
     c62:	1f01                	addi	t5,t5,-32
     c64:	0f02                	c.slli64	t5
     c66:	e904                	sd	s1,16(a0)
     c68:	0000                	unimp
     c6a:	0100                	addi	s0,sp,128
     c6c:	00e9                	addi	ra,ra,26
     c6e:	0000                	unimp
     c70:	f301                	bnez	a4,b70 <_tbss_end+0xb70>
     c72:	0000                	unimp
     c74:	0200                	addi	s0,sp,256
     c76:	0101                	addi	sp,sp,0
     c78:	0000                	unimp
     c7a:	0501                	addi	a0,a0,0 # fffffffffffe0000 <__stack_pointer$+0xffffffff77fe0400>
     c7c:	0001                	nop
     c7e:	0209                	addi	tp,tp,2 # 2 <_tbss_end+0x2>
     c80:	3254                	.insn	2, 0x3254
     c82:	8000                	.insn	2, 0x8000
     c84:	0000                	unimp
     c86:	0000                	unimp
     c88:	05012103          	lw	sp,80(sp)
     c8c:	09010303          	lb	t1,144(sp)
     c90:	0000                	unimp
     c92:	0301                	addi	t1,t1,0
     c94:	0900                	addi	s0,sp,144
     c96:	0000                	unimp
     c98:	0501                	addi	a0,a0,0
     c9a:	030d                	addi	t1,t1,3
     c9c:	0900                	addi	s0,sp,144
     c9e:	0000                	unimp
     ca0:	0501                	addi	a0,a0,0
     ca2:	09010303          	lb	t1,144(sp)
     ca6:	0000                	unimp
     ca8:	0301                	addi	t1,t1,0
     caa:	0900                	addi	s0,sp,144
     cac:	0000                	unimp
     cae:	0301                	addi	t1,t1,0
     cb0:	0900                	addi	s0,sp,144
     cb2:	0000                	unimp
     cb4:	0301                	addi	t1,t1,0
     cb6:	0900                	addi	s0,sp,144
     cb8:	0000                	unimp
     cba:	0301                	addi	t1,t1,0
     cbc:	0901                	addi	s2,s2,0
     cbe:	0000                	unimp
     cc0:	0301                	addi	t1,t1,0
     cc2:	0900                	addi	s0,sp,144
     cc4:	0000                	unimp
     cc6:	0301                	addi	t1,t1,0
     cc8:	0900                	addi	s0,sp,144
     cca:	0000                	unimp
     ccc:	0301                	addi	t1,t1,0
     cce:	0900                	addi	s0,sp,144
     cd0:	0000                	unimp
     cd2:	0301                	addi	t1,t1,0
     cd4:	0901                	addi	s2,s2,0
     cd6:	0000                	unimp
     cd8:	0301                	addi	t1,t1,0
     cda:	0902                	c.slli64	s2
     cdc:	0000                	unimp
     cde:	0301                	addi	t1,t1,0
     ce0:	0901                	addi	s2,s2,0
     ce2:	0000                	unimp
     ce4:	0301                	addi	t1,t1,0
     ce6:	0900                	addi	s0,sp,144
     ce8:	0000                	unimp
     cea:	0301                	addi	t1,t1,0
     cec:	0900                	addi	s0,sp,144
     cee:	0000                	unimp
     cf0:	0301                	addi	t1,t1,0
     cf2:	0900                	addi	s0,sp,144
     cf4:	0000                	unimp
     cf6:	0601                	addi	a2,a2,0
     cf8:	0e090103          	lb	sp,224(s2)
     cfc:	0100                	addi	s0,sp,128
     cfe:	06097f03          	.insn	4, 0x06097f03
     d02:	0100                	addi	s0,sp,128
     d04:	02090103          	lb	sp,32(s2)
     d08:	0100                	addi	s0,sp,128
     d0a:	02097f03          	.insn	4, 0x02097f03
     d0e:	0100                	addi	s0,sp,128
     d10:	0200                	addi	s0,sp,256
     d12:	1304                	addi	s1,sp,416
     d14:	04090203          	lb	tp,64(s2)
     d18:	0100                	addi	s0,sp,128
     d1a:	04097e03          	.insn	4, 0x04097e03
     d1e:	0100                	addi	s0,sp,128
     d20:	0306                	slli	t1,t1,0x1
     d22:	0900                	addi	s0,sp,144
     d24:	0004                	.insn	2, 0x0004
     d26:	0301                	addi	t1,t1,0
     d28:	0900                	addi	s0,sp,144
     d2a:	0000                	unimp
     d2c:	0301                	addi	t1,t1,0
     d2e:	0900                	addi	s0,sp,144
     d30:	0004                	.insn	2, 0x0004
     d32:	0301                	addi	t1,t1,0
     d34:	0901                	addi	s2,s2,0
     d36:	0000                	unimp
     d38:	0301                	addi	t1,t1,0
     d3a:	0900                	addi	s0,sp,144
     d3c:	0000                	unimp
     d3e:	0301                	addi	t1,t1,0
     d40:	0900                	addi	s0,sp,144
     d42:	0000                	unimp
     d44:	0301                	addi	t1,t1,0
     d46:	0900                	addi	s0,sp,144
     d48:	0000                	unimp
     d4a:	0301                	addi	t1,t1,0
     d4c:	0900                	addi	s0,sp,144
     d4e:	0002                	c.slli64	zero
     d50:	0301                	addi	t1,t1,0
     d52:	0900                	addi	s0,sp,144
     d54:	0004                	.insn	2, 0x0004
     d56:	0301                	addi	t1,t1,0
     d58:	0900                	addi	s0,sp,144
     d5a:	0004                	.insn	2, 0x0004
     d5c:	0301                	addi	t1,t1,0
     d5e:	0901                	addi	s2,s2,0
     d60:	0000                	unimp
     d62:	0301                	addi	t1,t1,0
     d64:	0900                	addi	s0,sp,144
     d66:	0000                	unimp
     d68:	0301                	addi	t1,t1,0
     d6a:	0900                	addi	s0,sp,144
     d6c:	0000                	unimp
     d6e:	0001                	nop
     d70:	0402                	c.slli64	s0
     d72:	09000313          	li	t1,144
     d76:	0000                	unimp
     d78:	0001                	nop
     d7a:	0402                	c.slli64	s0
     d7c:	09000313          	li	t1,144
     d80:	0000                	unimp
     d82:	0001                	nop
     d84:	0402                	c.slli64	s0
     d86:	061a                	slli	a2,a2,0x6
     d88:	04090003          	lb	zero,64(s2)
     d8c:	0100                	addi	s0,sp,128
     d8e:	0200                	addi	s0,sp,256
     d90:	1404                	addi	s1,sp,544
     d92:	02090003          	lb	zero,32(s2)
     d96:	0100                	addi	s0,sp,128
     d98:	0200                	addi	s0,sp,256
     d9a:	5704                	lw	s1,40(a4)
     d9c:	04090003          	lb	zero,64(s2)
     da0:	0100                	addi	s0,sp,128
     da2:	0200                	addi	s0,sp,256
     da4:	1704                	addi	s1,sp,928
     da6:	02090003          	lb	zero,32(s2)
     daa:	0100                	addi	s0,sp,128
     dac:	0200                	addi	s0,sp,256
     dae:	1804                	addi	s1,sp,48
     db0:	04090003          	lb	zero,64(s2)
     db4:	0100                	addi	s0,sp,128
     db6:	0200                	addi	s0,sp,256
     db8:	1704                	addi	s1,sp,928
     dba:	04090003          	lb	zero,64(s2)
     dbe:	0100                	addi	s0,sp,128
     dc0:	0200                	addi	s0,sp,256
     dc2:	1b04                	addi	s1,sp,432
     dc4:	0306                	slli	t1,t1,0x1
     dc6:	0900                	addi	s0,sp,144
     dc8:	0004                	.insn	2, 0x0004
     dca:	0001                	nop
     dcc:	0402                	c.slli64	s0
     dce:	0900031b          	addiw	t1,zero,144
     dd2:	0000                	unimp
     dd4:	0001                	nop
     dd6:	0402                	c.slli64	s0
     dd8:	09000347          	.insn	4, 0x09000347
     ddc:	0000                	unimp
     dde:	0001                	nop
     de0:	0402                	c.slli64	s0
     de2:	09000347          	.insn	4, 0x09000347
     de6:	0000                	unimp
     de8:	0001                	nop
     dea:	0402                	c.slli64	s0
     dec:	0900034b          	.insn	4, 0x0900034b
     df0:	0000                	unimp
     df2:	0001                	nop
     df4:	0402                	c.slli64	s0
     df6:	0900034b          	.insn	4, 0x0900034b
     dfa:	0000                	unimp
     dfc:	0001                	nop
     dfe:	0402                	c.slli64	s0
     e00:	0900034b          	.insn	4, 0x0900034b
     e04:	0000                	unimp
     e06:	0001                	nop
     e08:	0402                	c.slli64	s0
     e0a:	034e                	slli	t1,t1,0x13
     e0c:	0900                	addi	s0,sp,144
     e0e:	0000                	unimp
     e10:	0001                	nop
     e12:	0402                	c.slli64	s0
     e14:	034e                	slli	t1,t1,0x13
     e16:	0900                	addi	s0,sp,144
     e18:	0000                	unimp
     e1a:	0001                	nop
     e1c:	0402                	c.slli64	s0
     e1e:	034e                	slli	t1,t1,0x13
     e20:	0900                	addi	s0,sp,144
     e22:	0000                	unimp
     e24:	0001                	nop
     e26:	0402                	c.slli64	s0
     e28:	00030657          	.insn	4, 0x00030657
     e2c:	0009                	c.nop	2
     e2e:	0100                	addi	s0,sp,128
     e30:	0200                	addi	s0,sp,256
     e32:	4e04                	lw	s1,24(a2)
     e34:	02090003          	lb	zero,32(s2)
     e38:	0100                	addi	s0,sp,128
     e3a:	0200                	addi	s0,sp,256
     e3c:	5004                	lw	s1,32(s0)
     e3e:	04090003          	lb	zero,64(s2)
     e42:	0100                	addi	s0,sp,128
     e44:	0200                	addi	s0,sp,256
     e46:	5804                	lw	s1,48(s0)
     e48:	04090003          	lb	zero,64(s2)
     e4c:	0100                	addi	s0,sp,128
     e4e:	0200                	addi	s0,sp,256
     e50:	5204                	lw	s1,32(a2)
     e52:	02090003          	lb	zero,32(s2)
     e56:	0100                	addi	s0,sp,128
     e58:	0200                	addi	s0,sp,256
     e5a:	5704                	lw	s1,40(a4)
     e5c:	04090003          	lb	zero,64(s2)
     e60:	0100                	addi	s0,sp,128
     e62:	0200                	addi	s0,sp,256
     e64:	5304                	lw	s1,32(a4)
     e66:	02090003          	lb	zero,32(s2)
     e6a:	0100                	addi	s0,sp,128
     e6c:	0200                	addi	s0,sp,256
     e6e:	5604                	lw	s1,40(a2)
     e70:	02090003          	lb	zero,32(s2)
     e74:	0100                	addi	s0,sp,128
     e76:	0200                	addi	s0,sp,256
     e78:	5a04                	lw	s1,48(a2)
     e7a:	04090003          	lb	zero,64(s2)
     e7e:	0100                	addi	s0,sp,128
     e80:	0200                	addi	s0,sp,256
     e82:	1a04                	addi	s1,sp,304
     e84:	04090003          	lb	zero,64(s2)
     e88:	0100                	addi	s0,sp,128
     e8a:	0200                	addi	s0,sp,256
     e8c:	5704                	lw	s1,40(a4)
     e8e:	02090003          	lb	zero,32(s2)
     e92:	0100                	addi	s0,sp,128
     e94:	0200                	addi	s0,sp,256
     e96:	1804                	addi	s1,sp,48
     e98:	02090003          	lb	zero,32(s2)
     e9c:	0100                	addi	s0,sp,128
     e9e:	0105                	addi	sp,sp,1
     ea0:	02090403          	lb	s0,32(s2)
     ea4:	0100                	addi	s0,sp,128
     ea6:	0209                	addi	tp,tp,2 # 2 <_tbss_end+0x2>
     ea8:	0000                	unimp
     eaa:	0101                	addi	sp,sp,0
     eac:	000002f7          	.insn	4, 0x02f7
     eb0:	0005                	c.nop	1
     eb2:	0008                	.insn	2, 0x0008
     eb4:	003c                	addi	a5,sp,8
     eb6:	0000                	unimp
     eb8:	0101                	addi	sp,sp,0
     eba:	fb01                	bnez	a4,dca <_tbss_end+0xdca>
     ebc:	0d0e                	slli	s10,s10,0x3
     ebe:	0100                	addi	s0,sp,128
     ec0:	0101                	addi	sp,sp,0
     ec2:	0001                	nop
     ec4:	0000                	unimp
     ec6:	0001                	nop
     ec8:	0100                	addi	s0,sp,128
     eca:	0101                	addi	sp,sp,0
     ecc:	031f 002d 0000      	.insn	6, 0x002d031f
     ed2:	0098                	addi	a4,sp,64
     ed4:	0000                	unimp
     ed6:	00f1                	addi	ra,ra,28
     ed8:	0000                	unimp
     eda:	0102                	c.slli64	sp
     edc:	021f 040f 012e      	.insn	6, 0x012e040f021f
     ee2:	0000                	unimp
     ee4:	2e01                	sext.w	t3,t3
     ee6:	0001                	nop
     ee8:	0100                	addi	s0,sp,128
     eea:	000000f3          	.insn	4, 0x00f3
     eee:	0102                	c.slli64	sp
     ef0:	0001                	nop
     ef2:	0100                	addi	s0,sp,128
     ef4:	0105                	addi	sp,sp,1
     ef6:	0900                	addi	s0,sp,144
     ef8:	c202                	sw	zero,4(sp)
     efa:	0032                	c.slli	zero,0xc
     efc:	0080                	addi	s0,sp,64
     efe:	0000                	unimp
     f00:	0300                	addi	s0,sp,384
     f02:	0121                	addi	sp,sp,8
     f04:	0305                	addi	t1,t1,1
     f06:	00090103          	lb	sp,0(s2)
     f0a:	0100                	addi	s0,sp,128
     f0c:	00090003          	lb	zero,0(s2)
     f10:	0100                	addi	s0,sp,128
     f12:	0d05                	addi	s10,s10,1
     f14:	00090003          	lb	zero,0(s2)
     f18:	0100                	addi	s0,sp,128
     f1a:	0305                	addi	t1,t1,1
     f1c:	00090103          	lb	sp,0(s2)
     f20:	0100                	addi	s0,sp,128
     f22:	00090003          	lb	zero,0(s2)
     f26:	0100                	addi	s0,sp,128
     f28:	00090003          	lb	zero,0(s2)
     f2c:	0100                	addi	s0,sp,128
     f2e:	00090003          	lb	zero,0(s2)
     f32:	0100                	addi	s0,sp,128
     f34:	00090103          	lb	sp,0(s2)
     f38:	0100                	addi	s0,sp,128
     f3a:	00090003          	lb	zero,0(s2)
     f3e:	0100                	addi	s0,sp,128
     f40:	00090003          	lb	zero,0(s2)
     f44:	0100                	addi	s0,sp,128
     f46:	00090003          	lb	zero,0(s2)
     f4a:	0100                	addi	s0,sp,128
     f4c:	00090103          	lb	sp,0(s2)
     f50:	0100                	addi	s0,sp,128
     f52:	00090203          	lb	tp,0(s2)
     f56:	0100                	addi	s0,sp,128
     f58:	00090103          	lb	sp,0(s2)
     f5c:	0100                	addi	s0,sp,128
     f5e:	00090003          	lb	zero,0(s2)
     f62:	0100                	addi	s0,sp,128
     f64:	00090003          	lb	zero,0(s2)
     f68:	0100                	addi	s0,sp,128
     f6a:	00090003          	lb	zero,0(s2)
     f6e:	0100                	addi	s0,sp,128
     f70:	0306                	slli	t1,t1,0x1
     f72:	0901                	addi	s2,s2,0
     f74:	000e                	c.slli	zero,0x3
     f76:	0301                	addi	t1,t1,0
     f78:	097f 0002 0301 0901 	.insn	10, 0x0006090103010002097f
     f80:	0006 
     f82:	0301                	addi	t1,t1,0
     f84:	097f 0006 0001 0402 	.insn	10, 0x0313040200010006097f
     f8c:	0313 
     f8e:	0902                	c.slli64	s2
     f90:	0004                	.insn	2, 0x0004
     f92:	0301                	addi	t1,t1,0
     f94:	097e                	slli	s2,s2,0x1f
     f96:	0004                	.insn	2, 0x0004
     f98:	0601                	addi	a2,a2,0
     f9a:	02090003          	lb	zero,32(s2)
     f9e:	0100                	addi	s0,sp,128
     fa0:	00090003          	lb	zero,0(s2)
     fa4:	0100                	addi	s0,sp,128
     fa6:	00090003          	lb	zero,0(s2)
     faa:	0100                	addi	s0,sp,128
     fac:	00090103          	lb	sp,0(s2)
     fb0:	0100                	addi	s0,sp,128
     fb2:	00090003          	lb	zero,0(s2)
     fb6:	0100                	addi	s0,sp,128
     fb8:	00090003          	lb	zero,0(s2)
     fbc:	0100                	addi	s0,sp,128
     fbe:	00090003          	lb	zero,0(s2)
     fc2:	0100                	addi	s0,sp,128
     fc4:	02090003          	lb	zero,32(s2)
     fc8:	0100                	addi	s0,sp,128
     fca:	04090003          	lb	zero,64(s2)
     fce:	0100                	addi	s0,sp,128
     fd0:	04090003          	lb	zero,64(s2)
     fd4:	0100                	addi	s0,sp,128
     fd6:	00090103          	lb	sp,0(s2)
     fda:	0100                	addi	s0,sp,128
     fdc:	00090003          	lb	zero,0(s2)
     fe0:	0100                	addi	s0,sp,128
     fe2:	00090003          	lb	zero,0(s2)
     fe6:	0100                	addi	s0,sp,128
     fe8:	0200                	addi	s0,sp,256
     fea:	1304                	addi	s1,sp,416
     fec:	00090003          	lb	zero,0(s2)
     ff0:	0100                	addi	s0,sp,128
     ff2:	0200                	addi	s0,sp,256
     ff4:	1304                	addi	s1,sp,416
     ff6:	00090003          	lb	zero,0(s2)
     ffa:	0100                	addi	s0,sp,128
     ffc:	0200                	addi	s0,sp,256
     ffe:	1404                	addi	s1,sp,544
    1000:	0306                	slli	t1,t1,0x1
    1002:	0900                	addi	s0,sp,144
    1004:	0004                	.insn	2, 0x0004
    1006:	0001                	nop
    1008:	0402                	c.slli64	s0
    100a:	09000317          	auipc	t1,0x9000
    100e:	0002                	c.slli64	zero
    1010:	0001                	nop
    1012:	0402                	c.slli64	s0
    1014:	0318                	addi	a4,sp,384
    1016:	0900                	addi	s0,sp,144
    1018:	0008                	.insn	2, 0x0008
    101a:	0001                	nop
    101c:	0402                	c.slli64	s0
    101e:	0003061b          	sext.w	a2,t1
    1022:	0209                	addi	tp,tp,2 # 2 <_tbss_end+0x2>
    1024:	0100                	addi	s0,sp,128
    1026:	0200                	addi	s0,sp,256
    1028:	1b04                	addi	s1,sp,432
    102a:	00090003          	lb	zero,0(s2)
    102e:	0100                	addi	s0,sp,128
    1030:	0200                	addi	s0,sp,256
    1032:	1b04                	addi	s1,sp,432
    1034:	00090003          	lb	zero,0(s2)
    1038:	0100                	addi	s0,sp,128
    103a:	0200                	addi	s0,sp,256
    103c:	1b04                	addi	s1,sp,432
    103e:	00090003          	lb	zero,0(s2)
    1042:	0100                	addi	s0,sp,128
    1044:	0200                	addi	s0,sp,256
    1046:	3704                	.insn	2, 0x3704
    1048:	00090003          	lb	zero,0(s2)
    104c:	0100                	addi	s0,sp,128
    104e:	0200                	addi	s0,sp,256
    1050:	3704                	.insn	2, 0x3704
    1052:	00090003          	lb	zero,0(s2)
    1056:	0100                	addi	s0,sp,128
    1058:	0200                	addi	s0,sp,256
    105a:	3b04                	.insn	2, 0x3b04
    105c:	00090003          	lb	zero,0(s2)
    1060:	0100                	addi	s0,sp,128
    1062:	0200                	addi	s0,sp,256
    1064:	3b04                	.insn	2, 0x3b04
    1066:	00090003          	lb	zero,0(s2)
    106a:	0100                	addi	s0,sp,128
    106c:	0200                	addi	s0,sp,256
    106e:	3b04                	.insn	2, 0x3b04
    1070:	00090003          	lb	zero,0(s2)
    1074:	0100                	addi	s0,sp,128
    1076:	0200                	addi	s0,sp,256
    1078:	3e04                	.insn	2, 0x3e04
    107a:	00090003          	lb	zero,0(s2)
    107e:	0100                	addi	s0,sp,128
    1080:	0200                	addi	s0,sp,256
    1082:	3e04                	.insn	2, 0x3e04
    1084:	00090003          	lb	zero,0(s2)
    1088:	0100                	addi	s0,sp,128
    108a:	0200                	addi	s0,sp,256
    108c:	3e04                	.insn	2, 0x3e04
    108e:	00090003          	lb	zero,0(s2)
    1092:	0100                	addi	s0,sp,128
    1094:	0200                	addi	s0,sp,256
    1096:	4404                	lw	s1,8(s0)
    1098:	02090003          	lb	zero,32(s2)
    109c:	0100                	addi	s0,sp,128
    109e:	0200                	addi	s0,sp,256
    10a0:	4a04                	lw	s1,16(a2)
    10a2:	02090003          	lb	zero,32(s2)
    10a6:	0100                	addi	s0,sp,128
    10a8:	0200                	addi	s0,sp,256
    10aa:	4b04                	lw	s1,16(a4)
    10ac:	0306                	slli	t1,t1,0x1
    10ae:	0900                	addi	s0,sp,144
    10b0:	0002                	c.slli64	zero
    10b2:	0001                	nop
    10b4:	0402                	c.slli64	s0
    10b6:	067a                	slli	a2,a2,0x1e
    10b8:	02090003          	lb	zero,32(s2)
    10bc:	0100                	addi	s0,sp,128
    10be:	0200                	addi	s0,sp,256
    10c0:	5a04                	lw	s1,48(a2)
    10c2:	0306                	slli	t1,t1,0x1
    10c4:	0900                	addi	s0,sp,144
    10c6:	0000                	unimp
    10c8:	0001                	nop
    10ca:	0402                	c.slli64	s0
    10cc:	037a                	slli	t1,t1,0x1e
    10ce:	0900                	addi	s0,sp,144
    10d0:	0002                	c.slli64	zero
    10d2:	0001                	nop
    10d4:	0402                	c.slli64	s0
    10d6:	09000353          	.insn	4, 0x09000353
    10da:	0002                	c.slli64	zero
    10dc:	0001                	nop
    10de:	0402                	c.slli64	s0
    10e0:	0666                	slli	a2,a2,0x19
    10e2:	04090003          	lb	zero,64(s2)
    10e6:	0100                	addi	s0,sp,128
    10e8:	0200                	addi	s0,sp,256
    10ea:	6d04                	ld	s1,24(a0)
    10ec:	04090003          	lb	zero,64(s2)
    10f0:	0100                	addi	s0,sp,128
    10f2:	0200                	addi	s0,sp,256
    10f4:	7404                	ld	s1,40(s0)
    10f6:	04090003          	lb	zero,64(s2)
    10fa:	0100                	addi	s0,sp,128
    10fc:	0200                	addi	s0,sp,256
    10fe:	4d04                	lw	s1,24(a0)
    1100:	0306                	slli	t1,t1,0x1
    1102:	0900                	addi	s0,sp,144
    1104:	0000                	unimp
    1106:	0001                	nop
    1108:	0402                	c.slli64	s0
    110a:	0374                	addi	a3,sp,396
    110c:	0900                	addi	s0,sp,144
    110e:	0002                	c.slli64	zero
    1110:	0001                	nop
    1112:	0402                	c.slli64	s0
    1114:	031a                	slli	t1,t1,0x6
    1116:	0900                	addi	s0,sp,144
    1118:	0006                	c.slli	zero,0x1
    111a:	0001                	nop
    111c:	0402                	c.slli64	s0
    111e:	064a                	slli	a2,a2,0x12
    1120:	04090003          	lb	zero,64(s2)
    1124:	0100                	addi	s0,sp,128
    1126:	0200                	addi	s0,sp,256
    1128:	5804                	lw	s1,48(s0)
    112a:	02090003          	lb	zero,32(s2)
    112e:	0100                	addi	s0,sp,128
    1130:	0200                	addi	s0,sp,256
    1132:	5f04                	lw	s1,56(a4)
    1134:	04090003          	lb	zero,64(s2)
    1138:	0100                	addi	s0,sp,128
    113a:	0200                	addi	s0,sp,256
    113c:	7304                	ld	s1,32(a4)
    113e:	04090003          	lb	zero,64(s2)
    1142:	0100                	addi	s0,sp,128
    1144:	0200                	addi	s0,sp,256
    1146:	5304                	lw	s1,32(a4)
    1148:	0306                	slli	t1,t1,0x1
    114a:	0900                	addi	s0,sp,144
    114c:	0000                	unimp
    114e:	0001                	nop
    1150:	0402                	c.slli64	s0
    1152:	09000373          	.insn	4, 0x09000373
    1156:	0002                	c.slli64	zero
    1158:	0501                	addi	a0,a0,0
    115a:	0301                	addi	t1,t1,0 # 900100a <_free_space+0x100d9e2>
    115c:	0904                	addi	s1,sp,144
    115e:	0002                	c.slli64	zero
    1160:	0501                	addi	a0,a0,0
    1162:	04020003          	lb	zero,64(tp) # 40 <_tbss_end+0x40>
    1166:	0644                	addi	s1,sp,772
    1168:	02097c03          	.insn	4, 0x02097c03
    116c:	0100                	addi	s0,sp,128
    116e:	0200                	addi	s0,sp,256
    1170:	5104                	lw	s1,32(a0)
    1172:	02090003          	lb	zero,32(s2)
    1176:	0100                	addi	s0,sp,128
    1178:	0200                	addi	s0,sp,256
    117a:	5e04                	lw	s1,56(a2)
    117c:	02090003          	lb	zero,32(s2)
    1180:	0100                	addi	s0,sp,128
    1182:	0200                	addi	s0,sp,256
    1184:	5304                	lw	s1,32(a4)
    1186:	0306                	slli	t1,t1,0x1
    1188:	0900                	addi	s0,sp,144
    118a:	0000                	unimp
    118c:	0001                	nop
    118e:	0402                	c.slli64	s0
    1190:	035e                	slli	t1,t1,0x17
    1192:	0900                	addi	s0,sp,144
    1194:	0002                	c.slli64	zero
    1196:	0001                	nop
    1198:	0402                	c.slli64	s0
    119a:	035a                	slli	t1,t1,0x16
    119c:	0900                	addi	s0,sp,144
    119e:	0002                	c.slli64	zero
    11a0:	0901                	addi	s2,s2,0
    11a2:	0004                	.insn	2, 0x0004
    11a4:	0100                	addi	s0,sp,128
    11a6:	1201                	addi	tp,tp,-32 # ffffffffffffffe0 <__stack_pointer$+0xffffffff780003e0>
    11a8:	05000007          	.insn	4, 0x05000007
    11ac:	0800                	addi	s0,sp,16
    11ae:	3300                	.insn	2, 0x3300
    11b0:	0000                	unimp
    11b2:	0100                	addi	s0,sp,128
    11b4:	0101                	addi	sp,sp,0
    11b6:	000d0efb          	.insn	4, 0x000d0efb
    11ba:	0101                	addi	sp,sp,0
    11bc:	0101                	addi	sp,sp,0
    11be:	0000                	unimp
    11c0:	0100                	addi	s0,sp,128
    11c2:	0000                	unimp
    11c4:	0101                	addi	sp,sp,0
    11c6:	1f01                	addi	t5,t5,-32
    11c8:	2d02                	.insn	2, 0x2d02
    11ca:	0000                	unimp
    11cc:	9800                	.insn	2, 0x9800
    11ce:	0000                	unimp
    11d0:	0200                	addi	s0,sp,256
    11d2:	1f01                	addi	t5,t5,-32
    11d4:	0f02                	c.slli64	t5
    11d6:	00015a03          	lhu	s4,0(sp)
    11da:	0100                	addi	s0,sp,128
    11dc:	015a                	slli	sp,sp,0x16
    11de:	0000                	unimp
    11e0:	0101                	addi	sp,sp,0
    11e2:	0001                	nop
    11e4:	0100                	addi	s0,sp,128
    11e6:	0105                	addi	sp,sp,1
    11e8:	0900                	addi	s0,sp,144
    11ea:	4202                	lw	tp,0(sp)
    11ec:	00800033          	add	zero,zero,s0
    11f0:	0000                	unimp
    11f2:	0300                	addi	s0,sp,384
    11f4:	0121                	addi	sp,sp,8
    11f6:	0305                	addi	t1,t1,1
    11f8:	00090103          	lb	sp,0(s2)
    11fc:	0100                	addi	s0,sp,128
    11fe:	00090003          	lb	zero,0(s2)
    1202:	0100                	addi	s0,sp,128
    1204:	0d05                	addi	s10,s10,1
    1206:	00090003          	lb	zero,0(s2)
    120a:	0100                	addi	s0,sp,128
    120c:	0305                	addi	t1,t1,1
    120e:	00090103          	lb	sp,0(s2)
    1212:	0100                	addi	s0,sp,128
    1214:	00090003          	lb	zero,0(s2)
    1218:	0100                	addi	s0,sp,128
    121a:	00090003          	lb	zero,0(s2)
    121e:	0100                	addi	s0,sp,128
    1220:	00090003          	lb	zero,0(s2)
    1224:	0100                	addi	s0,sp,128
    1226:	00090103          	lb	sp,0(s2)
    122a:	0100                	addi	s0,sp,128
    122c:	00090003          	lb	zero,0(s2)
    1230:	0100                	addi	s0,sp,128
    1232:	00090003          	lb	zero,0(s2)
    1236:	0100                	addi	s0,sp,128
    1238:	00090003          	lb	zero,0(s2)
    123c:	0100                	addi	s0,sp,128
    123e:	00090103          	lb	sp,0(s2)
    1242:	0100                	addi	s0,sp,128
    1244:	00090003          	lb	zero,0(s2)
    1248:	0100                	addi	s0,sp,128
    124a:	00090003          	lb	zero,0(s2)
    124e:	0100                	addi	s0,sp,128
    1250:	00090003          	lb	zero,0(s2)
    1254:	0100                	addi	s0,sp,128
    1256:	00090103          	lb	sp,0(s2)
    125a:	0100                	addi	s0,sp,128
    125c:	00090203          	lb	tp,0(s2)
    1260:	0100                	addi	s0,sp,128
    1262:	00090103          	lb	sp,0(s2)
    1266:	0100                	addi	s0,sp,128
    1268:	00090003          	lb	zero,0(s2)
    126c:	0100                	addi	s0,sp,128
    126e:	00090003          	lb	zero,0(s2)
    1272:	0100                	addi	s0,sp,128
    1274:	00090003          	lb	zero,0(s2)
    1278:	0100                	addi	s0,sp,128
    127a:	00090003          	lb	zero,0(s2)
    127e:	0100                	addi	s0,sp,128
    1280:	0105                	addi	sp,sp,1
    1282:	0306                	slli	t1,t1,0x1
    1284:	0978                	addi	a4,sp,156
    1286:	0000                	unimp
    1288:	0501                	addi	a0,a0,0
    128a:	09080303          	lb	t1,144(a6)
    128e:	000e                	c.slli	zero,0x3
    1290:	0501                	addi	a0,a0,0
    1292:	0301                	addi	t1,t1,0
    1294:	0978                	addi	a4,sp,156
    1296:	0004                	.insn	2, 0x0004
    1298:	0301                	addi	t1,t1,0
    129a:	0900                	addi	s0,sp,144
    129c:	000a                	c.slli	zero,0x2
    129e:	0501                	addi	a0,a0,0
    12a0:	09080303          	lb	t1,144(a6)
    12a4:	0002                	c.slli64	zero
    12a6:	0601                	addi	a2,a2,0
    12a8:	02090003          	lb	zero,32(s2)
    12ac:	0100                	addi	s0,sp,128
    12ae:	00090003          	lb	zero,0(s2)
    12b2:	0100                	addi	s0,sp,128
    12b4:	04090003          	lb	zero,64(s2)
    12b8:	0100                	addi	s0,sp,128
    12ba:	00090003          	lb	zero,0(s2)
    12be:	0100                	addi	s0,sp,128
    12c0:	00090003          	lb	zero,0(s2)
    12c4:	0100                	addi	s0,sp,128
    12c6:	0200                	addi	s0,sp,256
    12c8:	0104                	addi	s1,sp,128
    12ca:	0c090003          	lb	zero,192(s2)
    12ce:	0100                	addi	s0,sp,128
    12d0:	0200                	addi	s0,sp,256
    12d2:	0104                	addi	s1,sp,128
    12d4:	00090003          	lb	zero,0(s2)
    12d8:	0100                	addi	s0,sp,128
    12da:	0200                	addi	s0,sp,256
    12dc:	0104                	addi	s1,sp,128
    12de:	00090003          	lb	zero,0(s2)
    12e2:	0100                	addi	s0,sp,128
    12e4:	0200                	addi	s0,sp,256
    12e6:	0504                	addi	s1,sp,640
    12e8:	00090003          	lb	zero,0(s2)
    12ec:	0100                	addi	s0,sp,128
    12ee:	0200                	addi	s0,sp,256
    12f0:	0704                	addi	s1,sp,896
    12f2:	08090003          	lb	zero,128(s2)
    12f6:	0100                	addi	s0,sp,128
    12f8:	0200                	addi	s0,sp,256
    12fa:	0704                	addi	s1,sp,896
    12fc:	00090003          	lb	zero,0(s2)
    1300:	0100                	addi	s0,sp,128
    1302:	0200                	addi	s0,sp,256
    1304:	0704                	addi	s1,sp,896
    1306:	04090003          	lb	zero,64(s2)
    130a:	0100                	addi	s0,sp,128
    130c:	0200                	addi	s0,sp,256
    130e:	0704                	addi	s1,sp,896
    1310:	00090003          	lb	zero,0(s2)
    1314:	0100                	addi	s0,sp,128
    1316:	0200                	addi	s0,sp,256
    1318:	1b04                	addi	s1,sp,432
    131a:	00090003          	lb	zero,0(s2)
    131e:	0100                	addi	s0,sp,128
    1320:	0200                	addi	s0,sp,256
    1322:	1b04                	addi	s1,sp,432
    1324:	00090003          	lb	zero,0(s2)
    1328:	0100                	addi	s0,sp,128
    132a:	0200                	addi	s0,sp,256
    132c:	0804                	addi	s1,sp,16
    132e:	02090003          	lb	zero,32(s2)
    1332:	0100                	addi	s0,sp,128
    1334:	0200                	addi	s0,sp,256
    1336:	0804                	addi	s1,sp,16
    1338:	00090003          	lb	zero,0(s2)
    133c:	0100                	addi	s0,sp,128
    133e:	00090103          	lb	sp,0(s2)
    1342:	0100                	addi	s0,sp,128
    1344:	00090003          	lb	zero,0(s2)
    1348:	0100                	addi	s0,sp,128
    134a:	00090003          	lb	zero,0(s2)
    134e:	0100                	addi	s0,sp,128
    1350:	00090003          	lb	zero,0(s2)
    1354:	0100                	addi	s0,sp,128
    1356:	00090003          	lb	zero,0(s2)
    135a:	0100                	addi	s0,sp,128
    135c:	0e090003          	lb	zero,224(s2)
    1360:	0100                	addi	s0,sp,128
    1362:	00090003          	lb	zero,0(s2)
    1366:	0100                	addi	s0,sp,128
    1368:	04090003          	lb	zero,64(s2)
    136c:	0100                	addi	s0,sp,128
    136e:	00090003          	lb	zero,0(s2)
    1372:	0100                	addi	s0,sp,128
    1374:	00090003          	lb	zero,0(s2)
    1378:	0100                	addi	s0,sp,128
    137a:	0200                	addi	s0,sp,256
    137c:	0104                	addi	s1,sp,128
    137e:	0a090003          	lb	zero,160(s2)
    1382:	0100                	addi	s0,sp,128
    1384:	0200                	addi	s0,sp,256
    1386:	0104                	addi	s1,sp,128
    1388:	00090003          	lb	zero,0(s2)
    138c:	0100                	addi	s0,sp,128
    138e:	0200                	addi	s0,sp,256
    1390:	0104                	addi	s1,sp,128
    1392:	00090003          	lb	zero,0(s2)
    1396:	0100                	addi	s0,sp,128
    1398:	0200                	addi	s0,sp,256
    139a:	0504                	addi	s1,sp,640
    139c:	00090003          	lb	zero,0(s2)
    13a0:	0100                	addi	s0,sp,128
    13a2:	0200                	addi	s0,sp,256
    13a4:	0704                	addi	s1,sp,896
    13a6:	08090003          	lb	zero,128(s2)
    13aa:	0100                	addi	s0,sp,128
    13ac:	0200                	addi	s0,sp,256
    13ae:	0704                	addi	s1,sp,896
    13b0:	00090003          	lb	zero,0(s2)
    13b4:	0100                	addi	s0,sp,128
    13b6:	0200                	addi	s0,sp,256
    13b8:	0704                	addi	s1,sp,896
    13ba:	04090003          	lb	zero,64(s2)
    13be:	0100                	addi	s0,sp,128
    13c0:	0200                	addi	s0,sp,256
    13c2:	0704                	addi	s1,sp,896
    13c4:	00090003          	lb	zero,0(s2)
    13c8:	0100                	addi	s0,sp,128
    13ca:	0200                	addi	s0,sp,256
    13cc:	1b04                	addi	s1,sp,432
    13ce:	00090003          	lb	zero,0(s2)
    13d2:	0100                	addi	s0,sp,128
    13d4:	0200                	addi	s0,sp,256
    13d6:	1b04                	addi	s1,sp,432
    13d8:	00090003          	lb	zero,0(s2)
    13dc:	0100                	addi	s0,sp,128
    13de:	0200                	addi	s0,sp,256
    13e0:	0804                	addi	s1,sp,16
    13e2:	02090003          	lb	zero,32(s2)
    13e6:	0100                	addi	s0,sp,128
    13e8:	0200                	addi	s0,sp,256
    13ea:	0804                	addi	s1,sp,16
    13ec:	00090003          	lb	zero,0(s2)
    13f0:	0100                	addi	s0,sp,128
    13f2:	00090103          	lb	sp,0(s2)
    13f6:	0100                	addi	s0,sp,128
    13f8:	00090003          	lb	zero,0(s2)
    13fc:	0100                	addi	s0,sp,128
    13fe:	00090003          	lb	zero,0(s2)
    1402:	0100                	addi	s0,sp,128
    1404:	0e090003          	lb	zero,224(s2)
    1408:	0100                	addi	s0,sp,128
    140a:	0200                	addi	s0,sp,256
    140c:	0204                	addi	s1,sp,256
    140e:	16090003          	lb	zero,352(s2)
    1412:	0100                	addi	s0,sp,128
    1414:	0200                	addi	s0,sp,256
    1416:	0204                	addi	s1,sp,256
    1418:	00090003          	lb	zero,0(s2)
    141c:	0100                	addi	s0,sp,128
    141e:	0200                	addi	s0,sp,256
    1420:	0204                	addi	s1,sp,256
    1422:	00090003          	lb	zero,0(s2)
    1426:	0100                	addi	s0,sp,128
    1428:	0200                	addi	s0,sp,256
    142a:	0204                	addi	s1,sp,256
    142c:	00090003          	lb	zero,0(s2)
    1430:	0100                	addi	s0,sp,128
    1432:	0200                	addi	s0,sp,256
    1434:	0204                	addi	s1,sp,256
    1436:	04090003          	lb	zero,64(s2)
    143a:	0100                	addi	s0,sp,128
    143c:	0200                	addi	s0,sp,256
    143e:	0204                	addi	s1,sp,256
    1440:	00090003          	lb	zero,0(s2)
    1444:	0100                	addi	s0,sp,128
    1446:	0200                	addi	s0,sp,256
    1448:	0204                	addi	s1,sp,256
    144a:	12090003          	lb	zero,288(s2)
    144e:	0100                	addi	s0,sp,128
    1450:	0200                	addi	s0,sp,256
    1452:	0204                	addi	s1,sp,256
    1454:	00090003          	lb	zero,0(s2)
    1458:	0100                	addi	s0,sp,128
    145a:	0200                	addi	s0,sp,256
    145c:	0904                	addi	s1,sp,144
    145e:	04090003          	lb	zero,64(s2)
    1462:	0100                	addi	s0,sp,128
    1464:	0306                	slli	t1,t1,0x1
    1466:	0900                	addi	s0,sp,144
    1468:	0008                	.insn	2, 0x0008
    146a:	0001                	nop
    146c:	0402                	c.slli64	s0
    146e:	0612                	slli	a2,a2,0x4
    1470:	02090003          	lb	zero,32(s2)
    1474:	0100                	addi	s0,sp,128
    1476:	00090103          	lb	sp,0(s2)
    147a:	0100                	addi	s0,sp,128
    147c:	00090003          	lb	zero,0(s2)
    1480:	0100                	addi	s0,sp,128
    1482:	00090003          	lb	zero,0(s2)
    1486:	0100                	addi	s0,sp,128
    1488:	0200                	addi	s0,sp,256
    148a:	0e04                	addi	s1,sp,784
    148c:	0306                	slli	t1,t1,0x1
    148e:	097f 0000 0001 0402 	.insn	10, 0x0602040200010000097f
    1496:	0602 
    1498:	04097e03          	.insn	4, 0x04097e03
    149c:	0100                	addi	s0,sp,128
    149e:	0200                	addi	s0,sp,256
    14a0:	0a04                	addi	s1,sp,272
    14a2:	02090003          	lb	zero,32(s2)
    14a6:	0100                	addi	s0,sp,128
    14a8:	0200                	addi	s0,sp,256
    14aa:	0d04                	addi	s1,sp,656
    14ac:	00090003          	lb	zero,0(s2)
    14b0:	0100                	addi	s0,sp,128
    14b2:	0200                	addi	s0,sp,256
    14b4:	0d04                	addi	s1,sp,656
    14b6:	00090003          	lb	zero,0(s2)
    14ba:	0100                	addi	s0,sp,128
    14bc:	0200                	addi	s0,sp,256
    14be:	0d04                	addi	s1,sp,656
    14c0:	00090003          	lb	zero,0(s2)
    14c4:	0100                	addi	s0,sp,128
    14c6:	0200                	addi	s0,sp,256
    14c8:	0d04                	addi	s1,sp,656
    14ca:	00090003          	lb	zero,0(s2)
    14ce:	0100                	addi	s0,sp,128
    14d0:	0200                	addi	s0,sp,256
    14d2:	1004                	addi	s1,sp,32
    14d4:	00090003          	lb	zero,0(s2)
    14d8:	0100                	addi	s0,sp,128
    14da:	0200                	addi	s0,sp,256
    14dc:	1204                	addi	s1,sp,288
    14de:	00090003          	lb	zero,0(s2)
    14e2:	0100                	addi	s0,sp,128
    14e4:	0200                	addi	s0,sp,256
    14e6:	1504                	addi	s1,sp,672
    14e8:	0a090003          	lb	zero,160(s2)
    14ec:	0100                	addi	s0,sp,128
    14ee:	0200                	addi	s0,sp,256
    14f0:	1504                	addi	s1,sp,672
    14f2:	00090003          	lb	zero,0(s2)
    14f6:	0100                	addi	s0,sp,128
    14f8:	0200                	addi	s0,sp,256
    14fa:	1504                	addi	s1,sp,672
    14fc:	00090003          	lb	zero,0(s2)
    1500:	0100                	addi	s0,sp,128
    1502:	0200                	addi	s0,sp,256
    1504:	1504                	addi	s1,sp,672
    1506:	00090003          	lb	zero,0(s2)
    150a:	0100                	addi	s0,sp,128
    150c:	0200                	addi	s0,sp,256
    150e:	1904                	addi	s1,sp,176
    1510:	00090003          	lb	zero,0(s2)
    1514:	0100                	addi	s0,sp,128
    1516:	0200                	addi	s0,sp,256
    1518:	1b04                	addi	s1,sp,432
    151a:	0306                	slli	t1,t1,0x1
    151c:	0900                	addi	s0,sp,144
    151e:	0000                	unimp
    1520:	0001                	nop
    1522:	0402                	c.slli64	s0
    1524:	0319                	addi	t1,t1,6
    1526:	0900                	addi	s0,sp,144
    1528:	0004                	.insn	2, 0x0004
    152a:	0001                	nop
    152c:	0402                	c.slli64	s0
    152e:	0003061b          	sext.w	a2,t1
    1532:	0809                	addi	a6,a6,2
    1534:	0100                	addi	s0,sp,128
    1536:	0200                	addi	s0,sp,256
    1538:	1b04                	addi	s1,sp,432
    153a:	00090003          	lb	zero,0(s2)
    153e:	0100                	addi	s0,sp,128
    1540:	0200                	addi	s0,sp,256
    1542:	0304                	addi	s1,sp,384
    1544:	06090003          	lb	zero,96(s2)
    1548:	0100                	addi	s0,sp,128
    154a:	0306                	slli	t1,t1,0x1
    154c:	0900                	addi	s0,sp,144
    154e:	0000                	unimp
    1550:	0001                	nop
    1552:	0402                	c.slli64	s0
    1554:	031d                	addi	t1,t1,7
    1556:	0900                	addi	s0,sp,144
    1558:	0004                	.insn	2, 0x0004
    155a:	0001                	nop
    155c:	0402                	c.slli64	s0
    155e:	09000303          	lb	t1,144(zero) # 90 <_tbss_end+0x90>
    1562:	0002                	c.slli64	zero
    1564:	0001                	nop
    1566:	0402                	c.slli64	s0
    1568:	031e                	slli	t1,t1,0x7
    156a:	0900                	addi	s0,sp,144
    156c:	0002                	c.slli64	zero
    156e:	0301                	addi	t1,t1,0
    1570:	0900                	addi	s0,sp,144
    1572:	0004                	.insn	2, 0x0004
    1574:	0001                	nop
    1576:	0402                	c.slli64	s0
    1578:	0309                	addi	t1,t1,2
    157a:	0900                	addi	s0,sp,144
    157c:	0002                	c.slli64	zero
    157e:	0001                	nop
    1580:	0402                	c.slli64	s0
    1582:	0602                	c.slli64	a2
    1584:	04090103          	lb	sp,64(s2)
    1588:	0100                	addi	s0,sp,128
    158a:	0200                	addi	s0,sp,256
    158c:	0a04                	addi	s1,sp,272
    158e:	02090003          	lb	zero,32(s2)
    1592:	0100                	addi	s0,sp,128
    1594:	0200                	addi	s0,sp,256
    1596:	0d04                	addi	s1,sp,656
    1598:	00090003          	lb	zero,0(s2)
    159c:	0100                	addi	s0,sp,128
    159e:	0200                	addi	s0,sp,256
    15a0:	0d04                	addi	s1,sp,656
    15a2:	00090003          	lb	zero,0(s2)
    15a6:	0100                	addi	s0,sp,128
    15a8:	0200                	addi	s0,sp,256
    15aa:	0d04                	addi	s1,sp,656
    15ac:	00090003          	lb	zero,0(s2)
    15b0:	0100                	addi	s0,sp,128
    15b2:	0200                	addi	s0,sp,256
    15b4:	0d04                	addi	s1,sp,656
    15b6:	00090003          	lb	zero,0(s2)
    15ba:	0100                	addi	s0,sp,128
    15bc:	0200                	addi	s0,sp,256
    15be:	1004                	addi	s1,sp,32
    15c0:	00090003          	lb	zero,0(s2)
    15c4:	0100                	addi	s0,sp,128
    15c6:	0200                	addi	s0,sp,256
    15c8:	1204                	addi	s1,sp,288
    15ca:	00090003          	lb	zero,0(s2)
    15ce:	0100                	addi	s0,sp,128
    15d0:	0200                	addi	s0,sp,256
    15d2:	1504                	addi	s1,sp,672
    15d4:	0a090003          	lb	zero,160(s2)
    15d8:	0100                	addi	s0,sp,128
    15da:	0200                	addi	s0,sp,256
    15dc:	1504                	addi	s1,sp,672
    15de:	00090003          	lb	zero,0(s2)
    15e2:	0100                	addi	s0,sp,128
    15e4:	0200                	addi	s0,sp,256
    15e6:	1504                	addi	s1,sp,672
    15e8:	00090003          	lb	zero,0(s2)
    15ec:	0100                	addi	s0,sp,128
    15ee:	0200                	addi	s0,sp,256
    15f0:	1504                	addi	s1,sp,672
    15f2:	00090003          	lb	zero,0(s2)
    15f6:	0100                	addi	s0,sp,128
    15f8:	0200                	addi	s0,sp,256
    15fa:	1904                	addi	s1,sp,176
    15fc:	00090003          	lb	zero,0(s2)
    1600:	0100                	addi	s0,sp,128
    1602:	0200                	addi	s0,sp,256
    1604:	1b04                	addi	s1,sp,432
    1606:	0306                	slli	t1,t1,0x1
    1608:	0900                	addi	s0,sp,144
    160a:	0000                	unimp
    160c:	0001                	nop
    160e:	0402                	c.slli64	s0
    1610:	0319                	addi	t1,t1,6
    1612:	0900                	addi	s0,sp,144
    1614:	0004                	.insn	2, 0x0004
    1616:	0001                	nop
    1618:	0402                	c.slli64	s0
    161a:	0003061b          	sext.w	a2,t1
    161e:	0809                	addi	a6,a6,2
    1620:	0100                	addi	s0,sp,128
    1622:	0200                	addi	s0,sp,256
    1624:	1b04                	addi	s1,sp,432
    1626:	00090003          	lb	zero,0(s2)
    162a:	0100                	addi	s0,sp,128
    162c:	0200                	addi	s0,sp,256
    162e:	0304                	addi	s1,sp,384
    1630:	04090003          	lb	zero,64(s2)
    1634:	0100                	addi	s0,sp,128
    1636:	0306                	slli	t1,t1,0x1
    1638:	0900                	addi	s0,sp,144
    163a:	0000                	unimp
    163c:	0001                	nop
    163e:	0402                	c.slli64	s0
    1640:	031d                	addi	t1,t1,7
    1642:	0900                	addi	s0,sp,144
    1644:	0004                	.insn	2, 0x0004
    1646:	0001                	nop
    1648:	0402                	c.slli64	s0
    164a:	09000303          	lb	t1,144(zero) # 90 <_tbss_end+0x90>
    164e:	0002                	c.slli64	zero
    1650:	0001                	nop
    1652:	0402                	c.slli64	s0
    1654:	031e                	slli	t1,t1,0x7
    1656:	0900                	addi	s0,sp,144
    1658:	0002                	c.slli64	zero
    165a:	0301                	addi	t1,t1,0
    165c:	0900                	addi	s0,sp,144
    165e:	0004                	.insn	2, 0x0004
    1660:	0001                	nop
    1662:	0402                	c.slli64	s0
    1664:	0309                	addi	t1,t1,2
    1666:	0900                	addi	s0,sp,144
    1668:	0002                	c.slli64	zero
    166a:	0301                	addi	t1,t1,0
    166c:	0901                	addi	s2,s2,0
    166e:	000a                	c.slli	zero,0x2
    1670:	0301                	addi	t1,t1,0
    1672:	097f 0012 0001 0402 	.insn	10, 0x0604040200010012097f
    167a:	0604 
    167c:	02090103          	lb	sp,32(s2)
    1680:	0100                	addi	s0,sp,128
    1682:	0200                	addi	s0,sp,256
    1684:	1204                	addi	s1,sp,288
    1686:	00090003          	lb	zero,0(s2)
    168a:	0100                	addi	s0,sp,128
    168c:	00090103          	lb	sp,0(s2)
    1690:	0100                	addi	s0,sp,128
    1692:	00090003          	lb	zero,0(s2)
    1696:	0100                	addi	s0,sp,128
    1698:	00090003          	lb	zero,0(s2)
    169c:	0100                	addi	s0,sp,128
    169e:	0200                	addi	s0,sp,256
    16a0:	0204                	addi	s1,sp,256
    16a2:	12090003          	lb	zero,288(s2)
    16a6:	0100                	addi	s0,sp,128
    16a8:	0200                	addi	s0,sp,256
    16aa:	0204                	addi	s1,sp,256
    16ac:	04090003          	lb	zero,64(s2)
    16b0:	0100                	addi	s0,sp,128
    16b2:	0200                	addi	s0,sp,256
    16b4:	0604                	addi	s1,sp,768
    16b6:	04090003          	lb	zero,64(s2)
    16ba:	0100                	addi	s0,sp,128
    16bc:	0200                	addi	s0,sp,256
    16be:	0604                	addi	s1,sp,768
    16c0:	00090003          	lb	zero,0(s2)
    16c4:	0100                	addi	s0,sp,128
    16c6:	0200                	addi	s0,sp,256
    16c8:	0804                	addi	s1,sp,16
    16ca:	06090003          	lb	zero,96(s2)
    16ce:	0100                	addi	s0,sp,128
    16d0:	0200                	addi	s0,sp,256
    16d2:	0804                	addi	s1,sp,16
    16d4:	00090003          	lb	zero,0(s2)
    16d8:	0100                	addi	s0,sp,128
    16da:	00090003          	lb	zero,0(s2)
    16de:	0100                	addi	s0,sp,128
    16e0:	00090003          	lb	zero,0(s2)
    16e4:	0100                	addi	s0,sp,128
    16e6:	0200                	addi	s0,sp,256
    16e8:	0a04                	addi	s1,sp,272
    16ea:	0a090003          	lb	zero,160(s2)
    16ee:	0100                	addi	s0,sp,128
    16f0:	0200                	addi	s0,sp,256
    16f2:	0904                	addi	s1,sp,144
    16f4:	02090003          	lb	zero,32(s2)
    16f8:	0100                	addi	s0,sp,128
    16fa:	0200                	addi	s0,sp,256
    16fc:	0904                	addi	s1,sp,144
    16fe:	00090003          	lb	zero,0(s2)
    1702:	0100                	addi	s0,sp,128
    1704:	0200                	addi	s0,sp,256
    1706:	1804                	addi	s1,sp,48
    1708:	08090003          	lb	zero,128(s2)
    170c:	0100                	addi	s0,sp,128
    170e:	0200                	addi	s0,sp,256
    1710:	1804                	addi	s1,sp,48
    1712:	08090003          	lb	zero,128(s2)
    1716:	0100                	addi	s0,sp,128
    1718:	0200                	addi	s0,sp,256
    171a:	1a04                	addi	s1,sp,304
    171c:	04090003          	lb	zero,64(s2)
    1720:	0100                	addi	s0,sp,128
    1722:	0200                	addi	s0,sp,256
    1724:	1a04                	addi	s1,sp,304
    1726:	00090003          	lb	zero,0(s2)
    172a:	0100                	addi	s0,sp,128
    172c:	0200                	addi	s0,sp,256
    172e:	6f04                	ld	s1,24(a4)
    1730:	0c090003          	lb	zero,192(s2)
    1734:	0100                	addi	s0,sp,128
    1736:	0200                	addi	s0,sp,256
    1738:	6f04                	ld	s1,24(a4)
    173a:	00090003          	lb	zero,0(s2)
    173e:	0100                	addi	s0,sp,128
    1740:	0200                	addi	s0,sp,256
    1742:	6f04                	ld	s1,24(a4)
    1744:	00090003          	lb	zero,0(s2)
    1748:	0100                	addi	s0,sp,128
    174a:	0200                	addi	s0,sp,256
    174c:	6f04                	ld	s1,24(a4)
    174e:	00090003          	lb	zero,0(s2)
    1752:	0100                	addi	s0,sp,128
    1754:	0200                	addi	s0,sp,256
    1756:	6f04                	ld	s1,24(a4)
    1758:	00090003          	lb	zero,0(s2)
    175c:	0100                	addi	s0,sp,128
    175e:	0200                	addi	s0,sp,256
    1760:	6f04                	ld	s1,24(a4)
    1762:	00090003          	lb	zero,0(s2)
    1766:	0100                	addi	s0,sp,128
    1768:	0105                	addi	sp,sp,1
    176a:	0306                	slli	t1,t1,0x1
    176c:	0904                	addi	s1,sp,144
    176e:	0000                	unimp
    1770:	0501                	addi	a0,a0,0
    1772:	04020003          	lb	zero,64(tp) # 40 <_tbss_end+0x40>
    1776:	097c036f          	jal	t1,c200c <_tbss_end+0xc200c>
    177a:	0004                	.insn	2, 0x0004
    177c:	0501                	addi	a0,a0,0
    177e:	0301                	addi	t1,t1,0
    1780:	0904                	addi	s1,sp,144
    1782:	0010                	.insn	2, 0x0010
    1784:	0501                	addi	a0,a0,0
    1786:	04020003          	lb	zero,64(tp) # 40 <_tbss_end+0x40>
    178a:	097c036f          	jal	t1,c2020 <_tbss_end+0xc2020>
    178e:	0008                	.insn	2, 0x0008
    1790:	0001                	nop
    1792:	0402                	c.slli64	s0
    1794:	0003066f          	jal	a2,31794 <_tbss_end+0x31794>
    1798:	0409                	addi	s0,s0,2
    179a:	0100                	addi	s0,sp,128
    179c:	0200                	addi	s0,sp,256
    179e:	6f04                	ld	s1,24(a4)
    17a0:	00090003          	lb	zero,0(s2)
    17a4:	0100                	addi	s0,sp,128
    17a6:	0200                	addi	s0,sp,256
    17a8:	6f04                	ld	s1,24(a4)
    17aa:	00090003          	lb	zero,0(s2)
    17ae:	0100                	addi	s0,sp,128
    17b0:	00090103          	lb	sp,0(s2)
    17b4:	0100                	addi	s0,sp,128
    17b6:	00090003          	lb	zero,0(s2)
    17ba:	0100                	addi	s0,sp,128
    17bc:	00090003          	lb	zero,0(s2)
    17c0:	0100                	addi	s0,sp,128
    17c2:	00090203          	lb	tp,0(s2)
    17c6:	0100                	addi	s0,sp,128
    17c8:	0105                	addi	sp,sp,1
    17ca:	0306                	slli	t1,t1,0x1
    17cc:	0901                	addi	s2,s2,0
    17ce:	0000                	unimp
    17d0:	0501                	addi	a0,a0,0
    17d2:	097b0303          	lb	t1,151(s6)
    17d6:	0006                	c.slli	zero,0x1
    17d8:	0001                	nop
    17da:	0402                	c.slli64	s0
    17dc:	01030607          	.insn	4, 0x01030607
    17e0:	1209                	addi	tp,tp,-30 # ffffffffffffffe2 <__stack_pointer$+0xffffffff780003e2>
    17e2:	0100                	addi	s0,sp,128
    17e4:	0200                	addi	s0,sp,256
    17e6:	0704                	addi	s1,sp,896
    17e8:	00090003          	lb	zero,0(s2)
    17ec:	0100                	addi	s0,sp,128
    17ee:	0200                	addi	s0,sp,256
    17f0:	3b04                	.insn	2, 0x3b04
    17f2:	00090003          	lb	zero,0(s2)
    17f6:	0100                	addi	s0,sp,128
    17f8:	0200                	addi	s0,sp,256
    17fa:	3b04                	.insn	2, 0x3b04
    17fc:	04090003          	lb	zero,64(s2)
    1800:	0100                	addi	s0,sp,128
    1802:	0200                	addi	s0,sp,256
    1804:	3c04                	.insn	2, 0x3c04
    1806:	06090003          	lb	zero,96(s2)
    180a:	0100                	addi	s0,sp,128
    180c:	0200                	addi	s0,sp,256
    180e:	4104                	lw	s1,0(a0)
    1810:	0306                	slli	t1,t1,0x1
    1812:	0900                	addi	s0,sp,144
    1814:	0000                	unimp
    1816:	0001                	nop
    1818:	0402                	c.slli64	s0
    181a:	033c                	addi	a5,sp,392
    181c:	0900                	addi	s0,sp,144
    181e:	000e                	c.slli	zero,0x3
    1820:	0001                	nop
    1822:	0402                	c.slli64	s0
    1824:	09000343          	.insn	4, 0x09000343
    1828:	0004                	.insn	2, 0x0004
    182a:	0001                	nop
    182c:	0402                	c.slli64	s0
    182e:	00030643          	.insn	4, 0x00030643
    1832:	0209                	addi	tp,tp,2 # 2 <_tbss_end+0x2>
    1834:	0100                	addi	s0,sp,128
    1836:	0200                	addi	s0,sp,256
    1838:	4304                	lw	s1,0(a4)
    183a:	00090003          	lb	zero,0(s2)
    183e:	0100                	addi	s0,sp,128
    1840:	0200                	addi	s0,sp,256
    1842:	4404                	lw	s1,8(s0)
    1844:	06090003          	lb	zero,96(s2)
    1848:	0100                	addi	s0,sp,128
    184a:	0200                	addi	s0,sp,256
    184c:	4404                	lw	s1,8(s0)
    184e:	00090003          	lb	zero,0(s2)
    1852:	0100                	addi	s0,sp,128
    1854:	00090003          	lb	zero,0(s2)
    1858:	0100                	addi	s0,sp,128
    185a:	00090003          	lb	zero,0(s2)
    185e:	0100                	addi	s0,sp,128
    1860:	0200                	addi	s0,sp,256
    1862:	4604                	lw	s1,8(a2)
    1864:	0a090003          	lb	zero,160(s2)
    1868:	0100                	addi	s0,sp,128
    186a:	0200                	addi	s0,sp,256
    186c:	4504                	lw	s1,8(a0)
    186e:	02090003          	lb	zero,32(s2)
    1872:	0100                	addi	s0,sp,128
    1874:	0200                	addi	s0,sp,256
    1876:	4504                	lw	s1,8(a0)
    1878:	00090003          	lb	zero,0(s2)
    187c:	0100                	addi	s0,sp,128
    187e:	0200                	addi	s0,sp,256
    1880:	5504                	lw	s1,40(a0)
    1882:	0306                	slli	t1,t1,0x1
    1884:	0900                	addi	s0,sp,144
    1886:	0004                	.insn	2, 0x0004
    1888:	0001                	nop
    188a:	0402                	c.slli64	s0
    188c:	0345                	addi	t1,t1,17
    188e:	0900                	addi	s0,sp,144
    1890:	0002                	c.slli64	zero
    1892:	0001                	nop
    1894:	0402                	c.slli64	s0
    1896:	0354                	addi	a3,sp,388
    1898:	0900                	addi	s0,sp,144
    189a:	0004                	.insn	2, 0x0004
    189c:	0001                	nop
    189e:	0402                	c.slli64	s0
    18a0:	0304                	addi	s1,sp,384
    18a2:	0900                	addi	s0,sp,144
    18a4:	0006                	c.slli	zero,0x1
    18a6:	0301                	addi	t1,t1,0
    18a8:	0900                	addi	s0,sp,144
    18aa:	0008                	.insn	2, 0x0008
    18ac:	0001                	nop
    18ae:	0402                	c.slli64	s0
    18b0:	033d                	addi	t1,t1,15
    18b2:	0900                	addi	s0,sp,144
    18b4:	000e                	c.slli	zero,0x3
    18b6:	0901                	addi	s2,s2,0
    18b8:	0004                	.insn	2, 0x0004
    18ba:	0100                	addi	s0,sp,128
    18bc:	5301                	li	t1,-32
    18be:	000c                	.insn	2, 0x000c
    18c0:	0500                	addi	s0,sp,640
    18c2:	0800                	addi	s0,sp,16
    18c4:	3300                	.insn	2, 0x3300
    18c6:	0000                	unimp
    18c8:	0100                	addi	s0,sp,128
    18ca:	0101                	addi	sp,sp,0
    18cc:	000d0efb          	.insn	4, 0x000d0efb
    18d0:	0101                	addi	sp,sp,0
    18d2:	0101                	addi	sp,sp,0
    18d4:	0000                	unimp
    18d6:	0100                	addi	s0,sp,128
    18d8:	0000                	unimp
    18da:	0101                	addi	sp,sp,0
    18dc:	1f01                	addi	t5,t5,-32
    18de:	2d02                	.insn	2, 0x2d02
    18e0:	0000                	unimp
    18e2:	9800                	.insn	2, 0x9800
    18e4:	0000                	unimp
    18e6:	0200                	addi	s0,sp,256
    18e8:	1f01                	addi	t5,t5,-32
    18ea:	0f02                	c.slli64	t5
    18ec:	00018703          	lb	a4,0(gp) # 800054a0 <__global_pointer$>
    18f0:	0100                	addi	s0,sp,128
    18f2:	00000187          	.insn	4, 0x0187
    18f6:	0101                	addi	sp,sp,0
    18f8:	0001                	nop
    18fa:	0100                	addi	s0,sp,128
    18fc:	0105                	addi	sp,sp,1
    18fe:	0900                	addi	s0,sp,144
    1900:	4c02                	lw	s8,0(sp)
    1902:	0035                	c.nop	13
    1904:	0080                	addi	s0,sp,64
    1906:	0000                	unimp
    1908:	0300                	addi	s0,sp,384
    190a:	0121                	addi	sp,sp,8
    190c:	0305                	addi	t1,t1,1
    190e:	00090103          	lb	sp,0(s2)
    1912:	0100                	addi	s0,sp,128
    1914:	00090003          	lb	zero,0(s2)
    1918:	0100                	addi	s0,sp,128
    191a:	0d05                	addi	s10,s10,1
    191c:	00090003          	lb	zero,0(s2)
    1920:	0100                	addi	s0,sp,128
    1922:	0305                	addi	t1,t1,1
    1924:	00090103          	lb	sp,0(s2)
    1928:	0100                	addi	s0,sp,128
    192a:	00090003          	lb	zero,0(s2)
    192e:	0100                	addi	s0,sp,128
    1930:	00090003          	lb	zero,0(s2)
    1934:	0100                	addi	s0,sp,128
    1936:	00090003          	lb	zero,0(s2)
    193a:	0100                	addi	s0,sp,128
    193c:	00090103          	lb	sp,0(s2)
    1940:	0100                	addi	s0,sp,128
    1942:	00090003          	lb	zero,0(s2)
    1946:	0100                	addi	s0,sp,128
    1948:	00090003          	lb	zero,0(s2)
    194c:	0100                	addi	s0,sp,128
    194e:	00090003          	lb	zero,0(s2)
    1952:	0100                	addi	s0,sp,128
    1954:	00090103          	lb	sp,0(s2)
    1958:	0100                	addi	s0,sp,128
    195a:	00090003          	lb	zero,0(s2)
    195e:	0100                	addi	s0,sp,128
    1960:	00090003          	lb	zero,0(s2)
    1964:	0100                	addi	s0,sp,128
    1966:	00090003          	lb	zero,0(s2)
    196a:	0100                	addi	s0,sp,128
    196c:	00090103          	lb	sp,0(s2)
    1970:	0100                	addi	s0,sp,128
    1972:	00090203          	lb	tp,0(s2)
    1976:	0100                	addi	s0,sp,128
    1978:	00090103          	lb	sp,0(s2)
    197c:	0100                	addi	s0,sp,128
    197e:	00090003          	lb	zero,0(s2)
    1982:	0100                	addi	s0,sp,128
    1984:	00090003          	lb	zero,0(s2)
    1988:	0100                	addi	s0,sp,128
    198a:	00090003          	lb	zero,0(s2)
    198e:	0100                	addi	s0,sp,128
    1990:	00090003          	lb	zero,0(s2)
    1994:	0100                	addi	s0,sp,128
    1996:	0a090003          	lb	zero,160(s2)
    199a:	0100                	addi	s0,sp,128
    199c:	0200                	addi	s0,sp,256
    199e:	0204                	addi	s1,sp,256
    19a0:	0306                	slli	t1,t1,0x1
    19a2:	0900                	addi	s0,sp,144
    19a4:	0000                	unimp
    19a6:	0301                	addi	t1,t1,0
    19a8:	0901                	addi	s2,s2,0
    19aa:	0004                	.insn	2, 0x0004
    19ac:	0501                	addi	a0,a0,0
    19ae:	0301                	addi	t1,t1,0
    19b0:	00020977          	.insn	4, 0x00020977
    19b4:	0501                	addi	a0,a0,0
    19b6:	04020003          	lb	zero,64(tp) # 40 <_tbss_end+0x40>
    19ba:	0302                	c.slli64	t1
    19bc:	0908                	addi	a0,sp,144
    19be:	000a                	c.slli	zero,0x2
    19c0:	0001                	nop
    19c2:	0402                	c.slli64	s0
    19c4:	0302                	c.slli64	t1
    19c6:	0901                	addi	s2,s2,0
    19c8:	0004                	.insn	2, 0x0004
    19ca:	0501                	addi	a0,a0,0
    19cc:	0301                	addi	t1,t1,0
    19ce:	00040977          	.insn	4, 0x00040977
    19d2:	0501                	addi	a0,a0,0
    19d4:	04020003          	lb	zero,64(tp) # 40 <_tbss_end+0x40>
    19d8:	0302                	c.slli64	t1
    19da:	0909                	addi	s2,s2,2
    19dc:	0008                	.insn	2, 0x0008
    19de:	0501                	addi	a0,a0,0
    19e0:	0301                	addi	t1,t1,0
    19e2:	00040977          	.insn	4, 0x00040977
    19e6:	0501                	addi	a0,a0,0
    19e8:	090a0303          	lb	t1,144(s4)
    19ec:	0008                	.insn	2, 0x0008
    19ee:	0301                	addi	t1,t1,0
    19f0:	097e                	slli	s2,s2,0x1f
    19f2:	0004                	.insn	2, 0x0004
    19f4:	0601                	addi	a2,a2,0
    19f6:	02090003          	lb	zero,32(s2)
    19fa:	0100                	addi	s0,sp,128
    19fc:	04090003          	lb	zero,64(s2)
    1a00:	0100                	addi	s0,sp,128
    1a02:	00090003          	lb	zero,0(s2)
    1a06:	0100                	addi	s0,sp,128
    1a08:	00090003          	lb	zero,0(s2)
    1a0c:	0100                	addi	s0,sp,128
    1a0e:	0200                	addi	s0,sp,256
    1a10:	0204                	addi	s1,sp,256
    1a12:	00090003          	lb	zero,0(s2)
    1a16:	0100                	addi	s0,sp,128
    1a18:	0200                	addi	s0,sp,256
    1a1a:	0404                	addi	s1,sp,512
    1a1c:	00090003          	lb	zero,0(s2)
    1a20:	0100                	addi	s0,sp,128
    1a22:	0200                	addi	s0,sp,256
    1a24:	0404                	addi	s1,sp,512
    1a26:	00090003          	lb	zero,0(s2)
    1a2a:	0100                	addi	s0,sp,128
    1a2c:	00090103          	lb	sp,0(s2)
    1a30:	0100                	addi	s0,sp,128
    1a32:	00090003          	lb	zero,0(s2)
    1a36:	0100                	addi	s0,sp,128
    1a38:	00090003          	lb	zero,0(s2)
    1a3c:	0100                	addi	s0,sp,128
    1a3e:	00090003          	lb	zero,0(s2)
    1a42:	0100                	addi	s0,sp,128
    1a44:	00090003          	lb	zero,0(s2)
    1a48:	0100                	addi	s0,sp,128
    1a4a:	00090003          	lb	zero,0(s2)
    1a4e:	0100                	addi	s0,sp,128
    1a50:	00090003          	lb	zero,0(s2)
    1a54:	0100                	addi	s0,sp,128
    1a56:	04090003          	lb	zero,64(s2)
    1a5a:	0100                	addi	s0,sp,128
    1a5c:	00090003          	lb	zero,0(s2)
    1a60:	0100                	addi	s0,sp,128
    1a62:	00090003          	lb	zero,0(s2)
    1a66:	0100                	addi	s0,sp,128
    1a68:	0200                	addi	s0,sp,256
    1a6a:	0204                	addi	s1,sp,256
    1a6c:	00090003          	lb	zero,0(s2)
    1a70:	0100                	addi	s0,sp,128
    1a72:	0200                	addi	s0,sp,256
    1a74:	0404                	addi	s1,sp,512
    1a76:	00090003          	lb	zero,0(s2)
    1a7a:	0100                	addi	s0,sp,128
    1a7c:	0200                	addi	s0,sp,256
    1a7e:	0404                	addi	s1,sp,512
    1a80:	00090003          	lb	zero,0(s2)
    1a84:	0100                	addi	s0,sp,128
    1a86:	00090103          	lb	sp,0(s2)
    1a8a:	0100                	addi	s0,sp,128
    1a8c:	00090003          	lb	zero,0(s2)
    1a90:	0100                	addi	s0,sp,128
    1a92:	0200                	addi	s0,sp,256
    1a94:	0204                	addi	s1,sp,256
    1a96:	0306                	slli	t1,t1,0x1
    1a98:	0900                	addi	s0,sp,144
    1a9a:	0004                	.insn	2, 0x0004
    1a9c:	0001                	nop
    1a9e:	0402                	c.slli64	s0
    1aa0:	00030603          	lb	a2,0(t1)
    1aa4:	0209                	addi	tp,tp,2 # 2 <_tbss_end+0x2>
    1aa6:	0100                	addi	s0,sp,128
    1aa8:	0200                	addi	s0,sp,256
    1aaa:	0504                	addi	s1,sp,640
    1aac:	04090003          	lb	zero,64(s2)
    1ab0:	0100                	addi	s0,sp,128
    1ab2:	0200                	addi	s0,sp,256
    1ab4:	0504                	addi	s1,sp,640
    1ab6:	00090003          	lb	zero,0(s2)
    1aba:	0100                	addi	s0,sp,128
    1abc:	0200                	addi	s0,sp,256
    1abe:	0504                	addi	s1,sp,640
    1ac0:	00090003          	lb	zero,0(s2)
    1ac4:	0100                	addi	s0,sp,128
    1ac6:	0200                	addi	s0,sp,256
    1ac8:	0804                	addi	s1,sp,16
    1aca:	00090003          	lb	zero,0(s2)
    1ace:	0100                	addi	s0,sp,128
    1ad0:	0200                	addi	s0,sp,256
    1ad2:	0804                	addi	s1,sp,16
    1ad4:	00090003          	lb	zero,0(s2)
    1ad8:	0100                	addi	s0,sp,128
    1ada:	0200                	addi	s0,sp,256
    1adc:	0804                	addi	s1,sp,16
    1ade:	00090003          	lb	zero,0(s2)
    1ae2:	0100                	addi	s0,sp,128
    1ae4:	0200                	addi	s0,sp,256
    1ae6:	0b04                	addi	s1,sp,400
    1ae8:	00090003          	lb	zero,0(s2)
    1aec:	0100                	addi	s0,sp,128
    1aee:	0200                	addi	s0,sp,256
    1af0:	0b04                	addi	s1,sp,400
    1af2:	00090003          	lb	zero,0(s2)
    1af6:	0100                	addi	s0,sp,128
    1af8:	0200                	addi	s0,sp,256
    1afa:	0c04                	addi	s1,sp,528
    1afc:	0306                	slli	t1,t1,0x1
    1afe:	0900                	addi	s0,sp,144
    1b00:	0000                	unimp
    1b02:	0001                	nop
    1b04:	0402                	c.slli64	s0
    1b06:	0900030b          	.insn	4, 0x0900030b
    1b0a:	0008                	.insn	2, 0x0008
    1b0c:	0001                	nop
    1b0e:	0402                	c.slli64	s0
    1b10:	060c                	addi	a1,sp,768
    1b12:	04090003          	lb	zero,64(s2)
    1b16:	0100                	addi	s0,sp,128
    1b18:	0200                	addi	s0,sp,256
    1b1a:	0c04                	addi	s1,sp,528
    1b1c:	00090003          	lb	zero,0(s2)
    1b20:	0100                	addi	s0,sp,128
    1b22:	0200                	addi	s0,sp,256
    1b24:	0c04                	addi	s1,sp,528
    1b26:	00090003          	lb	zero,0(s2)
    1b2a:	0100                	addi	s0,sp,128
    1b2c:	0200                	addi	s0,sp,256
    1b2e:	0e04                	addi	s1,sp,784
    1b30:	04090003          	lb	zero,64(s2)
    1b34:	0100                	addi	s0,sp,128
    1b36:	0200                	addi	s0,sp,256
    1b38:	0e04                	addi	s1,sp,784
    1b3a:	00090003          	lb	zero,0(s2)
    1b3e:	0100                	addi	s0,sp,128
    1b40:	0200                	addi	s0,sp,256
    1b42:	1004                	addi	s1,sp,32
    1b44:	02090003          	lb	zero,32(s2)
    1b48:	0100                	addi	s0,sp,128
    1b4a:	0200                	addi	s0,sp,256
    1b4c:	1304                	addi	s1,sp,416
    1b4e:	02090003          	lb	zero,32(s2)
    1b52:	0100                	addi	s0,sp,128
    1b54:	0200                	addi	s0,sp,256
    1b56:	1304                	addi	s1,sp,416
    1b58:	00090003          	lb	zero,0(s2)
    1b5c:	0100                	addi	s0,sp,128
    1b5e:	0200                	addi	s0,sp,256
    1b60:	1304                	addi	s1,sp,416
    1b62:	04090003          	lb	zero,64(s2)
    1b66:	0100                	addi	s0,sp,128
    1b68:	0200                	addi	s0,sp,256
    1b6a:	1c04                	addi	s1,sp,560
    1b6c:	02090003          	lb	zero,32(s2)
    1b70:	0100                	addi	s0,sp,128
    1b72:	0200                	addi	s0,sp,256
    1b74:	1c04                	addi	s1,sp,560
    1b76:	02090003          	lb	zero,32(s2)
    1b7a:	0100                	addi	s0,sp,128
    1b7c:	0200                	addi	s0,sp,256
    1b7e:	7504                	ld	s1,40(a0)
    1b80:	00090003          	lb	zero,0(s2)
    1b84:	0100                	addi	s0,sp,128
    1b86:	0300                	addi	s0,sp,384
    1b88:	b004                	.insn	2, 0xb004
    1b8a:	0301                	addi	t1,t1,0
    1b8c:	0900                	addi	s0,sp,144
    1b8e:	0008                	.insn	2, 0x0008
    1b90:	0001                	nop
    1b92:	01b00403          	lb	s0,27(zero) # 1b <_tbss_end+0x1b>
    1b96:	00090003          	lb	zero,0(s2)
    1b9a:	0100                	addi	s0,sp,128
    1b9c:	0300                	addi	s0,sp,384
    1b9e:	b004                	.insn	2, 0xb004
    1ba0:	0301                	addi	t1,t1,0
    1ba2:	0900                	addi	s0,sp,144
    1ba4:	0002                	c.slli64	zero
    1ba6:	0001                	nop
    1ba8:	01b00403          	lb	s0,27(zero) # 1b <_tbss_end+0x1b>
    1bac:	00090003          	lb	zero,0(s2)
    1bb0:	0100                	addi	s0,sp,128
    1bb2:	0200                	addi	s0,sp,256
    1bb4:	1d04                	addi	s1,sp,688
    1bb6:	1c090003          	lb	zero,448(s2)
    1bba:	0100                	addi	s0,sp,128
    1bbc:	0300                	addi	s0,sp,384
    1bbe:	b504                	.insn	2, 0xb504
    1bc0:	0602                	c.slli64	a2
    1bc2:	08090003          	lb	zero,128(s2)
    1bc6:	0100                	addi	s0,sp,128
    1bc8:	0200                	addi	s0,sp,256
    1bca:	1104                	addi	s1,sp,160
    1bcc:	0306                	slli	t1,t1,0x1
    1bce:	0900                	addi	s0,sp,144
    1bd0:	0004                	.insn	2, 0x0004
    1bd2:	0001                	nop
    1bd4:	0402                	c.slli64	s0
    1bd6:	0900032b          	.insn	4, 0x0900032b
    1bda:	0008                	.insn	2, 0x0008
    1bdc:	0001                	nop
    1bde:	0402                	c.slli64	s0
    1be0:	0334                	addi	a3,sp,392
    1be2:	0900                	addi	s0,sp,144
    1be4:	0006                	c.slli	zero,0x1
    1be6:	0001                	nop
    1be8:	0402                	c.slli64	s0
    1bea:	063e                	slli	a2,a2,0xf
    1bec:	02090003          	lb	zero,32(s2)
    1bf0:	0100                	addi	s0,sp,128
    1bf2:	0200                	addi	s0,sp,256
    1bf4:	3404                	.insn	2, 0x3404
    1bf6:	02090003          	lb	zero,32(s2)
    1bfa:	0100                	addi	s0,sp,128
    1bfc:	0200                	addi	s0,sp,256
    1bfe:	3504                	.insn	2, 0x3504
    1c00:	0306                	slli	t1,t1,0x1
    1c02:	0900                	addi	s0,sp,144
    1c04:	0004                	.insn	2, 0x0004
    1c06:	0001                	nop
    1c08:	0402                	c.slli64	s0
    1c0a:	063a                	slli	a2,a2,0xe
    1c0c:	00090003          	lb	zero,0(s2)
    1c10:	0100                	addi	s0,sp,128
    1c12:	0200                	addi	s0,sp,256
    1c14:	3504                	.insn	2, 0x3504
    1c16:	06090003          	lb	zero,96(s2)
    1c1a:	0100                	addi	s0,sp,128
    1c1c:	0200                	addi	s0,sp,256
    1c1e:	3a04                	.insn	2, 0x3a04
    1c20:	04090003          	lb	zero,64(s2)
    1c24:	0100                	addi	s0,sp,128
    1c26:	0200                	addi	s0,sp,256
    1c28:	3c04                	.insn	2, 0x3c04
    1c2a:	08090003          	lb	zero,128(s2)
    1c2e:	0100                	addi	s0,sp,128
    1c30:	0200                	addi	s0,sp,256
    1c32:	4004                	lw	s1,0(s0)
    1c34:	0306                	slli	t1,t1,0x1
    1c36:	0900                	addi	s0,sp,144
    1c38:	0004                	.insn	2, 0x0004
    1c3a:	0001                	nop
    1c3c:	0402                	c.slli64	s0
    1c3e:	0900030f          	.insn	4, 0x0900030f
    1c42:	0006                	c.slli	zero,0x1
    1c44:	0001                	nop
    1c46:	0402                	c.slli64	s0
    1c48:	0342                	slli	t1,t1,0x10
    1c4a:	0900                	addi	s0,sp,144
    1c4c:	0002                	c.slli64	zero
    1c4e:	0001                	nop
    1c50:	0402                	c.slli64	s0
    1c52:	0342                	slli	t1,t1,0x10
    1c54:	0900                	addi	s0,sp,144
    1c56:	0000                	unimp
    1c58:	0001                	nop
    1c5a:	0402                	c.slli64	s0
    1c5c:	0342                	slli	t1,t1,0x10
    1c5e:	0900                	addi	s0,sp,144
    1c60:	0000                	unimp
    1c62:	0001                	nop
    1c64:	0402                	c.slli64	s0
    1c66:	0344                	addi	s1,sp,388
    1c68:	0900                	addi	s0,sp,144
    1c6a:	0004                	.insn	2, 0x0004
    1c6c:	0001                	nop
    1c6e:	0402                	c.slli64	s0
    1c70:	09000347          	.insn	4, 0x09000347
    1c74:	0004                	.insn	2, 0x0004
    1c76:	0001                	nop
    1c78:	0402                	c.slli64	s0
    1c7a:	09000347          	.insn	4, 0x09000347
    1c7e:	0000                	unimp
    1c80:	0001                	nop
    1c82:	0402                	c.slli64	s0
    1c84:	09000347          	.insn	4, 0x09000347
    1c88:	0006                	c.slli	zero,0x1
    1c8a:	0001                	nop
    1c8c:	0402                	c.slli64	s0
    1c8e:	0350                	addi	a2,sp,388
    1c90:	0900                	addi	s0,sp,144
    1c92:	0002                	c.slli64	zero
    1c94:	0001                	nop
    1c96:	0402                	c.slli64	s0
    1c98:	0350                	addi	a2,sp,388
    1c9a:	0900                	addi	s0,sp,144
    1c9c:	0002                	c.slli64	zero
    1c9e:	0001                	nop
    1ca0:	0402                	c.slli64	s0
    1ca2:	0642                	slli	a2,a2,0x10
    1ca4:	00090003          	lb	zero,0(s2)
    1ca8:	0100                	addi	s0,sp,128
    1caa:	0200                	addi	s0,sp,256
    1cac:	5104                	lw	s1,32(a0)
    1cae:	0306                	slli	t1,t1,0x1
    1cb0:	0900                	addi	s0,sp,144
    1cb2:	0004                	.insn	2, 0x0004
    1cb4:	0001                	nop
    1cb6:	02cc0403          	lb	s0,44(s8)
    1cba:	0306                	slli	t1,t1,0x1
    1cbc:	0900                	addi	s0,sp,144
    1cbe:	0008                	.insn	2, 0x0008
    1cc0:	0001                	nop
    1cc2:	0402                	c.slli64	s0
    1cc4:	0645                	addi	a2,a2,17
    1cc6:	06090003          	lb	zero,96(s2)
    1cca:	0100                	addi	s0,sp,128
    1ccc:	0200                	addi	s0,sp,256
    1cce:	5f04                	lw	s1,56(a4)
    1cd0:	0306                	slli	t1,t1,0x1
    1cd2:	0900                	addi	s0,sp,144
    1cd4:	0008                	.insn	2, 0x0008
    1cd6:	0001                	nop
    1cd8:	0402                	c.slli64	s0
    1cda:	0342                	slli	t1,t1,0x10
    1cdc:	0900                	addi	s0,sp,144
    1cde:	0004                	.insn	2, 0x0004
    1ce0:	0001                	nop
    1ce2:	0402                	c.slli64	s0
    1ce4:	065f 0003 0409      	.insn	6, 0x04090003065f
    1cea:	0100                	addi	s0,sp,128
    1cec:	0200                	addi	s0,sp,256
    1cee:	6804                	ld	s1,16(s0)
    1cf0:	02090003          	lb	zero,32(s2)
    1cf4:	0100                	addi	s0,sp,128
    1cf6:	0200                	addi	s0,sp,256
    1cf8:	7204                	ld	s1,32(a2)
    1cfa:	0306                	slli	t1,t1,0x1
    1cfc:	0900                	addi	s0,sp,144
    1cfe:	0002                	c.slli64	zero
    1d00:	0001                	nop
    1d02:	0402                	c.slli64	s0
    1d04:	0368                	addi	a0,sp,396
    1d06:	0900                	addi	s0,sp,144
    1d08:	0002                	c.slli64	zero
    1d0a:	0001                	nop
    1d0c:	0402                	c.slli64	s0
    1d0e:	0669                	addi	a2,a2,26
    1d10:	04090003          	lb	zero,64(s2)
    1d14:	0100                	addi	s0,sp,128
    1d16:	0200                	addi	s0,sp,256
    1d18:	6e04                	ld	s1,24(a2)
    1d1a:	0306                	slli	t1,t1,0x1
    1d1c:	0900                	addi	s0,sp,144
    1d1e:	0000                	unimp
    1d20:	0001                	nop
    1d22:	0402                	c.slli64	s0
    1d24:	0369                	addi	t1,t1,26
    1d26:	0900                	addi	s0,sp,144
    1d28:	0004                	.insn	2, 0x0004
    1d2a:	0001                	nop
    1d2c:	0402                	c.slli64	s0
    1d2e:	036e                	slli	t1,t1,0x1b
    1d30:	0900                	addi	s0,sp,144
    1d32:	0004                	.insn	2, 0x0004
    1d34:	0001                	nop
    1d36:	0402                	c.slli64	s0
    1d38:	0370                	addi	a2,sp,396
    1d3a:	0900                	addi	s0,sp,144
    1d3c:	000c                	.insn	2, 0x000c
    1d3e:	0001                	nop
    1d40:	0402                	c.slli64	s0
    1d42:	0674                	addi	a3,sp,780
    1d44:	04090003          	lb	zero,64(s2)
    1d48:	0100                	addi	s0,sp,128
    1d4a:	0200                	addi	s0,sp,256
    1d4c:	4304                	lw	s1,0(a4)
    1d4e:	04090003          	lb	zero,64(s2)
    1d52:	0100                	addi	s0,sp,128
    1d54:	0200                	addi	s0,sp,256
    1d56:	7604                	ld	s1,40(a2)
    1d58:	0a090003          	lb	zero,160(s2)
    1d5c:	0100                	addi	s0,sp,128
    1d5e:	0200                	addi	s0,sp,256
    1d60:	7804                	ld	s1,48(s0)
    1d62:	04090003          	lb	zero,64(s2)
    1d66:	0100                	addi	s0,sp,128
    1d68:	0200                	addi	s0,sp,256
    1d6a:	7804                	ld	s1,48(s0)
    1d6c:	00090003          	lb	zero,0(s2)
    1d70:	0100                	addi	s0,sp,128
    1d72:	0200                	addi	s0,sp,256
    1d74:	7b04                	ld	s1,48(a4)
    1d76:	02090003          	lb	zero,32(s2)
    1d7a:	0100                	addi	s0,sp,128
    1d7c:	0300                	addi	s0,sp,384
    1d7e:	8104                	.insn	2, 0x8104
    1d80:	0301                	addi	t1,t1,0
    1d82:	0900                	addi	s0,sp,144
    1d84:	0002                	c.slli64	zero
    1d86:	0001                	nop
    1d88:	01810403          	lb	s0,24(sp)
    1d8c:	00090003          	lb	zero,0(s2)
    1d90:	0100                	addi	s0,sp,128
    1d92:	0300                	addi	s0,sp,384
    1d94:	8104                	.insn	2, 0x8104
    1d96:	0301                	addi	t1,t1,0
    1d98:	0900                	addi	s0,sp,144
    1d9a:	0002                	c.slli64	zero
    1d9c:	0001                	nop
    1d9e:	01830403          	lb	s0,24(t1)
    1da2:	08090003          	lb	zero,128(s2)
    1da6:	0100                	addi	s0,sp,128
    1da8:	0300                	addi	s0,sp,384
    1daa:	8304                	.insn	2, 0x8304
    1dac:	0301                	addi	t1,t1,0
    1dae:	0900                	addi	s0,sp,144
    1db0:	0008                	.insn	2, 0x0008
    1db2:	0001                	nop
    1db4:	02fe0403          	lb	s0,47(t3)
    1db8:	02090003          	lb	zero,32(s2)
    1dbc:	0100                	addi	s0,sp,128
    1dbe:	0300                	addi	s0,sp,384
    1dc0:	fe04                	sd	s1,56(a2)
    1dc2:	0302                	c.slli64	t1
    1dc4:	0900                	addi	s0,sp,144
    1dc6:	0000                	unimp
    1dc8:	0001                	nop
    1dca:	02fe0403          	lb	s0,47(t3)
    1dce:	00090003          	lb	zero,0(s2)
    1dd2:	0100                	addi	s0,sp,128
    1dd4:	00090103          	lb	sp,0(s2)
    1dd8:	0100                	addi	s0,sp,128
    1dda:	00090003          	lb	zero,0(s2)
    1dde:	0100                	addi	s0,sp,128
    1de0:	00090003          	lb	zero,0(s2)
    1de4:	0100                	addi	s0,sp,128
    1de6:	0200                	addi	s0,sp,256
    1de8:	2404                	.insn	2, 0x2404
    1dea:	00090003          	lb	zero,0(s2)
    1dee:	0100                	addi	s0,sp,128
    1df0:	0200                	addi	s0,sp,256
    1df2:	2404                	.insn	2, 0x2404
    1df4:	00090003          	lb	zero,0(s2)
    1df8:	0100                	addi	s0,sp,128
    1dfa:	0200                	addi	s0,sp,256
    1dfc:	2504                	.insn	2, 0x2504
    1dfe:	08090003          	lb	zero,128(s2)
    1e02:	0100                	addi	s0,sp,128
    1e04:	0200                	addi	s0,sp,256
    1e06:	2504                	.insn	2, 0x2504
    1e08:	00090003          	lb	zero,0(s2)
    1e0c:	0100                	addi	s0,sp,128
    1e0e:	0200                	addi	s0,sp,256
    1e10:	2804                	.insn	2, 0x2804
    1e12:	00090003          	lb	zero,0(s2)
    1e16:	0100                	addi	s0,sp,128
    1e18:	0200                	addi	s0,sp,256
    1e1a:	2804                	.insn	2, 0x2804
    1e1c:	00090003          	lb	zero,0(s2)
    1e20:	0100                	addi	s0,sp,128
    1e22:	0200                	addi	s0,sp,256
    1e24:	2c04                	.insn	2, 0x2c04
    1e26:	0a090003          	lb	zero,160(s2)
    1e2a:	0100                	addi	s0,sp,128
    1e2c:	0200                	addi	s0,sp,256
    1e2e:	7904                	ld	s1,48(a0)
    1e30:	04097f03          	.insn	4, 0x04097f03
    1e34:	0100                	addi	s0,sp,128
    1e36:	0200                	addi	s0,sp,256
    1e38:	7904                	ld	s1,48(a0)
    1e3a:	00090003          	lb	zero,0(s2)
    1e3e:	0100                	addi	s0,sp,128
    1e40:	0300                	addi	s0,sp,384
    1e42:	8d04                	.insn	2, 0x8d04
    1e44:	0301                	addi	t1,t1,0
    1e46:	0900                	addi	s0,sp,144
    1e48:	0000                	unimp
    1e4a:	0001                	nop
    1e4c:	018d0403          	lb	s0,24(s10)
    1e50:	00090003          	lb	zero,0(s2)
    1e54:	0100                	addi	s0,sp,128
    1e56:	0300                	addi	s0,sp,384
    1e58:	8d04                	.insn	2, 0x8d04
    1e5a:	0301                	addi	t1,t1,0
    1e5c:	0900                	addi	s0,sp,144
    1e5e:	0000                	unimp
    1e60:	0001                	nop
    1e62:	01940403          	lb	s0,25(s0)
    1e66:	00090003          	lb	zero,0(s2)
    1e6a:	0100                	addi	s0,sp,128
    1e6c:	0300                	addi	s0,sp,384
    1e6e:	9404                	.insn	2, 0x9404
    1e70:	0301                	addi	t1,t1,0
    1e72:	0900                	addi	s0,sp,144
    1e74:	0000                	unimp
    1e76:	0001                	nop
    1e78:	01940403          	lb	s0,25(s0)
    1e7c:	00090003          	lb	zero,0(s2)
    1e80:	0100                	addi	s0,sp,128
    1e82:	0300                	addi	s0,sp,384
    1e84:	ce04                	sw	s1,24(a2)
    1e86:	0302                	c.slli64	t1
    1e88:	0900                	addi	s0,sp,144
    1e8a:	0002                	c.slli64	zero
    1e8c:	0001                	nop
    1e8e:	02d50403          	lb	s0,45(a0)
    1e92:	0306                	slli	t1,t1,0x1
    1e94:	0900                	addi	s0,sp,144
    1e96:	0004                	.insn	2, 0x0004
    1e98:	0001                	nop
    1e9a:	0402                	c.slli64	s0
    1e9c:	00030677          	.insn	4, 0x00030677
    1ea0:	0409                	addi	s0,s0,2
    1ea2:	0100                	addi	s0,sp,128
    1ea4:	0200                	addi	s0,sp,256
    1ea6:	7704                	ld	s1,40(a4)
    1ea8:	00090003          	lb	zero,0(s2)
    1eac:	0100                	addi	s0,sp,128
    1eae:	0200                	addi	s0,sp,256
    1eb0:	7704                	ld	s1,40(a4)
    1eb2:	00090003          	lb	zero,0(s2)
    1eb6:	0100                	addi	s0,sp,128
    1eb8:	0200                	addi	s0,sp,256
    1eba:	7704                	ld	s1,40(a4)
    1ebc:	00090003          	lb	zero,0(s2)
    1ec0:	0100                	addi	s0,sp,128
    1ec2:	0200                	addi	s0,sp,256
    1ec4:	0d04                	addi	s1,sp,656
    1ec6:	12090003          	lb	zero,288(s2)
    1eca:	0100                	addi	s0,sp,128
    1ecc:	0200                	addi	s0,sp,256
    1ece:	0d04                	addi	s1,sp,656
    1ed0:	00090003          	lb	zero,0(s2)
    1ed4:	0100                	addi	s0,sp,128
    1ed6:	0300                	addi	s0,sp,384
    1ed8:	c204                	sw	s1,0(a2)
    1eda:	0301                	addi	t1,t1,0
    1edc:	0900                	addi	s0,sp,144
    1ede:	0004                	.insn	2, 0x0004
    1ee0:	0001                	nop
    1ee2:	01c20403          	lb	s0,28(tp) # 1c <_tbss_end+0x1c>
    1ee6:	00090003          	lb	zero,0(s2)
    1eea:	0100                	addi	s0,sp,128
    1eec:	0300                	addi	s0,sp,384
    1eee:	c204                	sw	s1,0(a2)
    1ef0:	0301                	addi	t1,t1,0
    1ef2:	0900                	addi	s0,sp,144
    1ef4:	0000                	unimp
    1ef6:	0001                	nop
    1ef8:	01c40403          	lb	s0,28(s0)
    1efc:	02090003          	lb	zero,32(s2)
    1f00:	0100                	addi	s0,sp,128
    1f02:	0300                	addi	s0,sp,384
    1f04:	c704                	sw	s1,8(a4)
    1f06:	0301                	addi	t1,t1,0
    1f08:	0900                	addi	s0,sp,144
    1f0a:	0002                	c.slli64	zero
    1f0c:	0001                	nop
    1f0e:	01c70403          	lb	s0,28(a4)
    1f12:	00090003          	lb	zero,0(s2)
    1f16:	0100                	addi	s0,sp,128
    1f18:	0300                	addi	s0,sp,384
    1f1a:	c704                	sw	s1,8(a4)
    1f1c:	0301                	addi	t1,t1,0
    1f1e:	0900                	addi	s0,sp,144
    1f20:	0004                	.insn	2, 0x0004
    1f22:	0001                	nop
    1f24:	01d00403          	lb	s0,29(zero) # 1d <_tbss_end+0x1d>
    1f28:	02090003          	lb	zero,32(s2)
    1f2c:	0100                	addi	s0,sp,128
    1f2e:	0300                	addi	s0,sp,384
    1f30:	d004                	sw	s1,32(s0)
    1f32:	0301                	addi	t1,t1,0
    1f34:	0900                	addi	s0,sp,144
    1f36:	0004                	.insn	2, 0x0004
    1f38:	0001                	nop
    1f3a:	02a90403          	lb	s0,42(s2)
    1f3e:	00090003          	lb	zero,0(s2)
    1f42:	0100                	addi	s0,sp,128
    1f44:	0300                	addi	s0,sp,384
    1f46:	e404                	sd	s1,8(s0)
    1f48:	0302                	c.slli64	t1
    1f4a:	0900                	addi	s0,sp,144
    1f4c:	0008                	.insn	2, 0x0008
    1f4e:	0001                	nop
    1f50:	02e40403          	lb	s0,46(s0)
    1f54:	00090003          	lb	zero,0(s2)
    1f58:	0100                	addi	s0,sp,128
    1f5a:	0300                	addi	s0,sp,384
    1f5c:	d104                	sw	s1,32(a0)
    1f5e:	0301                	addi	t1,t1,0
    1f60:	0900                	addi	s0,sp,144
    1f62:	000c                	.insn	2, 0x000c
    1f64:	0001                	nop
    1f66:	01e80403          	lb	s0,30(a6)
    1f6a:	08090003          	lb	zero,128(s2)
    1f6e:	0100                	addi	s0,sp,128
    1f70:	0300                	addi	s0,sp,384
    1f72:	f204                	sd	s1,32(a2)
    1f74:	0601                	addi	a2,a2,0
    1f76:	02090003          	lb	zero,32(s2)
    1f7a:	0100                	addi	s0,sp,128
    1f7c:	0300                	addi	s0,sp,384
    1f7e:	e804                	sd	s1,16(s0)
    1f80:	0301                	addi	t1,t1,0
    1f82:	0900                	addi	s0,sp,144
    1f84:	0002                	c.slli64	zero
    1f86:	0001                	nop
    1f88:	01e90403          	lb	s0,30(s2)
    1f8c:	0306                	slli	t1,t1,0x1
    1f8e:	0900                	addi	s0,sp,144
    1f90:	0004                	.insn	2, 0x0004
    1f92:	0001                	nop
    1f94:	01ee0403          	lb	s0,30(t3)
    1f98:	0306                	slli	t1,t1,0x1
    1f9a:	0900                	addi	s0,sp,144
    1f9c:	0000                	unimp
    1f9e:	0001                	nop
    1fa0:	01e90403          	lb	s0,30(s2)
    1fa4:	06090003          	lb	zero,96(s2)
    1fa8:	0100                	addi	s0,sp,128
    1faa:	0300                	addi	s0,sp,384
    1fac:	ee04                	sd	s1,24(a2)
    1fae:	0301                	addi	t1,t1,0
    1fb0:	0900                	addi	s0,sp,144
    1fb2:	0004                	.insn	2, 0x0004
    1fb4:	0001                	nop
    1fb6:	01f00403          	lb	s0,31(zero) # 1f <_tbss_end+0x1f>
    1fba:	08090003          	lb	zero,128(s2)
    1fbe:	0100                	addi	s0,sp,128
    1fc0:	0300                	addi	s0,sp,384
    1fc2:	f404                	sd	s1,40(s0)
    1fc4:	0601                	addi	a2,a2,0
    1fc6:	04090003          	lb	zero,64(s2)
    1fca:	0100                	addi	s0,sp,128
    1fcc:	0300                	addi	s0,sp,384
    1fce:	c504                	sw	s1,8(a0)
    1fd0:	0301                	addi	t1,t1,0
    1fd2:	0900                	addi	s0,sp,144
    1fd4:	0006                	c.slli	zero,0x1
    1fd6:	0001                	nop
    1fd8:	01df0403          	lb	s0,29(t5)
    1fdc:	08090003          	lb	zero,128(s2)
    1fe0:	0100                	addi	s0,sp,128
    1fe2:	0300                	addi	s0,sp,384
    1fe4:	c304                	sw	s1,0(a4)
    1fe6:	0301                	addi	t1,t1,0
    1fe8:	0900                	addi	s0,sp,144
    1fea:	0008                	.insn	2, 0x0008
    1fec:	0001                	nop
    1fee:	01f60403          	lb	s0,31(a2)
    1ff2:	02090003          	lb	zero,32(s2)
    1ff6:	0100                	addi	s0,sp,128
    1ff8:	0300                	addi	s0,sp,384
    1ffa:	f604                	sd	s1,40(a2)
    1ffc:	0301                	addi	t1,t1,0
    1ffe:	0900                	addi	s0,sp,144
    2000:	0000                	unimp
    2002:	0001                	nop
    2004:	01f60403          	lb	s0,31(a2)
    2008:	00090003          	lb	zero,0(s2)
    200c:	0100                	addi	s0,sp,128
    200e:	0300                	addi	s0,sp,384
    2010:	f604                	sd	s1,40(a2)
    2012:	0301                	addi	t1,t1,0
    2014:	0900                	addi	s0,sp,144
    2016:	0000                	unimp
    2018:	0001                	nop
    201a:	01f80403          	lb	s0,31(a6)
    201e:	04090003          	lb	zero,64(s2)
    2022:	0100                	addi	s0,sp,128
    2024:	0300                	addi	s0,sp,384
    2026:	fb04                	sd	s1,48(a4)
    2028:	0301                	addi	t1,t1,0
    202a:	0900                	addi	s0,sp,144
    202c:	0004                	.insn	2, 0x0004
    202e:	0001                	nop
    2030:	01fb0403          	lb	s0,31(s6)
    2034:	00090003          	lb	zero,0(s2)
    2038:	0100                	addi	s0,sp,128
    203a:	0300                	addi	s0,sp,384
    203c:	fb04                	sd	s1,48(a4)
    203e:	0301                	addi	t1,t1,0
    2040:	0900                	addi	s0,sp,144
    2042:	0006                	c.slli	zero,0x1
    2044:	0001                	nop
    2046:	02840403          	lb	s0,40(s0)
    204a:	02090003          	lb	zero,32(s2)
    204e:	0100                	addi	s0,sp,128
    2050:	0300                	addi	s0,sp,384
    2052:	8404                	.insn	2, 0x8404
    2054:	0302                	c.slli64	t1
    2056:	0900                	addi	s0,sp,144
    2058:	0002                	c.slli64	zero
    205a:	0001                	nop
    205c:	01f60403          	lb	s0,31(a2)
    2060:	0306                	slli	t1,t1,0x1
    2062:	0900                	addi	s0,sp,144
    2064:	0000                	unimp
    2066:	0001                	nop
    2068:	02850403          	lb	s0,40(a0)
    206c:	0306                	slli	t1,t1,0x1
    206e:	0900                	addi	s0,sp,144
    2070:	0006                	c.slli	zero,0x1
    2072:	0001                	nop
    2074:	01f60403          	lb	s0,31(a2)
    2078:	0306                	slli	t1,t1,0x1
    207a:	0900                	addi	s0,sp,144
    207c:	0008                	.insn	2, 0x0008
    207e:	0001                	nop
    2080:	01f90403          	lb	s0,31(s2)
    2084:	0306                	slli	t1,t1,0x1
    2086:	0900                	addi	s0,sp,144
    2088:	0006                	c.slli	zero,0x1
    208a:	0001                	nop
    208c:	02930403          	lb	s0,41(t1)
    2090:	0306                	slli	t1,t1,0x1
    2092:	0900                	addi	s0,sp,144
    2094:	0008                	.insn	2, 0x0008
    2096:	0001                	nop
    2098:	01f60403          	lb	s0,31(a2)
    209c:	04090003          	lb	zero,64(s2)
    20a0:	0100                	addi	s0,sp,128
    20a2:	0300                	addi	s0,sp,384
    20a4:	9304                	.insn	2, 0x9304
    20a6:	0602                	c.slli64	a2
    20a8:	04090003          	lb	zero,64(s2)
    20ac:	0100                	addi	s0,sp,128
    20ae:	0300                	addi	s0,sp,384
    20b0:	9c04                	.insn	2, 0x9c04
    20b2:	0302                	c.slli64	t1
    20b4:	0900                	addi	s0,sp,144
    20b6:	0002                	c.slli64	zero
    20b8:	0001                	nop
    20ba:	02a60403          	lb	s0,42(a2)
    20be:	0306                	slli	t1,t1,0x1
    20c0:	0900                	addi	s0,sp,144
    20c2:	0002                	c.slli64	zero
    20c4:	0001                	nop
    20c6:	029c0403          	lb	s0,41(s8)
    20ca:	02090003          	lb	zero,32(s2)
    20ce:	0100                	addi	s0,sp,128
    20d0:	0300                	addi	s0,sp,384
    20d2:	9d04                	.insn	2, 0x9d04
    20d4:	0602                	c.slli64	a2
    20d6:	04090003          	lb	zero,64(s2)
    20da:	0100                	addi	s0,sp,128
    20dc:	0300                	addi	s0,sp,384
    20de:	a204                	.insn	2, 0xa204
    20e0:	0602                	c.slli64	a2
    20e2:	00090003          	lb	zero,0(s2)
    20e6:	0100                	addi	s0,sp,128
    20e8:	0300                	addi	s0,sp,384
    20ea:	9d04                	.insn	2, 0x9d04
    20ec:	0302                	c.slli64	t1
    20ee:	0900                	addi	s0,sp,144
    20f0:	0004                	.insn	2, 0x0004
    20f2:	0001                	nop
    20f4:	02a20403          	lb	s0,42(tp) # 2a <_tbss_end+0x2a>
    20f8:	04090003          	lb	zero,64(s2)
    20fc:	0100                	addi	s0,sp,128
    20fe:	0300                	addi	s0,sp,384
    2100:	a404                	.insn	2, 0xa404
    2102:	0302                	c.slli64	t1
    2104:	0900                	addi	s0,sp,144
    2106:	000c                	.insn	2, 0x000c
    2108:	0001                	nop
    210a:	02a80403          	lb	s0,42(a6)
    210e:	0306                	slli	t1,t1,0x1
    2110:	0900                	addi	s0,sp,144
    2112:	0004                	.insn	2, 0x0004
    2114:	0001                	nop
    2116:	01f70403          	lb	s0,31(a4)
    211a:	04090003          	lb	zero,64(s2)
    211e:	0100                	addi	s0,sp,128
    2120:	0300                	addi	s0,sp,384
    2122:	aa04                	.insn	2, 0xaa04
    2124:	0302                	c.slli64	t1
    2126:	0900                	addi	s0,sp,144
    2128:	000a                	c.slli	zero,0x2
    212a:	0001                	nop
    212c:	02ac0403          	lb	s0,42(s8)
    2130:	04090003          	lb	zero,64(s2)
    2134:	0100                	addi	s0,sp,128
    2136:	0300                	addi	s0,sp,384
    2138:	ac04                	.insn	2, 0xac04
    213a:	0302                	c.slli64	t1
    213c:	0900                	addi	s0,sp,144
    213e:	0000                	unimp
    2140:	0001                	nop
    2142:	02ae0403          	lb	s0,42(t3)
    2146:	02090003          	lb	zero,32(s2)
    214a:	0100                	addi	s0,sp,128
    214c:	0300                	addi	s0,sp,384
    214e:	ae04                	.insn	2, 0xae04
    2150:	0302                	c.slli64	t1
    2152:	0900                	addi	s0,sp,144
    2154:	0000                	unimp
    2156:	0001                	nop
    2158:	02bb0403          	lb	s0,43(s6)
    215c:	0306                	slli	t1,t1,0x1
    215e:	0900                	addi	s0,sp,144
    2160:	0002                	c.slli64	zero
    2162:	0001                	nop
    2164:	02af0403          	lb	s0,42(t5)
    2168:	0306                	slli	t1,t1,0x1
    216a:	0900                	addi	s0,sp,144
    216c:	0004                	.insn	2, 0x0004
    216e:	0001                	nop
    2170:	02b60403          	lb	s0,43(a2)
    2174:	04090003          	lb	zero,64(s2)
    2178:	0100                	addi	s0,sp,128
    217a:	0300                	addi	s0,sp,384
    217c:	b604                	.insn	2, 0xb604
    217e:	0302                	c.slli64	t1
    2180:	0900                	addi	s0,sp,144
    2182:	0000                	unimp
    2184:	0001                	nop
    2186:	02b60403          	lb	s0,43(a2)
    218a:	04090003          	lb	zero,64(s2)
    218e:	0100                	addi	s0,sp,128
    2190:	0300                	addi	s0,sp,384
    2192:	b604                	.insn	2, 0xb604
    2194:	0302                	c.slli64	t1
    2196:	0900                	addi	s0,sp,144
    2198:	0000                	unimp
    219a:	0001                	nop
    219c:	02b80403          	lb	s0,43(a6)
    21a0:	0306                	slli	t1,t1,0x1
    21a2:	0900                	addi	s0,sp,144
    21a4:	0004                	.insn	2, 0x0004
    21a6:	0001                	nop
    21a8:	02b60403          	lb	s0,43(a2)
    21ac:	02090003          	lb	zero,32(s2)
    21b0:	0100                	addi	s0,sp,128
    21b2:	0300                	addi	s0,sp,384
    21b4:	b904                	.insn	2, 0xb904
    21b6:	0602                	c.slli64	a2
    21b8:	04090003          	lb	zero,64(s2)
    21bc:	0100                	addi	s0,sp,128
    21be:	0300                	addi	s0,sp,384
    21c0:	b604                	.insn	2, 0xb604
    21c2:	0602                	c.slli64	a2
    21c4:	00090003          	lb	zero,0(s2)
    21c8:	0100                	addi	s0,sp,128
    21ca:	0300                	addi	s0,sp,384
    21cc:	b904                	.insn	2, 0xb904
    21ce:	0302                	c.slli64	t1
    21d0:	0900                	addi	s0,sp,144
    21d2:	0002                	c.slli64	zero
    21d4:	0001                	nop
    21d6:	02b60403          	lb	s0,43(a2)
    21da:	04090003          	lb	zero,64(s2)
    21de:	0100                	addi	s0,sp,128
    21e0:	0300                	addi	s0,sp,384
    21e2:	ad04                	.insn	2, 0xad04
    21e4:	0602                	c.slli64	a2
    21e6:	04090003          	lb	zero,64(s2)
    21ea:	0100                	addi	s0,sp,128
    21ec:	0300                	addi	s0,sp,384
    21ee:	ad04                	.insn	2, 0xad04
    21f0:	0302                	c.slli64	t1
    21f2:	0900                	addi	s0,sp,144
    21f4:	0000                	unimp
    21f6:	0001                	nop
    21f8:	02c50403          	lb	s0,44(a0)
    21fc:	00090003          	lb	zero,0(s2)
    2200:	0100                	addi	s0,sp,128
    2202:	0300                	addi	s0,sp,384
    2204:	c504                	sw	s1,8(a0)
    2206:	0302                	c.slli64	t1
    2208:	0900                	addi	s0,sp,144
    220a:	0000                	unimp
    220c:	0001                	nop
    220e:	02c50403          	lb	s0,44(a0)
    2212:	00090003          	lb	zero,0(s2)
    2216:	0100                	addi	s0,sp,128
    2218:	0300                	addi	s0,sp,384
    221a:	cc04                	sw	s1,24(s0)
    221c:	0302                	c.slli64	t1
    221e:	0900                	addi	s0,sp,144
    2220:	0000                	unimp
    2222:	0001                	nop
    2224:	02cc0403          	lb	s0,44(s8)
    2228:	00090003          	lb	zero,0(s2)
    222c:	0100                	addi	s0,sp,128
    222e:	0300                	addi	s0,sp,384
    2230:	cc04                	sw	s1,24(s0)
    2232:	0302                	c.slli64	t1
    2234:	0900                	addi	s0,sp,144
    2236:	0000                	unimp
    2238:	0001                	nop
    223a:	02cd0403          	lb	s0,44(s10)
    223e:	04090003          	lb	zero,64(s2)
    2242:	0100                	addi	s0,sp,128
    2244:	0300                	addi	s0,sp,384
    2246:	d004                	sw	s1,32(s0)
    2248:	0602                	c.slli64	a2
    224a:	00090003          	lb	zero,0(s2)
    224e:	0100                	addi	s0,sp,128
    2250:	0300                	addi	s0,sp,384
    2252:	cd04                	sw	s1,24(a0)
    2254:	0302                	c.slli64	t1
    2256:	0900                	addi	s0,sp,144
    2258:	0002                	c.slli64	zero
    225a:	0001                	nop
    225c:	02cf0403          	lb	s0,44(t5)
    2260:	04090003          	lb	zero,64(s2)
    2264:	0100                	addi	s0,sp,128
    2266:	0300                	addi	s0,sp,384
    2268:	d204                	sw	s1,32(a2)
    226a:	0302                	c.slli64	t1
    226c:	0900                	addi	s0,sp,144
    226e:	0002                	c.slli64	zero
    2270:	0001                	nop
    2272:	02cc0403          	lb	s0,44(s8)
    2276:	04090003          	lb	zero,64(s2)
    227a:	0100                	addi	s0,sp,128
    227c:	0300                	addi	s0,sp,384
    227e:	ab04                	.insn	2, 0xab04
    2280:	0602                	c.slli64	a2
    2282:	06090003          	lb	zero,96(s2)
    2286:	0100                	addi	s0,sp,128
    2288:	0300                	addi	s0,sp,384
    228a:	ab04                	.insn	2, 0xab04
    228c:	0302                	c.slli64	t1
    228e:	0900                	addi	s0,sp,144
    2290:	0000                	unimp
    2292:	0001                	nop
    2294:	02ab0403          	lb	s0,42(s6)
    2298:	04090003          	lb	zero,64(s2)
    229c:	0100                	addi	s0,sp,128
    229e:	0300                	addi	s0,sp,384
    22a0:	ab04                	.insn	2, 0xab04
    22a2:	0302                	c.slli64	t1
    22a4:	0900                	addi	s0,sp,144
    22a6:	0000                	unimp
    22a8:	0001                	nop
    22aa:	02dd0403          	lb	s0,45(s10)
    22ae:	08090003          	lb	zero,128(s2)
    22b2:	0100                	addi	s0,sp,128
    22b4:	0300                	addi	s0,sp,384
    22b6:	dd04                	sw	s1,56(a0)
    22b8:	0302                	c.slli64	t1
    22ba:	0900                	addi	s0,sp,144
    22bc:	0004                	.insn	2, 0x0004
    22be:	0001                	nop
    22c0:	02e60403          	lb	s0,46(a2)
    22c4:	02090003          	lb	zero,32(s2)
    22c8:	0100                	addi	s0,sp,128
    22ca:	0300                	addi	s0,sp,384
    22cc:	e604                	sd	s1,8(a2)
    22ce:	0302                	c.slli64	t1
    22d0:	0900                	addi	s0,sp,144
    22d2:	0000                	unimp
    22d4:	0001                	nop
    22d6:	02e60403          	lb	s0,46(a2)
    22da:	00090003          	lb	zero,0(s2)
    22de:	0100                	addi	s0,sp,128
    22e0:	0300                	addi	s0,sp,384
    22e2:	e804                	sd	s1,16(s0)
    22e4:	0302                	c.slli64	t1
    22e6:	0900                	addi	s0,sp,144
    22e8:	0000                	unimp
    22ea:	0001                	nop
    22ec:	02ea0403          	lb	s0,46(s4)
    22f0:	00090003          	lb	zero,0(s2)
    22f4:	0100                	addi	s0,sp,128
    22f6:	0300                	addi	s0,sp,384
    22f8:	ed04                	sd	s1,24(a0)
    22fa:	0302                	c.slli64	t1
    22fc:	0900                	addi	s0,sp,144
    22fe:	0006                	c.slli	zero,0x1
    2300:	0001                	nop
    2302:	02ed0403          	lb	s0,46(s10)
    2306:	00090003          	lb	zero,0(s2)
    230a:	0100                	addi	s0,sp,128
    230c:	0300                	addi	s0,sp,384
    230e:	ed04                	sd	s1,24(a0)
    2310:	0302                	c.slli64	t1
    2312:	0900                	addi	s0,sp,144
    2314:	0004                	.insn	2, 0x0004
    2316:	0001                	nop
    2318:	02ed0403          	lb	s0,46(s10)
    231c:	00090003          	lb	zero,0(s2)
    2320:	0100                	addi	s0,sp,128
    2322:	0300                	addi	s0,sp,384
    2324:	f104                	sd	s1,32(a0)
    2326:	0302                	c.slli64	t1
    2328:	0900                	addi	s0,sp,144
    232a:	0000                	unimp
    232c:	0001                	nop
    232e:	02f30403          	lb	s0,47(t1)
    2332:	04090003          	lb	zero,64(s2)
    2336:	0100                	addi	s0,sp,128
    2338:	0300                	addi	s0,sp,384
    233a:	f304                	sd	s1,32(a4)
    233c:	0302                	c.slli64	t1
    233e:	0900                	addi	s0,sp,144
    2340:	0000                	unimp
    2342:	0001                	nop
    2344:	02f40403          	lb	s0,47(s0)
    2348:	04090003          	lb	zero,64(s2)
    234c:	0100                	addi	s0,sp,128
    234e:	0300                	addi	s0,sp,384
    2350:	f404                	sd	s1,40(s0)
    2352:	0302                	c.slli64	t1
    2354:	0900                	addi	s0,sp,144
    2356:	0006                	c.slli	zero,0x1
    2358:	0001                	nop
    235a:	02f90403          	lb	s0,47(s2)
    235e:	0306                	slli	t1,t1,0x1
    2360:	0900                	addi	s0,sp,144
    2362:	0000                	unimp
    2364:	0001                	nop
    2366:	02f40403          	lb	s0,47(s0)
    236a:	06090003          	lb	zero,96(s2)
    236e:	0100                	addi	s0,sp,128
    2370:	0300                	addi	s0,sp,384
    2372:	f904                	sd	s1,48(a0)
    2374:	0302                	c.slli64	t1
    2376:	0900                	addi	s0,sp,144
    2378:	0004                	.insn	2, 0x0004
    237a:	0001                	nop
    237c:	02fb0403          	lb	s0,47(s6)
    2380:	08090003          	lb	zero,128(s2)
    2384:	0100                	addi	s0,sp,128
    2386:	0300                	addi	s0,sp,384
    2388:	fb04                	sd	s1,48(a4)
    238a:	0602                	c.slli64	a2
    238c:	04090003          	lb	zero,64(s2)
    2390:	0100                	addi	s0,sp,128
    2392:	0300                	addi	s0,sp,384
    2394:	de04                	sw	s1,56(a2)
    2396:	0302                	c.slli64	t1
    2398:	0900                	addi	s0,sp,144
    239a:	0004                	.insn	2, 0x0004
    239c:	0001                	nop
    239e:	02ab0403          	lb	s0,42(s6)
    23a2:	0306                	slli	t1,t1,0x1
    23a4:	0900                	addi	s0,sp,144
    23a6:	0004                	.insn	2, 0x0004
    23a8:	0001                	nop
    23aa:	02e00403          	lb	s0,46(zero) # 2e <_tbss_end+0x2e>
    23ae:	02090003          	lb	zero,32(s2)
    23b2:	0100                	addi	s0,sp,128
    23b4:	0300                	addi	s0,sp,384
    23b6:	f504                	sd	s1,40(a0)
    23b8:	0602                	c.slli64	a2
    23ba:	04090003          	lb	zero,64(s2)
    23be:	0100                	addi	s0,sp,128
    23c0:	0300                	addi	s0,sp,384
    23c2:	f504                	sd	s1,40(a0)
    23c4:	0302                	c.slli64	t1
    23c6:	0900                	addi	s0,sp,144
    23c8:	0002                	c.slli64	zero
    23ca:	0001                	nop
    23cc:	0402                	c.slli64	s0
    23ce:	0642                	slli	a2,a2,0x10
    23d0:	0c090003          	lb	zero,192(s2)
    23d4:	0100                	addi	s0,sp,128
    23d6:	0200                	addi	s0,sp,256
    23d8:	2f04                	.insn	2, 0x2f04
    23da:	0306                	slli	t1,t1,0x1
    23dc:	0901                	addi	s2,s2,0
    23de:	000a                	c.slli	zero,0x2
    23e0:	0001                	nop
    23e2:	0402                	c.slli64	s0
    23e4:	0900032f          	.insn	4, 0x0900032f
    23e8:	0000                	unimp
    23ea:	0001                	nop
    23ec:	0402                	c.slli64	s0
    23ee:	033e                	slli	t1,t1,0xf
    23f0:	0900                	addi	s0,sp,144
    23f2:	0000                	unimp
    23f4:	0001                	nop
    23f6:	0402                	c.slli64	s0
    23f8:	0900033f 00010008 	.insn	8, 0x000100080900033f
    2400:	0402                	c.slli64	s0
    2402:	0900033f 00010000 	.insn	8, 0x000100000900033f
    240a:	0402                	c.slli64	s0
    240c:	0900033f 00010002 	.insn	8, 0x000100020900033f
    2414:	0402                	c.slli64	s0
    2416:	0900034f          	.insn	4, 0x0900034f
    241a:	0010                	.insn	2, 0x0010
    241c:	0001                	nop
    241e:	0402                	c.slli64	s0
    2420:	0900034f          	.insn	4, 0x0900034f
    2424:	0000                	unimp
    2426:	0001                	nop
    2428:	0402                	c.slli64	s0
    242a:	0900034f          	.insn	4, 0x0900034f
    242e:	0006                	c.slli	zero,0x1
    2430:	0001                	nop
    2432:	0402                	c.slli64	s0
    2434:	0650                	addi	a2,sp,772
    2436:	04090003          	lb	zero,64(s2)
    243a:	0100                	addi	s0,sp,128
    243c:	0200                	addi	s0,sp,256
    243e:	5404                	lw	s1,40(s0)
    2440:	02090003          	lb	zero,32(s2)
    2444:	0100                	addi	s0,sp,128
    2446:	0200                	addi	s0,sp,256
    2448:	5a04                	lw	s1,48(a2)
    244a:	0306                	slli	t1,t1,0x1
    244c:	0900                	addi	s0,sp,144
    244e:	0006                	c.slli	zero,0x1
    2450:	0001                	nop
    2452:	0402                	c.slli64	s0
    2454:	035a                	slli	t1,t1,0x16
    2456:	0900                	addi	s0,sp,144
    2458:	0000                	unimp
    245a:	0001                	nop
    245c:	0402                	c.slli64	s0
    245e:	035a                	slli	t1,t1,0x16
    2460:	0900                	addi	s0,sp,144
    2462:	0000                	unimp
    2464:	0001                	nop
    2466:	0402                	c.slli64	s0
    2468:	035a                	slli	t1,t1,0x16
    246a:	0900                	addi	s0,sp,144
    246c:	0000                	unimp
    246e:	0001                	nop
    2470:	0402                	c.slli64	s0
    2472:	035a                	slli	t1,t1,0x16
    2474:	0900                	addi	s0,sp,144
    2476:	0000                	unimp
    2478:	0001                	nop
    247a:	0402                	c.slli64	s0
    247c:	035a                	slli	t1,t1,0x16
    247e:	0900                	addi	s0,sp,144
    2480:	0000                	unimp
    2482:	0001                	nop
    2484:	0402                	c.slli64	s0
    2486:	035a                	slli	t1,t1,0x16
    2488:	0900                	addi	s0,sp,144
    248a:	0000                	unimp
    248c:	0501                	addi	a0,a0,0
    248e:	0601                	addi	a2,a2,0
    2490:	0c090403          	lb	s0,192(s2)
    2494:	0100                	addi	s0,sp,128
    2496:	0305                	addi	t1,t1,1
    2498:	0200                	addi	s0,sp,256
    249a:	5a04                	lw	s1,48(a2)
    249c:	02097c03          	.insn	4, 0x02097c03
    24a0:	0100                	addi	s0,sp,128
    24a2:	0105                	addi	sp,sp,1
    24a4:	02090403          	lb	s0,32(s2)
    24a8:	0100                	addi	s0,sp,128
    24aa:	0305                	addi	t1,t1,1
    24ac:	0200                	addi	s0,sp,256
    24ae:	5a04                	lw	s1,48(a2)
    24b0:	02097c03          	.insn	4, 0x02097c03
    24b4:	0100                	addi	s0,sp,128
    24b6:	0200                	addi	s0,sp,256
    24b8:	5a04                	lw	s1,48(a2)
    24ba:	0306                	slli	t1,t1,0x1
    24bc:	0900                	addi	s0,sp,144
    24be:	0004                	.insn	2, 0x0004
    24c0:	0001                	nop
    24c2:	0402                	c.slli64	s0
    24c4:	035a                	slli	t1,t1,0x16
    24c6:	0900                	addi	s0,sp,144
    24c8:	0000                	unimp
    24ca:	0001                	nop
    24cc:	0402                	c.slli64	s0
    24ce:	035a                	slli	t1,t1,0x16
    24d0:	0900                	addi	s0,sp,144
    24d2:	0000                	unimp
    24d4:	0301                	addi	t1,t1,0
    24d6:	0901                	addi	s2,s2,0
    24d8:	0000                	unimp
    24da:	0301                	addi	t1,t1,0
    24dc:	0900                	addi	s0,sp,144
    24de:	0000                	unimp
    24e0:	0301                	addi	t1,t1,0
    24e2:	0900                	addi	s0,sp,144
    24e4:	0000                	unimp
    24e6:	0301                	addi	t1,t1,0
    24e8:	0902                	c.slli64	s2
    24ea:	0000                	unimp
    24ec:	0501                	addi	a0,a0,0
    24ee:	0601                	addi	a2,a2,0
    24f0:	00090103          	lb	sp,0(s2)
    24f4:	0100                	addi	s0,sp,128
    24f6:	0305                	addi	t1,t1,1
    24f8:	0300                	addi	s0,sp,384
    24fa:	f604                	sd	s1,40(a2)
    24fc:	0301                	addi	t1,t1,0
    24fe:	000a097b          	.insn	4, 0x000a097b
    2502:	0001                	nop
    2504:	02b10403          	lb	s0,43(sp)
    2508:	02090003          	lb	zero,32(s2)
    250c:	0100                	addi	s0,sp,128
    250e:	0809                	addi	a6,a6,2
    2510:	0000                	unimp
    2512:	0101                	addi	sp,sp,0
    2514:	0000021b          	sext.w	tp,zero
    2518:	0005                	c.nop	1
    251a:	0008                	.insn	2, 0x0008
    251c:	0038                	addi	a4,sp,8
    251e:	0000                	unimp
    2520:	0101                	addi	sp,sp,0
    2522:	fb01                	bnez	a4,2432 <_tbss_end+0x2432>
    2524:	0d0e                	slli	s10,s10,0x3
    2526:	0100                	addi	s0,sp,128
    2528:	0101                	addi	sp,sp,0
    252a:	0001                	nop
    252c:	0000                	unimp
    252e:	0001                	nop
    2530:	0100                	addi	s0,sp,128
    2532:	0101                	addi	sp,sp,0
    2534:	021f 002d 0000      	.insn	6, 0x002d021f
    253a:	0098                	addi	a4,sp,64
    253c:	0000                	unimp
    253e:	0102                	c.slli64	sp
    2540:	021f 040f 01b4      	.insn	6, 0x01b4040f021f
    2546:	0000                	unimp
    2548:	b401                	j	1f48 <_tbss_end+0x1f48>
    254a:	0001                	nop
    254c:	0100                	addi	s0,sp,128
    254e:	01be                	slli	gp,gp,0xf
    2550:	0000                	unimp
    2552:	0101                	addi	sp,sp,0
    2554:	0001                	nop
    2556:	0100                	addi	s0,sp,128
    2558:	0105                	addi	sp,sp,1
    255a:	0900                	addi	s0,sp,144
    255c:	9202                	jalr	tp
    255e:	0038                	addi	a4,sp,8
    2560:	0080                	addi	s0,sp,64
    2562:	0000                	unimp
    2564:	0300                	addi	s0,sp,384
    2566:	0121                	addi	sp,sp,8
    2568:	0305                	addi	t1,t1,1
    256a:	00090103          	lb	sp,0(s2)
    256e:	0100                	addi	s0,sp,128
    2570:	00090003          	lb	zero,0(s2)
    2574:	0100                	addi	s0,sp,128
    2576:	0d05                	addi	s10,s10,1
    2578:	00090003          	lb	zero,0(s2)
    257c:	0100                	addi	s0,sp,128
    257e:	0305                	addi	t1,t1,1
    2580:	00090103          	lb	sp,0(s2)
    2584:	0100                	addi	s0,sp,128
    2586:	00090003          	lb	zero,0(s2)
    258a:	0100                	addi	s0,sp,128
    258c:	00090003          	lb	zero,0(s2)
    2590:	0100                	addi	s0,sp,128
    2592:	00090003          	lb	zero,0(s2)
    2596:	0100                	addi	s0,sp,128
    2598:	00090103          	lb	sp,0(s2)
    259c:	0100                	addi	s0,sp,128
    259e:	00090203          	lb	tp,0(s2)
    25a2:	0100                	addi	s0,sp,128
    25a4:	00090103          	lb	sp,0(s2)
    25a8:	0100                	addi	s0,sp,128
    25aa:	00090003          	lb	zero,0(s2)
    25ae:	0100                	addi	s0,sp,128
    25b0:	00090003          	lb	zero,0(s2)
    25b4:	0100                	addi	s0,sp,128
    25b6:	00090003          	lb	zero,0(s2)
    25ba:	0100                	addi	s0,sp,128
    25bc:	0306                	slli	t1,t1,0x1
    25be:	0901                	addi	s2,s2,0
    25c0:	0012                	c.slli	zero,0x4
    25c2:	0301                	addi	t1,t1,0
    25c4:	097f 0004 0601 0003 	.insn	10, 0x0209000306010004097f
    25cc:	0209 
    25ce:	0100                	addi	s0,sp,128
    25d0:	00090003          	lb	zero,0(s2)
    25d4:	0100                	addi	s0,sp,128
    25d6:	04090003          	lb	zero,64(s2)
    25da:	0100                	addi	s0,sp,128
    25dc:	00090103          	lb	sp,0(s2)
    25e0:	0100                	addi	s0,sp,128
    25e2:	00090003          	lb	zero,0(s2)
    25e6:	0100                	addi	s0,sp,128
    25e8:	0200                	addi	s0,sp,256
    25ea:	0204                	addi	s1,sp,256
    25ec:	04090003          	lb	zero,64(s2)
    25f0:	0100                	addi	s0,sp,128
    25f2:	0200                	addi	s0,sp,256
    25f4:	0a04                	addi	s1,sp,272
    25f6:	00090003          	lb	zero,0(s2)
    25fa:	0100                	addi	s0,sp,128
    25fc:	0200                	addi	s0,sp,256
    25fe:	0c04                	addi	s1,sp,528
    2600:	08090003          	lb	zero,128(s2)
    2604:	0100                	addi	s0,sp,128
    2606:	0200                	addi	s0,sp,256
    2608:	0e04                	addi	s1,sp,784
    260a:	00090003          	lb	zero,0(s2)
    260e:	0100                	addi	s0,sp,128
    2610:	0200                	addi	s0,sp,256
    2612:	0e04                	addi	s1,sp,784
    2614:	00090003          	lb	zero,0(s2)
    2618:	0100                	addi	s0,sp,128
    261a:	0200                	addi	s0,sp,256
    261c:	0e04                	addi	s1,sp,784
    261e:	00090003          	lb	zero,0(s2)
    2622:	0100                	addi	s0,sp,128
    2624:	0200                	addi	s0,sp,256
    2626:	1304                	addi	s1,sp,416
    2628:	08090003          	lb	zero,128(s2)
    262c:	0100                	addi	s0,sp,128
    262e:	0200                	addi	s0,sp,256
    2630:	1604                	addi	s1,sp,800
    2632:	00090003          	lb	zero,0(s2)
    2636:	0100                	addi	s0,sp,128
    2638:	0200                	addi	s0,sp,256
    263a:	1604                	addi	s1,sp,800
    263c:	00090003          	lb	zero,0(s2)
    2640:	0100                	addi	s0,sp,128
    2642:	0200                	addi	s0,sp,256
    2644:	1604                	addi	s1,sp,800
    2646:	00090003          	lb	zero,0(s2)
    264a:	0100                	addi	s0,sp,128
    264c:	0200                	addi	s0,sp,256
    264e:	1904                	addi	s1,sp,176
    2650:	00090003          	lb	zero,0(s2)
    2654:	0100                	addi	s0,sp,128
    2656:	0200                	addi	s0,sp,256
    2658:	0d04                	addi	s1,sp,656
    265a:	02090003          	lb	zero,32(s2)
    265e:	0100                	addi	s0,sp,128
    2660:	0200                	addi	s0,sp,256
    2662:	0d04                	addi	s1,sp,656
    2664:	00090003          	lb	zero,0(s2)
    2668:	0100                	addi	s0,sp,128
    266a:	0306                	slli	t1,t1,0x1
    266c:	097f 0000 0001 0402 	.insn	10, 0x030d040200010000097f
    2674:	030d 
    2676:	0901                	addi	s2,s2,0
    2678:	0006                	c.slli	zero,0x1
    267a:	0001                	nop
    267c:	0402                	c.slli64	s0
    267e:	060d                	addi	a2,a2,3
    2680:	02090003          	lb	zero,32(s2)
    2684:	0100                	addi	s0,sp,128
    2686:	0200                	addi	s0,sp,256
    2688:	1b04                	addi	s1,sp,432
    268a:	0306                	slli	t1,t1,0x1
    268c:	0900                	addi	s0,sp,144
    268e:	0004                	.insn	2, 0x0004
    2690:	0001                	nop
    2692:	0402                	c.slli64	s0
    2694:	030d                	addi	t1,t1,3
    2696:	0900                	addi	s0,sp,144
    2698:	0004                	.insn	2, 0x0004
    269a:	0001                	nop
    269c:	0402                	c.slli64	s0
    269e:	0003061b          	sext.w	a2,t1
    26a2:	0409                	addi	s0,s0,2
    26a4:	0100                	addi	s0,sp,128
    26a6:	0200                	addi	s0,sp,256
    26a8:	1b04                	addi	s1,sp,432
    26aa:	00090003          	lb	zero,0(s2)
    26ae:	0100                	addi	s0,sp,128
    26b0:	0200                	addi	s0,sp,256
    26b2:	2404                	.insn	2, 0x2404
    26b4:	08090003          	lb	zero,128(s2)
    26b8:	0100                	addi	s0,sp,128
    26ba:	0200                	addi	s0,sp,256
    26bc:	2504                	.insn	2, 0x2504
    26be:	02090003          	lb	zero,32(s2)
    26c2:	0100                	addi	s0,sp,128
    26c4:	0200                	addi	s0,sp,256
    26c6:	1c04                	addi	s1,sp,560
    26c8:	06090003          	lb	zero,96(s2)
    26cc:	0100                	addi	s0,sp,128
    26ce:	0200                	addi	s0,sp,256
    26d0:	1c04                	addi	s1,sp,560
    26d2:	00090003          	lb	zero,0(s2)
    26d6:	0100                	addi	s0,sp,128
    26d8:	0200                	addi	s0,sp,256
    26da:	2304                	.insn	2, 0x2304
    26dc:	00090003          	lb	zero,0(s2)
    26e0:	0100                	addi	s0,sp,128
    26e2:	0200                	addi	s0,sp,256
    26e4:	2304                	.insn	2, 0x2304
    26e6:	00090003          	lb	zero,0(s2)
    26ea:	0100                	addi	s0,sp,128
    26ec:	0200                	addi	s0,sp,256
    26ee:	2304                	.insn	2, 0x2304
    26f0:	00090003          	lb	zero,0(s2)
    26f4:	0100                	addi	s0,sp,128
    26f6:	0200                	addi	s0,sp,256
    26f8:	0104                	addi	s1,sp,128
    26fa:	0306                	slli	t1,t1,0x1
    26fc:	0900                	addi	s0,sp,144
    26fe:	0010                	.insn	2, 0x0010
    2700:	0001                	nop
    2702:	0402                	c.slli64	s0
    2704:	00030633          	add	a2,t1,zero
    2708:	0209                	addi	tp,tp,2 # 2 <_tbss_end+0x2>
    270a:	0100                	addi	s0,sp,128
    270c:	00090103          	lb	sp,0(s2)
    2710:	0100                	addi	s0,sp,128
    2712:	00090003          	lb	zero,0(s2)
    2716:	0100                	addi	s0,sp,128
    2718:	00090003          	lb	zero,0(s2)
    271c:	0100                	addi	s0,sp,128
    271e:	00090203          	lb	tp,0(s2)
    2722:	0100                	addi	s0,sp,128
    2724:	0105                	addi	sp,sp,1
    2726:	0306                	slli	t1,t1,0x1
    2728:	0901                	addi	s2,s2,0
    272a:	0000                	unimp
    272c:	0901                	addi	s2,s2,0
    272e:	0002                	c.slli64	zero
    2730:	0100                	addi	s0,sp,128
    2732:	0301                	addi	t1,t1,0
    2734:	05000003          	lb	zero,80(zero) # 50 <_tbss_end+0x50>
    2738:	0800                	addi	s0,sp,16
    273a:	3800                	.insn	2, 0x3800
    273c:	0000                	unimp
    273e:	0100                	addi	s0,sp,128
    2740:	0101                	addi	sp,sp,0
    2742:	000d0efb          	.insn	4, 0x000d0efb
    2746:	0101                	addi	sp,sp,0
    2748:	0101                	addi	sp,sp,0
    274a:	0000                	unimp
    274c:	0100                	addi	s0,sp,128
    274e:	0000                	unimp
    2750:	0101                	addi	sp,sp,0
    2752:	1f01                	addi	t5,t5,-32
    2754:	2d02                	.insn	2, 0x2d02
    2756:	0000                	unimp
    2758:	9800                	.insn	2, 0x9800
    275a:	0000                	unimp
    275c:	0200                	addi	s0,sp,256
    275e:	1f01                	addi	t5,t5,-32
    2760:	0f02                	c.slli64	t5
    2762:	ec04                	sd	s1,24(s0)
    2764:	0001                	nop
    2766:	0100                	addi	s0,sp,128
    2768:	01ec                	addi	a1,sp,204
    276a:	0000                	unimp
    276c:	be01                	j	227c <_tbss_end+0x227c>
    276e:	0001                	nop
    2770:	0100                	addi	s0,sp,128
    2772:	0101                	addi	sp,sp,0
    2774:	0000                	unimp
    2776:	0501                	addi	a0,a0,0
    2778:	0001                	nop
    277a:	0209                	addi	tp,tp,2 # 2 <_tbss_end+0x2>
    277c:	38fc                	.insn	2, 0x38fc
    277e:	8000                	.insn	2, 0x8000
    2780:	0000                	unimp
    2782:	0000                	unimp
    2784:	05012103          	lw	sp,80(sp)
    2788:	09010303          	lb	t1,144(sp)
    278c:	0000                	unimp
    278e:	0301                	addi	t1,t1,0
    2790:	0900                	addi	s0,sp,144
    2792:	0000                	unimp
    2794:	0501                	addi	a0,a0,0
    2796:	030d                	addi	t1,t1,3
    2798:	0900                	addi	s0,sp,144
    279a:	0000                	unimp
    279c:	0501                	addi	a0,a0,0
    279e:	09010303          	lb	t1,144(sp)
    27a2:	0000                	unimp
    27a4:	0301                	addi	t1,t1,0
    27a6:	0900                	addi	s0,sp,144
    27a8:	0000                	unimp
    27aa:	0301                	addi	t1,t1,0
    27ac:	0900                	addi	s0,sp,144
    27ae:	0000                	unimp
    27b0:	0301                	addi	t1,t1,0
    27b2:	0900                	addi	s0,sp,144
    27b4:	0000                	unimp
    27b6:	0301                	addi	t1,t1,0
    27b8:	0901                	addi	s2,s2,0
    27ba:	0000                	unimp
    27bc:	0301                	addi	t1,t1,0
    27be:	0902                	c.slli64	s2
    27c0:	0000                	unimp
    27c2:	0301                	addi	t1,t1,0
    27c4:	0901                	addi	s2,s2,0
    27c6:	0000                	unimp
    27c8:	0301                	addi	t1,t1,0
    27ca:	0900                	addi	s0,sp,144
    27cc:	0000                	unimp
    27ce:	0501                	addi	a0,a0,0
    27d0:	0601                	addi	a2,a2,0
    27d2:	00097a03          	.insn	4, 0x00097a03
    27d6:	0100                	addi	s0,sp,128
    27d8:	0305                	addi	t1,t1,1
    27da:	0a090603          	lb	a2,160(s2)
    27de:	0100                	addi	s0,sp,128
    27e0:	0200                	addi	s0,sp,256
    27e2:	0104                	addi	s1,sp,128
    27e4:	0306                	slli	t1,t1,0x1
    27e6:	0900                	addi	s0,sp,144
    27e8:	0002                	c.slli64	zero
    27ea:	0001                	nop
    27ec:	0402                	c.slli64	s0
    27ee:	0301                	addi	t1,t1,0
    27f0:	0900                	addi	s0,sp,144
    27f2:	0004                	.insn	2, 0x0004
    27f4:	0001                	nop
    27f6:	0402                	c.slli64	s0
    27f8:	09000303          	lb	t1,144(zero) # 90 <_tbss_end+0x90>
    27fc:	0008                	.insn	2, 0x0008
    27fe:	0001                	nop
    2800:	0402                	c.slli64	s0
    2802:	0305                	addi	t1,t1,1
    2804:	0900                	addi	s0,sp,144
    2806:	0004                	.insn	2, 0x0004
    2808:	0001                	nop
    280a:	0402                	c.slli64	s0
    280c:	0305                	addi	t1,t1,1
    280e:	0900                	addi	s0,sp,144
    2810:	0000                	unimp
    2812:	0001                	nop
    2814:	0402                	c.slli64	s0
    2816:	0305                	addi	t1,t1,1
    2818:	0900                	addi	s0,sp,144
    281a:	0000                	unimp
    281c:	0001                	nop
    281e:	0402                	c.slli64	s0
    2820:	0305                	addi	t1,t1,1
    2822:	0900                	addi	s0,sp,144
    2824:	0000                	unimp
    2826:	0001                	nop
    2828:	0402                	c.slli64	s0
    282a:	0305                	addi	t1,t1,1
    282c:	0900                	addi	s0,sp,144
    282e:	0000                	unimp
    2830:	0001                	nop
    2832:	0402                	c.slli64	s0
    2834:	0305                	addi	t1,t1,1
    2836:	0900                	addi	s0,sp,144
    2838:	0000                	unimp
    283a:	0001                	nop
    283c:	0402                	c.slli64	s0
    283e:	09000307          	.insn	4, 0x09000307
    2842:	0000                	unimp
    2844:	0001                	nop
    2846:	0402                	c.slli64	s0
    2848:	0309                	addi	t1,t1,2
    284a:	0900                	addi	s0,sp,144
    284c:	0000                	unimp
    284e:	0001                	nop
    2850:	0402                	c.slli64	s0
    2852:	030c                	addi	a1,sp,384
    2854:	0900                	addi	s0,sp,144
    2856:	000c                	.insn	2, 0x000c
    2858:	0001                	nop
    285a:	0402                	c.slli64	s0
    285c:	030c                	addi	a1,sp,384
    285e:	0900                	addi	s0,sp,144
    2860:	0000                	unimp
    2862:	0001                	nop
    2864:	0402                	c.slli64	s0
    2866:	030c                	addi	a1,sp,384
    2868:	0900                	addi	s0,sp,144
    286a:	0006                	c.slli	zero,0x1
    286c:	0001                	nop
    286e:	0402                	c.slli64	s0
    2870:	030e                	slli	t1,t1,0x3
    2872:	0900                	addi	s0,sp,144
    2874:	0000                	unimp
    2876:	0001                	nop
    2878:	0402                	c.slli64	s0
    287a:	031c                	addi	a5,sp,384
    287c:	0900                	addi	s0,sp,144
    287e:	0008                	.insn	2, 0x0008
    2880:	0001                	nop
    2882:	0402                	c.slli64	s0
    2884:	031c                	addi	a5,sp,384
    2886:	0900                	addi	s0,sp,144
    2888:	0000                	unimp
    288a:	0001                	nop
    288c:	0402                	c.slli64	s0
    288e:	031e                	slli	t1,t1,0x7
    2890:	0900                	addi	s0,sp,144
    2892:	0004                	.insn	2, 0x0004
    2894:	0001                	nop
    2896:	0402                	c.slli64	s0
    2898:	031e                	slli	t1,t1,0x7
    289a:	0900                	addi	s0,sp,144
    289c:	0000                	unimp
    289e:	0001                	nop
    28a0:	0402                	c.slli64	s0
    28a2:	09000323          	sb	a6,134(zero) # 86 <_tbss_end+0x86>
    28a6:	0000                	unimp
    28a8:	0001                	nop
    28aa:	018c0403          	lb	s0,24(s8)
    28ae:	08090003          	lb	zero,128(s2)
    28b2:	0100                	addi	s0,sp,128
    28b4:	00090103          	lb	sp,0(s2)
    28b8:	0100                	addi	s0,sp,128
    28ba:	00090003          	lb	zero,0(s2)
    28be:	0100                	addi	s0,sp,128
    28c0:	00090003          	lb	zero,0(s2)
    28c4:	0100                	addi	s0,sp,128
    28c6:	00090003          	lb	zero,0(s2)
    28ca:	0100                	addi	s0,sp,128
    28cc:	00090003          	lb	zero,0(s2)
    28d0:	0100                	addi	s0,sp,128
    28d2:	0e090003          	lb	zero,224(s2)
    28d6:	0100                	addi	s0,sp,128
    28d8:	00090003          	lb	zero,0(s2)
    28dc:	0100                	addi	s0,sp,128
    28de:	00090103          	lb	sp,0(s2)
    28e2:	0100                	addi	s0,sp,128
    28e4:	00090003          	lb	zero,0(s2)
    28e8:	0100                	addi	s0,sp,128
    28ea:	00090003          	lb	zero,0(s2)
    28ee:	0100                	addi	s0,sp,128
    28f0:	00090203          	lb	tp,0(s2)
    28f4:	0100                	addi	s0,sp,128
    28f6:	0105                	addi	sp,sp,1
    28f8:	0306                	slli	t1,t1,0x1
    28fa:	0901                	addi	s2,s2,0
    28fc:	0000                	unimp
    28fe:	0501                	addi	a0,a0,0
    2900:	04020003          	lb	zero,64(tp) # 40 <_tbss_end+0x40>
    2904:	061d                	addi	a2,a2,7
    2906:	0e097b03          	.insn	4, 0x0e097b03
    290a:	0100                	addi	s0,sp,128
    290c:	0200                	addi	s0,sp,256
    290e:	2604                	.insn	2, 0x2604
    2910:	08090003          	lb	zero,128(s2)
    2914:	0100                	addi	s0,sp,128
    2916:	0200                	addi	s0,sp,256
    2918:	2804                	.insn	2, 0x2804
    291a:	1c090003          	lb	zero,448(s2)
    291e:	0100                	addi	s0,sp,128
    2920:	0200                	addi	s0,sp,256
    2922:	2804                	.insn	2, 0x2804
    2924:	08090003          	lb	zero,128(s2)
    2928:	0100                	addi	s0,sp,128
    292a:	0200                	addi	s0,sp,256
    292c:	2904                	.insn	2, 0x2904
    292e:	04090003          	lb	zero,64(s2)
    2932:	0100                	addi	s0,sp,128
    2934:	0200                	addi	s0,sp,256
    2936:	2904                	.insn	2, 0x2904
    2938:	00090003          	lb	zero,0(s2)
    293c:	0100                	addi	s0,sp,128
    293e:	0200                	addi	s0,sp,256
    2940:	2e04                	.insn	2, 0x2e04
    2942:	00090003          	lb	zero,0(s2)
    2946:	0100                	addi	s0,sp,128
    2948:	0200                	addi	s0,sp,256
    294a:	3004                	.insn	2, 0x3004
    294c:	08090003          	lb	zero,128(s2)
    2950:	0100                	addi	s0,sp,128
    2952:	0200                	addi	s0,sp,256
    2954:	3004                	.insn	2, 0x3004
    2956:	00090003          	lb	zero,0(s2)
    295a:	0100                	addi	s0,sp,128
    295c:	0200                	addi	s0,sp,256
    295e:	5504                	lw	s1,40(a0)
    2960:	0306                	slli	t1,t1,0x1
    2962:	0900                	addi	s0,sp,144
    2964:	0006                	c.slli	zero,0x1
    2966:	0001                	nop
    2968:	0402                	c.slli64	s0
    296a:	0330                	addi	a2,sp,392
    296c:	0900                	addi	s0,sp,144
    296e:	0004                	.insn	2, 0x0004
    2970:	0001                	nop
    2972:	0402                	c.slli64	s0
    2974:	0631                	addi	a2,a2,12
    2976:	02090003          	lb	zero,32(s2)
    297a:	0100                	addi	s0,sp,128
    297c:	0200                	addi	s0,sp,256
    297e:	3104                	.insn	2, 0x3104
    2980:	00090003          	lb	zero,0(s2)
    2984:	0100                	addi	s0,sp,128
    2986:	0200                	addi	s0,sp,256
    2988:	5504                	lw	s1,40(a0)
    298a:	00090003          	lb	zero,0(s2)
    298e:	0100                	addi	s0,sp,128
    2990:	0200                	addi	s0,sp,256
    2992:	5504                	lw	s1,40(a0)
    2994:	00090003          	lb	zero,0(s2)
    2998:	0100                	addi	s0,sp,128
    299a:	0200                	addi	s0,sp,256
    299c:	5604                	lw	s1,40(a2)
    299e:	02090003          	lb	zero,32(s2)
    29a2:	0100                	addi	s0,sp,128
    29a4:	0200                	addi	s0,sp,256
    29a6:	5604                	lw	s1,40(a2)
    29a8:	00090003          	lb	zero,0(s2)
    29ac:	0100                	addi	s0,sp,128
    29ae:	0200                	addi	s0,sp,256
    29b0:	5904                	lw	s1,48(a0)
    29b2:	00090003          	lb	zero,0(s2)
    29b6:	0100                	addi	s0,sp,128
    29b8:	0200                	addi	s0,sp,256
    29ba:	5904                	lw	s1,48(a0)
    29bc:	00090003          	lb	zero,0(s2)
    29c0:	0100                	addi	s0,sp,128
    29c2:	0200                	addi	s0,sp,256
    29c4:	5d04                	lw	s1,56(a0)
    29c6:	08090003          	lb	zero,128(s2)
    29ca:	0100                	addi	s0,sp,128
    29cc:	0200                	addi	s0,sp,256
    29ce:	6004                	ld	s1,0(s0)
    29d0:	02090003          	lb	zero,32(s2)
    29d4:	0100                	addi	s0,sp,128
    29d6:	0200                	addi	s0,sp,256
    29d8:	6004                	ld	s1,0(s0)
    29da:	00090003          	lb	zero,0(s2)
    29de:	0100                	addi	s0,sp,128
    29e0:	0200                	addi	s0,sp,256
    29e2:	6f04                	ld	s1,24(a4)
    29e4:	00090003          	lb	zero,0(s2)
    29e8:	0100                	addi	s0,sp,128
    29ea:	0200                	addi	s0,sp,256
    29ec:	7004                	ld	s1,32(s0)
    29ee:	08090003          	lb	zero,128(s2)
    29f2:	0100                	addi	s0,sp,128
    29f4:	0200                	addi	s0,sp,256
    29f6:	7004                	ld	s1,32(s0)
    29f8:	08090003          	lb	zero,128(s2)
    29fc:	0100                	addi	s0,sp,128
    29fe:	0200                	addi	s0,sp,256
    2a00:	7004                	ld	s1,32(s0)
    2a02:	02090003          	lb	zero,32(s2)
    2a06:	0100                	addi	s0,sp,128
    2a08:	0300                	addi	s0,sp,384
    2a0a:	8004                	.insn	2, 0x8004
    2a0c:	0301                	addi	t1,t1,0
    2a0e:	0900                	addi	s0,sp,144
    2a10:	0000                	unimp
    2a12:	0001                	nop
    2a14:	01800403          	lb	s0,24(zero) # 18 <_tbss_end+0x18>
    2a18:	00090003          	lb	zero,0(s2)
    2a1c:	0100                	addi	s0,sp,128
    2a1e:	0300                	addi	s0,sp,384
    2a20:	8004                	.insn	2, 0x8004
    2a22:	0301                	addi	t1,t1,0
    2a24:	0900                	addi	s0,sp,144
    2a26:	0002                	c.slli64	zero
    2a28:	0001                	nop
    2a2a:	0402                	c.slli64	s0
    2a2c:	0602                	c.slli64	a2
    2a2e:	02090003          	lb	zero,32(s2)
    2a32:	0100                	addi	s0,sp,128
    2a34:	0809                	addi	a6,a6,2
    2a36:	0000                	unimp
    2a38:	0101                	addi	sp,sp,0
    2a3a:	00000303          	lb	t1,0(zero) # 0 <_tbss_end>
    2a3e:	0005                	c.nop	1
    2a40:	0008                	.insn	2, 0x0008
    2a42:	0038                	addi	a4,sp,8
    2a44:	0000                	unimp
    2a46:	0101                	addi	sp,sp,0
    2a48:	fb01                	bnez	a4,2958 <_tbss_end+0x2958>
    2a4a:	0d0e                	slli	s10,s10,0x3
    2a4c:	0100                	addi	s0,sp,128
    2a4e:	0101                	addi	sp,sp,0
    2a50:	0001                	nop
    2a52:	0000                	unimp
    2a54:	0001                	nop
    2a56:	0100                	addi	s0,sp,128
    2a58:	0101                	addi	sp,sp,0
    2a5a:	021f 002d 0000      	.insn	6, 0x002d021f
    2a60:	0098                	addi	a4,sp,64
    2a62:	0000                	unimp
    2a64:	0102                	c.slli64	sp
    2a66:	021f 040f 021c      	.insn	6, 0x021c040f021f
    2a6c:	0000                	unimp
    2a6e:	1c01                	addi	s8,s8,-32
    2a70:	0002                	c.slli64	zero
    2a72:	0100                	addi	s0,sp,128
    2a74:	01be                	slli	gp,gp,0xf
    2a76:	0000                	unimp
    2a78:	0101                	addi	sp,sp,0
    2a7a:	0001                	nop
    2a7c:	0100                	addi	s0,sp,128
    2a7e:	0105                	addi	sp,sp,1
    2a80:	0900                	addi	s0,sp,144
    2a82:	c802                	sw	zero,16(sp)
    2a84:	0039                	c.nop	14
    2a86:	0080                	addi	s0,sp,64
    2a88:	0000                	unimp
    2a8a:	0300                	addi	s0,sp,384
    2a8c:	0121                	addi	sp,sp,8
    2a8e:	0305                	addi	t1,t1,1
    2a90:	00090103          	lb	sp,0(s2)
    2a94:	0100                	addi	s0,sp,128
    2a96:	00090003          	lb	zero,0(s2)
    2a9a:	0100                	addi	s0,sp,128
    2a9c:	0d05                	addi	s10,s10,1
    2a9e:	00090003          	lb	zero,0(s2)
    2aa2:	0100                	addi	s0,sp,128
    2aa4:	0305                	addi	t1,t1,1
    2aa6:	00090103          	lb	sp,0(s2)
    2aaa:	0100                	addi	s0,sp,128
    2aac:	00090003          	lb	zero,0(s2)
    2ab0:	0100                	addi	s0,sp,128
    2ab2:	00090003          	lb	zero,0(s2)
    2ab6:	0100                	addi	s0,sp,128
    2ab8:	00090003          	lb	zero,0(s2)
    2abc:	0100                	addi	s0,sp,128
    2abe:	00090103          	lb	sp,0(s2)
    2ac2:	0100                	addi	s0,sp,128
    2ac4:	00090203          	lb	tp,0(s2)
    2ac8:	0100                	addi	s0,sp,128
    2aca:	00090103          	lb	sp,0(s2)
    2ace:	0100                	addi	s0,sp,128
    2ad0:	00090003          	lb	zero,0(s2)
    2ad4:	0100                	addi	s0,sp,128
    2ad6:	0105                	addi	sp,sp,1
    2ad8:	0306                	slli	t1,t1,0x1
    2ada:	097a                	slli	s2,s2,0x1e
    2adc:	0000                	unimp
    2ade:	0501                	addi	a0,a0,0
    2ae0:	09060303          	lb	t1,144(a2)
    2ae4:	0008                	.insn	2, 0x0008
    2ae6:	0001                	nop
    2ae8:	0402                	c.slli64	s0
    2aea:	0309                	addi	t1,t1,2
    2aec:	0900                	addi	s0,sp,144
    2aee:	0002                	c.slli64	zero
    2af0:	0001                	nop
    2af2:	0402                	c.slli64	s0
    2af4:	0601                	addi	a2,a2,0
    2af6:	08090003          	lb	zero,128(s2)
    2afa:	0100                	addi	s0,sp,128
    2afc:	0200                	addi	s0,sp,256
    2afe:	0104                	addi	s1,sp,128
    2b00:	00090003          	lb	zero,0(s2)
    2b04:	0100                	addi	s0,sp,128
    2b06:	0200                	addi	s0,sp,256
    2b08:	0504                	addi	s1,sp,640
    2b0a:	00090003          	lb	zero,0(s2)
    2b0e:	0100                	addi	s0,sp,128
    2b10:	0200                	addi	s0,sp,256
    2b12:	0504                	addi	s1,sp,640
    2b14:	00090003          	lb	zero,0(s2)
    2b18:	0100                	addi	s0,sp,128
    2b1a:	0200                	addi	s0,sp,256
    2b1c:	0504                	addi	s1,sp,640
    2b1e:	00090003          	lb	zero,0(s2)
    2b22:	0100                	addi	s0,sp,128
    2b24:	0200                	addi	s0,sp,256
    2b26:	0504                	addi	s1,sp,640
    2b28:	00090003          	lb	zero,0(s2)
    2b2c:	0100                	addi	s0,sp,128
    2b2e:	0200                	addi	s0,sp,256
    2b30:	0504                	addi	s1,sp,640
    2b32:	00090003          	lb	zero,0(s2)
    2b36:	0100                	addi	s0,sp,128
    2b38:	0200                	addi	s0,sp,256
    2b3a:	0504                	addi	s1,sp,640
    2b3c:	00090003          	lb	zero,0(s2)
    2b40:	0100                	addi	s0,sp,128
    2b42:	0200                	addi	s0,sp,256
    2b44:	0704                	addi	s1,sp,896
    2b46:	00090003          	lb	zero,0(s2)
    2b4a:	0100                	addi	s0,sp,128
    2b4c:	0200                	addi	s0,sp,256
    2b4e:	0904                	addi	s1,sp,144
    2b50:	00090003          	lb	zero,0(s2)
    2b54:	0100                	addi	s0,sp,128
    2b56:	0200                	addi	s0,sp,256
    2b58:	0c04                	addi	s1,sp,528
    2b5a:	06090003          	lb	zero,96(s2)
    2b5e:	0100                	addi	s0,sp,128
    2b60:	0200                	addi	s0,sp,256
    2b62:	0c04                	addi	s1,sp,528
    2b64:	00090003          	lb	zero,0(s2)
    2b68:	0100                	addi	s0,sp,128
    2b6a:	0200                	addi	s0,sp,256
    2b6c:	0c04                	addi	s1,sp,528
    2b6e:	06090003          	lb	zero,96(s2)
    2b72:	0100                	addi	s0,sp,128
    2b74:	0200                	addi	s0,sp,256
    2b76:	0e04                	addi	s1,sp,784
    2b78:	00090003          	lb	zero,0(s2)
    2b7c:	0100                	addi	s0,sp,128
    2b7e:	0200                	addi	s0,sp,256
    2b80:	1c04                	addi	s1,sp,560
    2b82:	08090003          	lb	zero,128(s2)
    2b86:	0100                	addi	s0,sp,128
    2b88:	0200                	addi	s0,sp,256
    2b8a:	1c04                	addi	s1,sp,560
    2b8c:	00090003          	lb	zero,0(s2)
    2b90:	0100                	addi	s0,sp,128
    2b92:	0200                	addi	s0,sp,256
    2b94:	1e04                	addi	s1,sp,816
    2b96:	04090003          	lb	zero,64(s2)
    2b9a:	0100                	addi	s0,sp,128
    2b9c:	0200                	addi	s0,sp,256
    2b9e:	1e04                	addi	s1,sp,816
    2ba0:	00090003          	lb	zero,0(s2)
    2ba4:	0100                	addi	s0,sp,128
    2ba6:	0200                	addi	s0,sp,256
    2ba8:	2304                	.insn	2, 0x2304
    2baa:	00090003          	lb	zero,0(s2)
    2bae:	0100                	addi	s0,sp,128
    2bb0:	0300                	addi	s0,sp,384
    2bb2:	8c04                	.insn	2, 0x8c04
    2bb4:	0301                	addi	t1,t1,0
    2bb6:	0900                	addi	s0,sp,144
    2bb8:	0008                	.insn	2, 0x0008
    2bba:	0301                	addi	t1,t1,0
    2bbc:	0901                	addi	s2,s2,0
    2bbe:	0000                	unimp
    2bc0:	0301                	addi	t1,t1,0
    2bc2:	0900                	addi	s0,sp,144
    2bc4:	0000                	unimp
    2bc6:	0301                	addi	t1,t1,0
    2bc8:	0900                	addi	s0,sp,144
    2bca:	0000                	unimp
    2bcc:	0301                	addi	t1,t1,0
    2bce:	0900                	addi	s0,sp,144
    2bd0:	0000                	unimp
    2bd2:	0301                	addi	t1,t1,0
    2bd4:	0900                	addi	s0,sp,144
    2bd6:	0000                	unimp
    2bd8:	0301                	addi	t1,t1,0
    2bda:	0900                	addi	s0,sp,144
    2bdc:	0008                	.insn	2, 0x0008
    2bde:	0301                	addi	t1,t1,0
    2be0:	0900                	addi	s0,sp,144
    2be2:	0000                	unimp
    2be4:	0301                	addi	t1,t1,0
    2be6:	0901                	addi	s2,s2,0
    2be8:	0000                	unimp
    2bea:	0301                	addi	t1,t1,0
    2bec:	0900                	addi	s0,sp,144
    2bee:	0000                	unimp
    2bf0:	0301                	addi	t1,t1,0
    2bf2:	0900                	addi	s0,sp,144
    2bf4:	0000                	unimp
    2bf6:	0301                	addi	t1,t1,0
    2bf8:	0902                	c.slli64	s2
    2bfa:	0000                	unimp
    2bfc:	0501                	addi	a0,a0,0
    2bfe:	0601                	addi	a2,a2,0
    2c00:	00090103          	lb	sp,0(s2)
    2c04:	0100                	addi	s0,sp,128
    2c06:	0305                	addi	t1,t1,1
    2c08:	0200                	addi	s0,sp,256
    2c0a:	1d04                	addi	s1,sp,688
    2c0c:	0306                	slli	t1,t1,0x1
    2c0e:	000c097b          	.insn	4, 0x000c097b
    2c12:	0001                	nop
    2c14:	0402                	c.slli64	s0
    2c16:	0326                	slli	t1,t1,0x9
    2c18:	0900                	addi	s0,sp,144
    2c1a:	0008                	.insn	2, 0x0008
    2c1c:	0001                	nop
    2c1e:	0402                	c.slli64	s0
    2c20:	0328                	addi	a0,sp,392
    2c22:	0900                	addi	s0,sp,144
    2c24:	001c                	.insn	2, 0x001c
    2c26:	0001                	nop
    2c28:	0402                	c.slli64	s0
    2c2a:	0328                	addi	a0,sp,392
    2c2c:	0900                	addi	s0,sp,144
    2c2e:	0008                	.insn	2, 0x0008
    2c30:	0001                	nop
    2c32:	0402                	c.slli64	s0
    2c34:	0329                	addi	t1,t1,10
    2c36:	0900                	addi	s0,sp,144
    2c38:	0004                	.insn	2, 0x0004
    2c3a:	0001                	nop
    2c3c:	0402                	c.slli64	s0
    2c3e:	0329                	addi	t1,t1,10
    2c40:	0900                	addi	s0,sp,144
    2c42:	0000                	unimp
    2c44:	0001                	nop
    2c46:	0402                	c.slli64	s0
    2c48:	032e                	slli	t1,t1,0xb
    2c4a:	0900                	addi	s0,sp,144
    2c4c:	0000                	unimp
    2c4e:	0001                	nop
    2c50:	0402                	c.slli64	s0
    2c52:	0330                	addi	a2,sp,392
    2c54:	0900                	addi	s0,sp,144
    2c56:	0008                	.insn	2, 0x0008
    2c58:	0001                	nop
    2c5a:	0402                	c.slli64	s0
    2c5c:	0330                	addi	a2,sp,392
    2c5e:	0900                	addi	s0,sp,144
    2c60:	0000                	unimp
    2c62:	0001                	nop
    2c64:	0402                	c.slli64	s0
    2c66:	0655                	addi	a2,a2,21
    2c68:	06090003          	lb	zero,96(s2)
    2c6c:	0100                	addi	s0,sp,128
    2c6e:	0200                	addi	s0,sp,256
    2c70:	3004                	.insn	2, 0x3004
    2c72:	04090003          	lb	zero,64(s2)
    2c76:	0100                	addi	s0,sp,128
    2c78:	0200                	addi	s0,sp,256
    2c7a:	3104                	.insn	2, 0x3104
    2c7c:	0306                	slli	t1,t1,0x1
    2c7e:	0900                	addi	s0,sp,144
    2c80:	0002                	c.slli64	zero
    2c82:	0001                	nop
    2c84:	0402                	c.slli64	s0
    2c86:	0331                	addi	t1,t1,12
    2c88:	0900                	addi	s0,sp,144
    2c8a:	0000                	unimp
    2c8c:	0001                	nop
    2c8e:	0402                	c.slli64	s0
    2c90:	0355                	addi	t1,t1,21
    2c92:	0900                	addi	s0,sp,144
    2c94:	0000                	unimp
    2c96:	0001                	nop
    2c98:	0402                	c.slli64	s0
    2c9a:	0355                	addi	t1,t1,21
    2c9c:	0900                	addi	s0,sp,144
    2c9e:	0000                	unimp
    2ca0:	0001                	nop
    2ca2:	0402                	c.slli64	s0
    2ca4:	0356                	slli	t1,t1,0x15
    2ca6:	0900                	addi	s0,sp,144
    2ca8:	0002                	c.slli64	zero
    2caa:	0001                	nop
    2cac:	0402                	c.slli64	s0
    2cae:	0356                	slli	t1,t1,0x15
    2cb0:	0900                	addi	s0,sp,144
    2cb2:	0000                	unimp
    2cb4:	0001                	nop
    2cb6:	0402                	c.slli64	s0
    2cb8:	0359                	addi	t1,t1,22
    2cba:	0900                	addi	s0,sp,144
    2cbc:	0000                	unimp
    2cbe:	0001                	nop
    2cc0:	0402                	c.slli64	s0
    2cc2:	0359                	addi	t1,t1,22
    2cc4:	0900                	addi	s0,sp,144
    2cc6:	0000                	unimp
    2cc8:	0001                	nop
    2cca:	0402                	c.slli64	s0
    2ccc:	035d                	addi	t1,t1,23
    2cce:	0900                	addi	s0,sp,144
    2cd0:	0008                	.insn	2, 0x0008
    2cd2:	0001                	nop
    2cd4:	0402                	c.slli64	s0
    2cd6:	0360                	addi	s0,sp,396
    2cd8:	0900                	addi	s0,sp,144
    2cda:	0002                	c.slli64	zero
    2cdc:	0001                	nop
    2cde:	0402                	c.slli64	s0
    2ce0:	0360                	addi	s0,sp,396
    2ce2:	0900                	addi	s0,sp,144
    2ce4:	0000                	unimp
    2ce6:	0001                	nop
    2ce8:	0402                	c.slli64	s0
    2cea:	0900036f          	jal	t1,2d7a <_tbss_end+0x2d7a>
    2cee:	0000                	unimp
    2cf0:	0001                	nop
    2cf2:	0402                	c.slli64	s0
    2cf4:	0370                	addi	a2,sp,396
    2cf6:	0900                	addi	s0,sp,144
    2cf8:	0008                	.insn	2, 0x0008
    2cfa:	0001                	nop
    2cfc:	0402                	c.slli64	s0
    2cfe:	0370                	addi	a2,sp,396
    2d00:	0900                	addi	s0,sp,144
    2d02:	0008                	.insn	2, 0x0008
    2d04:	0001                	nop
    2d06:	0402                	c.slli64	s0
    2d08:	0370                	addi	a2,sp,396
    2d0a:	0900                	addi	s0,sp,144
    2d0c:	0002                	c.slli64	zero
    2d0e:	0001                	nop
    2d10:	01800403          	lb	s0,24(zero) # 18 <_tbss_end+0x18>
    2d14:	00090003          	lb	zero,0(s2)
    2d18:	0100                	addi	s0,sp,128
    2d1a:	0300                	addi	s0,sp,384
    2d1c:	8004                	.insn	2, 0x8004
    2d1e:	0301                	addi	t1,t1,0
    2d20:	0900                	addi	s0,sp,144
    2d22:	0000                	unimp
    2d24:	0001                	nop
    2d26:	01800403          	lb	s0,24(zero) # 18 <_tbss_end+0x18>
    2d2a:	02090003          	lb	zero,32(s2)
    2d2e:	0100                	addi	s0,sp,128
    2d30:	0200                	addi	s0,sp,256
    2d32:	0204                	addi	s1,sp,256
    2d34:	0306                	slli	t1,t1,0x1
    2d36:	0900                	addi	s0,sp,144
    2d38:	0002                	c.slli64	zero
    2d3a:	0901                	addi	s2,s2,0
    2d3c:	0006                	c.slli	zero,0x1
    2d3e:	0100                	addi	s0,sp,128
    2d40:	4e01                	li	t3,0
    2d42:	05000003          	lb	zero,80(zero) # 50 <_tbss_end+0x50>
    2d46:	0800                	addi	s0,sp,16
    2d48:	3800                	.insn	2, 0x3800
    2d4a:	0000                	unimp
    2d4c:	0100                	addi	s0,sp,128
    2d4e:	0101                	addi	sp,sp,0
    2d50:	000d0efb          	.insn	4, 0x000d0efb
    2d54:	0101                	addi	sp,sp,0
    2d56:	0101                	addi	sp,sp,0
    2d58:	0000                	unimp
    2d5a:	0100                	addi	s0,sp,128
    2d5c:	0000                	unimp
    2d5e:	0101                	addi	sp,sp,0
    2d60:	1f01                	addi	t5,t5,-32
    2d62:	2d02                	.insn	2, 0x2d02
    2d64:	0000                	unimp
    2d66:	9800                	.insn	2, 0x9800
    2d68:	0000                	unimp
    2d6a:	0200                	addi	s0,sp,256
    2d6c:	1f01                	addi	t5,t5,-32
    2d6e:	0f02                	c.slli64	t5
    2d70:	4e04                	lw	s1,24(a2)
    2d72:	0002                	c.slli64	zero
    2d74:	0100                	addi	s0,sp,128
    2d76:	024e                	slli	tp,tp,0x13
    2d78:	0000                	unimp
    2d7a:	0101                	addi	sp,sp,0
    2d7c:	0001                	nop
    2d7e:	0100                	addi	s0,sp,128
    2d80:	00bc                	addi	a5,sp,72
    2d82:	0000                	unimp
    2d84:	0501                	addi	a0,a0,0
    2d86:	0001                	nop
    2d88:	0209                	addi	tp,tp,2 # 2 <_tbss_end+0x2>
    2d8a:	3a7a                	.insn	2, 0x3a7a
    2d8c:	8000                	.insn	2, 0x8000
    2d8e:	0000                	unimp
    2d90:	0000                	unimp
    2d92:	05012303          	lw	t1,80(sp)
    2d96:	09010303          	lb	t1,144(sp)
    2d9a:	0000                	unimp
    2d9c:	0301                	addi	t1,t1,0
    2d9e:	0900                	addi	s0,sp,144
    2da0:	0000                	unimp
    2da2:	0501                	addi	a0,a0,0
    2da4:	030d                	addi	t1,t1,3
    2da6:	0900                	addi	s0,sp,144
    2da8:	0000                	unimp
    2daa:	0501                	addi	a0,a0,0
    2dac:	09010303          	lb	t1,144(sp)
    2db0:	0000                	unimp
    2db2:	0301                	addi	t1,t1,0
    2db4:	0900                	addi	s0,sp,144
    2db6:	0000                	unimp
    2db8:	0301                	addi	t1,t1,0
    2dba:	0900                	addi	s0,sp,144
    2dbc:	0000                	unimp
    2dbe:	0301                	addi	t1,t1,0
    2dc0:	0900                	addi	s0,sp,144
    2dc2:	0000                	unimp
    2dc4:	0301                	addi	t1,t1,0
    2dc6:	0901                	addi	s2,s2,0
    2dc8:	0000                	unimp
    2dca:	0301                	addi	t1,t1,0
    2dcc:	0900                	addi	s0,sp,144
    2dce:	0000                	unimp
    2dd0:	0301                	addi	t1,t1,0
    2dd2:	0900                	addi	s0,sp,144
    2dd4:	0000                	unimp
    2dd6:	0301                	addi	t1,t1,0
    2dd8:	0900                	addi	s0,sp,144
    2dda:	0000                	unimp
    2ddc:	0301                	addi	t1,t1,0
    2dde:	0901                	addi	s2,s2,0
    2de0:	0000                	unimp
    2de2:	0301                	addi	t1,t1,0
    2de4:	0902                	c.slli64	s2
    2de6:	0000                	unimp
    2de8:	0301                	addi	t1,t1,0
    2dea:	0901                	addi	s2,s2,0
    2dec:	0000                	unimp
    2dee:	0301                	addi	t1,t1,0
    2df0:	0900                	addi	s0,sp,144
    2df2:	0000                	unimp
    2df4:	0301                	addi	t1,t1,0
    2df6:	0900                	addi	s0,sp,144
    2df8:	0000                	unimp
    2dfa:	0301                	addi	t1,t1,0
    2dfc:	0900                	addi	s0,sp,144
    2dfe:	0000                	unimp
    2e00:	0501                	addi	a0,a0,0
    2e02:	0601                	addi	a2,a2,0
    2e04:	08097903          	.insn	4, 0x08097903
    2e08:	0100                	addi	s0,sp,128
    2e0a:	0305                	addi	t1,t1,1
    2e0c:	02090b03          	lb	s6,32(s2)
    2e10:	0100                	addi	s0,sp,128
    2e12:	0105                	addi	sp,sp,1
    2e14:	04097503          	.insn	4, 0x04097503
    2e18:	0100                	addi	s0,sp,128
    2e1a:	0305                	addi	t1,t1,1
    2e1c:	04090703          	lb	a4,64(s2)
    2e20:	0100                	addi	s0,sp,128
    2e22:	0105                	addi	sp,sp,1
    2e24:	04097903          	.insn	4, 0x04097903
    2e28:	0100                	addi	s0,sp,128
    2e2a:	0305                	addi	t1,t1,1
    2e2c:	02090b03          	lb	s6,32(s2)
    2e30:	0100                	addi	s0,sp,128
    2e32:	04097c03          	.insn	4, 0x04097c03
    2e36:	0100                	addi	s0,sp,128
    2e38:	0306                	slli	t1,t1,0x1
    2e3a:	0900                	addi	s0,sp,144
    2e3c:	0002                	c.slli64	zero
    2e3e:	0301                	addi	t1,t1,0
    2e40:	0900                	addi	s0,sp,144
    2e42:	0000                	unimp
    2e44:	0301                	addi	t1,t1,0
    2e46:	0900                	addi	s0,sp,144
    2e48:	0004                	.insn	2, 0x0004
    2e4a:	0301                	addi	t1,t1,0
    2e4c:	0904                	addi	s1,sp,144
    2e4e:	0000                	unimp
    2e50:	0301                	addi	t1,t1,0
    2e52:	0900                	addi	s0,sp,144
    2e54:	0000                	unimp
    2e56:	0301                	addi	t1,t1,0
    2e58:	0900                	addi	s0,sp,144
    2e5a:	0000                	unimp
    2e5c:	0301                	addi	t1,t1,0
    2e5e:	0900                	addi	s0,sp,144
    2e60:	0000                	unimp
    2e62:	0301                	addi	t1,t1,0
    2e64:	0900                	addi	s0,sp,144
    2e66:	0000                	unimp
    2e68:	0301                	addi	t1,t1,0
    2e6a:	0900                	addi	s0,sp,144
    2e6c:	0000                	unimp
    2e6e:	0301                	addi	t1,t1,0
    2e70:	0900                	addi	s0,sp,144
    2e72:	0000                	unimp
    2e74:	0001                	nop
    2e76:	0402                	c.slli64	s0
    2e78:	0301                	addi	t1,t1,0
    2e7a:	0900                	addi	s0,sp,144
    2e7c:	0002                	c.slli64	zero
    2e7e:	0001                	nop
    2e80:	0402                	c.slli64	s0
    2e82:	0301                	addi	t1,t1,0
    2e84:	0900                	addi	s0,sp,144
    2e86:	0004                	.insn	2, 0x0004
    2e88:	0001                	nop
    2e8a:	0402                	c.slli64	s0
    2e8c:	0301                	addi	t1,t1,0
    2e8e:	0900                	addi	s0,sp,144
    2e90:	0000                	unimp
    2e92:	0001                	nop
    2e94:	0402                	c.slli64	s0
    2e96:	0304                	addi	s1,sp,384
    2e98:	0900                	addi	s0,sp,144
    2e9a:	0000                	unimp
    2e9c:	0001                	nop
    2e9e:	0402                	c.slli64	s0
    2ea0:	0306                	slli	t1,t1,0x1
    2ea2:	0900                	addi	s0,sp,144
    2ea4:	0002                	c.slli64	zero
    2ea6:	0001                	nop
    2ea8:	0402                	c.slli64	s0
    2eaa:	0330                	addi	a2,sp,392
    2eac:	0900                	addi	s0,sp,144
    2eae:	0000                	unimp
    2eb0:	0001                	nop
    2eb2:	0402                	c.slli64	s0
    2eb4:	0330                	addi	a2,sp,392
    2eb6:	0900                	addi	s0,sp,144
    2eb8:	0000                	unimp
    2eba:	0301                	addi	t1,t1,0
    2ebc:	0902                	c.slli64	s2
    2ebe:	0000                	unimp
    2ec0:	0301                	addi	t1,t1,0
    2ec2:	0900                	addi	s0,sp,144
    2ec4:	0000                	unimp
    2ec6:	0301                	addi	t1,t1,0
    2ec8:	0900                	addi	s0,sp,144
    2eca:	0000                	unimp
    2ecc:	0301                	addi	t1,t1,0
    2ece:	0900                	addi	s0,sp,144
    2ed0:	0000                	unimp
    2ed2:	0301                	addi	t1,t1,0
    2ed4:	0900                	addi	s0,sp,144
    2ed6:	0000                	unimp
    2ed8:	0501                	addi	a0,a0,0
    2eda:	0601                	addi	a2,a2,0
    2edc:	06090403          	lb	s0,96(s2)
    2ee0:	0100                	addi	s0,sp,128
    2ee2:	0305                	addi	t1,t1,1
    2ee4:	02097c03          	.insn	4, 0x02097c03
    2ee8:	0100                	addi	s0,sp,128
    2eea:	0105                	addi	sp,sp,1
    2eec:	02090403          	lb	s0,32(s2)
    2ef0:	0100                	addi	s0,sp,128
    2ef2:	0305                	addi	t1,t1,1
    2ef4:	02097c03          	.insn	4, 0x02097c03
    2ef8:	0100                	addi	s0,sp,128
    2efa:	0306                	slli	t1,t1,0x1
    2efc:	0900                	addi	s0,sp,144
    2efe:	0004                	.insn	2, 0x0004
    2f00:	0301                	addi	t1,t1,0
    2f02:	0900                	addi	s0,sp,144
    2f04:	0000                	unimp
    2f06:	0301                	addi	t1,t1,0
    2f08:	0901                	addi	s2,s2,0
    2f0a:	0000                	unimp
    2f0c:	0301                	addi	t1,t1,0
    2f0e:	0900                	addi	s0,sp,144
    2f10:	0000                	unimp
    2f12:	0301                	addi	t1,t1,0
    2f14:	0900                	addi	s0,sp,144
    2f16:	0000                	unimp
    2f18:	0301                	addi	t1,t1,0
    2f1a:	0902                	c.slli64	s2
    2f1c:	0000                	unimp
    2f1e:	0501                	addi	a0,a0,0
    2f20:	0601                	addi	a2,a2,0
    2f22:	00090103          	lb	sp,0(s2)
    2f26:	0100                	addi	s0,sp,128
    2f28:	0305                	addi	t1,t1,1
    2f2a:	0200                	addi	s0,sp,256
    2f2c:	0204                	addi	s1,sp,256
    2f2e:	0306                	slli	t1,t1,0x1
    2f30:	097a                	slli	s2,s2,0x1e
    2f32:	0008                	.insn	2, 0x0008
    2f34:	0001                	nop
    2f36:	0402                	c.slli64	s0
    2f38:	09000307          	.insn	4, 0x09000307
    2f3c:	0002                	c.slli64	zero
    2f3e:	0001                	nop
    2f40:	0402                	c.slli64	s0
    2f42:	09000307          	.insn	4, 0x09000307
    2f46:	0000                	unimp
    2f48:	0001                	nop
    2f4a:	0402                	c.slli64	s0
    2f4c:	0900030b          	.insn	4, 0x0900030b
    2f50:	0000                	unimp
    2f52:	0001                	nop
    2f54:	0402                	c.slli64	s0
    2f56:	0900030b          	.insn	4, 0x0900030b
    2f5a:	0000                	unimp
    2f5c:	0001                	nop
    2f5e:	0402                	c.slli64	s0
    2f60:	030d                	addi	t1,t1,3
    2f62:	0900                	addi	s0,sp,144
    2f64:	0002                	c.slli64	zero
    2f66:	0001                	nop
    2f68:	0402                	c.slli64	s0
    2f6a:	0900030f          	.insn	4, 0x0900030f
    2f6e:	0000                	unimp
    2f70:	0001                	nop
    2f72:	0402                	c.slli64	s0
    2f74:	0900030f          	.insn	4, 0x0900030f
    2f78:	0000                	unimp
    2f7a:	0001                	nop
    2f7c:	0402                	c.slli64	s0
    2f7e:	0900030f          	.insn	4, 0x0900030f
    2f82:	0000                	unimp
    2f84:	0001                	nop
    2f86:	0402                	c.slli64	s0
    2f88:	0900030f          	.insn	4, 0x0900030f
    2f8c:	0000                	unimp
    2f8e:	0001                	nop
    2f90:	0402                	c.slli64	s0
    2f92:	0900030f          	.insn	4, 0x0900030f
    2f96:	0000                	unimp
    2f98:	0001                	nop
    2f9a:	0402                	c.slli64	s0
    2f9c:	0316                	slli	t1,t1,0x5
    2f9e:	0900                	addi	s0,sp,144
    2fa0:	0000                	unimp
    2fa2:	0001                	nop
    2fa4:	0402                	c.slli64	s0
    2fa6:	0318                	addi	a4,sp,384
    2fa8:	0900                	addi	s0,sp,144
    2faa:	0000                	unimp
    2fac:	0001                	nop
    2fae:	0402                	c.slli64	s0
    2fb0:	0900031b          	addiw	t1,zero,144
    2fb4:	0006                	c.slli	zero,0x1
    2fb6:	0001                	nop
    2fb8:	0402                	c.slli64	s0
    2fba:	0900031b          	addiw	t1,zero,144
    2fbe:	0000                	unimp
    2fc0:	0001                	nop
    2fc2:	0402                	c.slli64	s0
    2fc4:	0900031b          	addiw	t1,zero,144
    2fc8:	0000                	unimp
    2fca:	0001                	nop
    2fcc:	0402                	c.slli64	s0
    2fce:	031f 0900 0000      	.insn	6, 0x0900031f
    2fd4:	0001                	nop
    2fd6:	0402                	c.slli64	s0
    2fd8:	0003061b          	sext.w	a2,t1
    2fdc:	0009                	c.nop	2
    2fde:	0100                	addi	s0,sp,128
    2fe0:	0200                	addi	s0,sp,256
    2fe2:	1f04                	addi	s1,sp,944
    2fe4:	04090003          	lb	zero,64(s2)
    2fe8:	0100                	addi	s0,sp,128
    2fea:	0200                	addi	s0,sp,256
    2fec:	2104                	.insn	2, 0x2104
    2fee:	0306                	slli	t1,t1,0x1
    2ff0:	0900                	addi	s0,sp,144
    2ff2:	0004                	.insn	2, 0x0004
    2ff4:	0001                	nop
    2ff6:	0402                	c.slli64	s0
    2ff8:	0321                	addi	t1,t1,8
    2ffa:	0900                	addi	s0,sp,144
    2ffc:	0000                	unimp
    2ffe:	0001                	nop
    3000:	0402                	c.slli64	s0
    3002:	0308                	addi	a0,sp,384
    3004:	0900                	addi	s0,sp,144
    3006:	0008                	.insn	2, 0x0008
    3008:	0001                	nop
    300a:	0402                	c.slli64	s0
    300c:	0308                	addi	a0,sp,384
    300e:	0900                	addi	s0,sp,144
    3010:	0000                	unimp
    3012:	0001                	nop
    3014:	0402                	c.slli64	s0
    3016:	0322                	slli	t1,t1,0x8
    3018:	0900                	addi	s0,sp,144
    301a:	0006                	c.slli	zero,0x1
    301c:	0001                	nop
    301e:	0402                	c.slli64	s0
    3020:	0324                	addi	s1,sp,392
    3022:	0900                	addi	s0,sp,144
    3024:	0000                	unimp
    3026:	0001                	nop
    3028:	0402                	c.slli64	s0
    302a:	0326                	slli	t1,t1,0x9
    302c:	0900                	addi	s0,sp,144
    302e:	0000                	unimp
    3030:	0001                	nop
    3032:	0402                	c.slli64	s0
    3034:	0326                	slli	t1,t1,0x9
    3036:	0900                	addi	s0,sp,144
    3038:	0000                	unimp
    303a:	0001                	nop
    303c:	0402                	c.slli64	s0
    303e:	0328                	addi	a0,sp,392
    3040:	0900                	addi	s0,sp,144
    3042:	0000                	unimp
    3044:	0001                	nop
    3046:	0402                	c.slli64	s0
    3048:	062e                	slli	a2,a2,0xb
    304a:	00090003          	lb	zero,0(s2)
    304e:	0100                	addi	s0,sp,128
    3050:	0200                	addi	s0,sp,256
    3052:	2804                	.insn	2, 0x2804
    3054:	02090003          	lb	zero,32(s2)
    3058:	0100                	addi	s0,sp,128
    305a:	0200                	addi	s0,sp,256
    305c:	2a04                	.insn	2, 0x2a04
    305e:	0306                	slli	t1,t1,0x1
    3060:	0900                	addi	s0,sp,144
    3062:	0002                	c.slli64	zero
    3064:	0001                	nop
    3066:	0402                	c.slli64	s0
    3068:	032a                	slli	t1,t1,0xa
    306a:	0900                	addi	s0,sp,144
    306c:	0000                	unimp
    306e:	0001                	nop
    3070:	0402                	c.slli64	s0
    3072:	0900032b          	.insn	4, 0x0900032b
    3076:	0000                	unimp
    3078:	0001                	nop
    307a:	0402                	c.slli64	s0
    307c:	0900032b          	.insn	4, 0x0900032b
    3080:	0000                	unimp
    3082:	0001                	nop
    3084:	0402                	c.slli64	s0
    3086:	032e                	slli	t1,t1,0xb
    3088:	0900                	addi	s0,sp,144
    308a:	0000                	unimp
    308c:	0901                	addi	s2,s2,0
    308e:	0006                	c.slli	zero,0x1
    3090:	0100                	addi	s0,sp,128
    3092:	e401                	bnez	s0,309a <_tbss_end+0x309a>
    3094:	05000003          	lb	zero,80(zero) # 50 <_tbss_end+0x50>
    3098:	0800                	addi	s0,sp,16
    309a:	3800                	.insn	2, 0x3800
    309c:	0000                	unimp
    309e:	0100                	addi	s0,sp,128
    30a0:	0101                	addi	sp,sp,0
    30a2:	000d0efb          	.insn	4, 0x000d0efb
    30a6:	0101                	addi	sp,sp,0
    30a8:	0101                	addi	sp,sp,0
    30aa:	0000                	unimp
    30ac:	0100                	addi	s0,sp,128
    30ae:	0000                	unimp
    30b0:	0101                	addi	sp,sp,0
    30b2:	1f01                	addi	t5,t5,-32
    30b4:	2d02                	.insn	2, 0x2d02
    30b6:	0000                	unimp
    30b8:	9800                	.insn	2, 0x9800
    30ba:	0000                	unimp
    30bc:	0200                	addi	s0,sp,256
    30be:	1f01                	addi	t5,t5,-32
    30c0:	0f02                	c.slli64	t5
    30c2:	8004                	.insn	2, 0x8004
    30c4:	0002                	c.slli64	zero
    30c6:	0100                	addi	s0,sp,128
    30c8:	0280                	addi	s0,sp,320
    30ca:	0000                	unimp
    30cc:	0101                	addi	sp,sp,0
    30ce:	0001                	nop
    30d0:	0100                	addi	s0,sp,128
    30d2:	00bc                	addi	a5,sp,72
    30d4:	0000                	unimp
    30d6:	0501                	addi	a0,a0,0
    30d8:	0001                	nop
    30da:	0209                	addi	tp,tp,2 # 2 <_tbss_end+0x2>
    30dc:	3ae6                	.insn	2, 0x3ae6
    30de:	8000                	.insn	2, 0x8000
    30e0:	0000                	unimp
    30e2:	0000                	unimp
    30e4:	05012203          	lw	tp,80(sp)
    30e8:	09010303          	lb	t1,144(sp)
    30ec:	0000                	unimp
    30ee:	0301                	addi	t1,t1,0
    30f0:	0900                	addi	s0,sp,144
    30f2:	0000                	unimp
    30f4:	0501                	addi	a0,a0,0
    30f6:	030d                	addi	t1,t1,3
    30f8:	0900                	addi	s0,sp,144
    30fa:	0000                	unimp
    30fc:	0501                	addi	a0,a0,0
    30fe:	09010303          	lb	t1,144(sp)
    3102:	0000                	unimp
    3104:	0301                	addi	t1,t1,0
    3106:	0900                	addi	s0,sp,144
    3108:	0000                	unimp
    310a:	0301                	addi	t1,t1,0
    310c:	0900                	addi	s0,sp,144
    310e:	0000                	unimp
    3110:	0301                	addi	t1,t1,0
    3112:	0900                	addi	s0,sp,144
    3114:	0000                	unimp
    3116:	0301                	addi	t1,t1,0
    3118:	0901                	addi	s2,s2,0
    311a:	0000                	unimp
    311c:	0301                	addi	t1,t1,0
    311e:	0900                	addi	s0,sp,144
    3120:	0000                	unimp
    3122:	0301                	addi	t1,t1,0
    3124:	0900                	addi	s0,sp,144
    3126:	0000                	unimp
    3128:	0301                	addi	t1,t1,0
    312a:	0900                	addi	s0,sp,144
    312c:	0000                	unimp
    312e:	0301                	addi	t1,t1,0
    3130:	0901                	addi	s2,s2,0
    3132:	0000                	unimp
    3134:	0301                	addi	t1,t1,0
    3136:	0902                	c.slli64	s2
    3138:	0000                	unimp
    313a:	0301                	addi	t1,t1,0
    313c:	0901                	addi	s2,s2,0
    313e:	0000                	unimp
    3140:	0301                	addi	t1,t1,0
    3142:	0900                	addi	s0,sp,144
    3144:	0000                	unimp
    3146:	0301                	addi	t1,t1,0
    3148:	0900                	addi	s0,sp,144
    314a:	0000                	unimp
    314c:	0301                	addi	t1,t1,0
    314e:	0900                	addi	s0,sp,144
    3150:	0000                	unimp
    3152:	0301                	addi	t1,t1,0
    3154:	0900                	addi	s0,sp,144
    3156:	0000                	unimp
    3158:	0601                	addi	a2,a2,0
    315a:	08090403          	lb	s0,128(s2)
    315e:	0100                	addi	s0,sp,128
    3160:	04097c03          	.insn	4, 0x04097c03
    3164:	0100                	addi	s0,sp,128
    3166:	04090403          	lb	s0,64(s2)
    316a:	0100                	addi	s0,sp,128
    316c:	04097c03          	.insn	4, 0x04097c03
    3170:	0100                	addi	s0,sp,128
    3172:	0306                	slli	t1,t1,0x1
    3174:	0900                	addi	s0,sp,144
    3176:	0004                	.insn	2, 0x0004
    3178:	0301                	addi	t1,t1,0
    317a:	0900                	addi	s0,sp,144
    317c:	0000                	unimp
    317e:	0301                	addi	t1,t1,0
    3180:	0900                	addi	s0,sp,144
    3182:	0002                	c.slli64	zero
    3184:	0301                	addi	t1,t1,0
    3186:	0900                	addi	s0,sp,144
    3188:	0000                	unimp
    318a:	0301                	addi	t1,t1,0
    318c:	0900                	addi	s0,sp,144
    318e:	0000                	unimp
    3190:	0001                	nop
    3192:	0402                	c.slli64	s0
    3194:	0302                	c.slli64	t1
    3196:	0900                	addi	s0,sp,144
    3198:	0000                	unimp
    319a:	0001                	nop
    319c:	0402                	c.slli64	s0
    319e:	0304                	addi	s1,sp,384
    31a0:	0900                	addi	s0,sp,144
    31a2:	0002                	c.slli64	zero
    31a4:	0001                	nop
    31a6:	0402                	c.slli64	s0
    31a8:	0304                	addi	s1,sp,384
    31aa:	0900                	addi	s0,sp,144
    31ac:	0000                	unimp
    31ae:	0301                	addi	t1,t1,0
    31b0:	0904                	addi	s1,sp,144
    31b2:	0000                	unimp
    31b4:	0301                	addi	t1,t1,0
    31b6:	0900                	addi	s0,sp,144
    31b8:	0000                	unimp
    31ba:	0301                	addi	t1,t1,0
    31bc:	0900                	addi	s0,sp,144
    31be:	0000                	unimp
    31c0:	0301                	addi	t1,t1,0
    31c2:	0900                	addi	s0,sp,144
    31c4:	0000                	unimp
    31c6:	0301                	addi	t1,t1,0
    31c8:	0900                	addi	s0,sp,144
    31ca:	0000                	unimp
    31cc:	0001                	nop
    31ce:	0402                	c.slli64	s0
    31d0:	0301                	addi	t1,t1,0
    31d2:	0900                	addi	s0,sp,144
    31d4:	0002                	c.slli64	zero
    31d6:	0001                	nop
    31d8:	0402                	c.slli64	s0
    31da:	0301                	addi	t1,t1,0
    31dc:	0900                	addi	s0,sp,144
    31de:	0004                	.insn	2, 0x0004
    31e0:	0001                	nop
    31e2:	0402                	c.slli64	s0
    31e4:	0304                	addi	s1,sp,384
    31e6:	0900                	addi	s0,sp,144
    31e8:	0008                	.insn	2, 0x0008
    31ea:	0001                	nop
    31ec:	0402                	c.slli64	s0
    31ee:	0311                	addi	t1,t1,4
    31f0:	0900                	addi	s0,sp,144
    31f2:	0004                	.insn	2, 0x0004
    31f4:	0001                	nop
    31f6:	0402                	c.slli64	s0
    31f8:	0314                	addi	a3,sp,384
    31fa:	0900                	addi	s0,sp,144
    31fc:	0006                	c.slli	zero,0x1
    31fe:	0001                	nop
    3200:	0402                	c.slli64	s0
    3202:	0314                	addi	a3,sp,384
    3204:	0900                	addi	s0,sp,144
    3206:	0006                	c.slli	zero,0x1
    3208:	0001                	nop
    320a:	0402                	c.slli64	s0
    320c:	0619                	addi	a2,a2,6
    320e:	04090003          	lb	zero,64(s2)
    3212:	0100                	addi	s0,sp,128
    3214:	0200                	addi	s0,sp,256
    3216:	1404                	addi	s1,sp,544
    3218:	04090003          	lb	zero,64(s2)
    321c:	0100                	addi	s0,sp,128
    321e:	0200                	addi	s0,sp,256
    3220:	1904                	addi	s1,sp,176
    3222:	04090003          	lb	zero,64(s2)
    3226:	0100                	addi	s0,sp,128
    3228:	0200                	addi	s0,sp,256
    322a:	1b04                	addi	s1,sp,432
    322c:	08090003          	lb	zero,128(s2)
    3230:	0100                	addi	s0,sp,128
    3232:	0200                	addi	s0,sp,256
    3234:	1c04                	addi	s1,sp,560
    3236:	02090003          	lb	zero,32(s2)
    323a:	0100                	addi	s0,sp,128
    323c:	0200                	addi	s0,sp,256
    323e:	3a04                	.insn	2, 0x3a04
    3240:	0306                	slli	t1,t1,0x1
    3242:	0900                	addi	s0,sp,144
    3244:	0002                	c.slli64	zero
    3246:	0001                	nop
    3248:	0402                	c.slli64	s0
    324a:	033a                	slli	t1,t1,0xe
    324c:	0900                	addi	s0,sp,144
    324e:	0000                	unimp
    3250:	0301                	addi	t1,t1,0
    3252:	0902                	c.slli64	s2
    3254:	0000                	unimp
    3256:	0301                	addi	t1,t1,0
    3258:	0900                	addi	s0,sp,144
    325a:	0000                	unimp
    325c:	0301                	addi	t1,t1,0
    325e:	0900                	addi	s0,sp,144
    3260:	0000                	unimp
    3262:	0001                	nop
    3264:	0402                	c.slli64	s0
    3266:	0324                	addi	s1,sp,392
    3268:	0900                	addi	s0,sp,144
    326a:	0000                	unimp
    326c:	0001                	nop
    326e:	0402                	c.slli64	s0
    3270:	0324                	addi	s1,sp,392
    3272:	0900                	addi	s0,sp,144
    3274:	0000                	unimp
    3276:	0001                	nop
    3278:	0402                	c.slli64	s0
    327a:	0312                	slli	t1,t1,0x4
    327c:	097e                	slli	s2,s2,0x1f
    327e:	0008                	.insn	2, 0x0008
    3280:	0001                	nop
    3282:	0402                	c.slli64	s0
    3284:	00030633          	add	a2,t1,zero
    3288:	0809                	addi	a6,a6,2
    328a:	0100                	addi	s0,sp,128
    328c:	0200                	addi	s0,sp,256
    328e:	0204                	addi	s1,sp,256
    3290:	0306                	slli	t1,t1,0x1
    3292:	0900                	addi	s0,sp,144
    3294:	0004                	.insn	2, 0x0004
    3296:	0001                	nop
    3298:	0402                	c.slli64	s0
    329a:	031f 0900 0002      	.insn	6, 0x00020900031f
    32a0:	0001                	nop
    32a2:	0402                	c.slli64	s0
    32a4:	031f 0900 0000      	.insn	6, 0x0900031f
    32aa:	0001                	nop
    32ac:	0402                	c.slli64	s0
    32ae:	09000323          	sb	a6,134(zero) # 86 <_tbss_end+0x86>
    32b2:	0000                	unimp
    32b4:	0001                	nop
    32b6:	0402                	c.slli64	s0
    32b8:	09000323          	sb	a6,134(zero) # 86 <_tbss_end+0x86>
    32bc:	0000                	unimp
    32be:	0001                	nop
    32c0:	0402                	c.slli64	s0
    32c2:	09000323          	sb	a6,134(zero) # 86 <_tbss_end+0x86>
    32c6:	0000                	unimp
    32c8:	0001                	nop
    32ca:	0402                	c.slli64	s0
    32cc:	0320                	addi	s0,sp,392
    32ce:	0900                	addi	s0,sp,144
    32d0:	0006                	c.slli	zero,0x1
    32d2:	0001                	nop
    32d4:	0402                	c.slli64	s0
    32d6:	0320                	addi	s0,sp,392
    32d8:	0900                	addi	s0,sp,144
    32da:	0000                	unimp
    32dc:	0001                	nop
    32de:	0402                	c.slli64	s0
    32e0:	0329                	addi	t1,t1,10
    32e2:	0900                	addi	s0,sp,144
    32e4:	0006                	c.slli	zero,0x1
    32e6:	0001                	nop
    32e8:	0402                	c.slli64	s0
    32ea:	0329                	addi	t1,t1,10
    32ec:	0900                	addi	s0,sp,144
    32ee:	0000                	unimp
    32f0:	0001                	nop
    32f2:	0402                	c.slli64	s0
    32f4:	0331                	addi	t1,t1,12
    32f6:	0900                	addi	s0,sp,144
    32f8:	0000                	unimp
    32fa:	0001                	nop
    32fc:	0402                	c.slli64	s0
    32fe:	0331                	addi	t1,t1,12
    3300:	0900                	addi	s0,sp,144
    3302:	0000                	unimp
    3304:	0001                	nop
    3306:	0402                	c.slli64	s0
    3308:	0331                	addi	t1,t1,12
    330a:	0900                	addi	s0,sp,144
    330c:	0000                	unimp
    330e:	0001                	nop
    3310:	0402                	c.slli64	s0
    3312:	0331                	addi	t1,t1,12
    3314:	0900                	addi	s0,sp,144
    3316:	0000                	unimp
    3318:	0001                	nop
    331a:	0402                	c.slli64	s0
    331c:	0331                	addi	t1,t1,12
    331e:	0900                	addi	s0,sp,144
    3320:	0004                	.insn	2, 0x0004
    3322:	0001                	nop
    3324:	0402                	c.slli64	s0
    3326:	0331                	addi	t1,t1,12
    3328:	0900                	addi	s0,sp,144
    332a:	0000                	unimp
    332c:	0001                	nop
    332e:	0402                	c.slli64	s0
    3330:	09000333          	.insn	4, 0x09000333
    3334:	0000                	unimp
    3336:	0001                	nop
    3338:	0402                	c.slli64	s0
    333a:	0902032f          	.insn	4, 0x0902032f
    333e:	000c                	.insn	2, 0x000c
    3340:	0001                	nop
    3342:	0402                	c.slli64	s0
    3344:	0900032f          	.insn	4, 0x0900032f
    3348:	0000                	unimp
    334a:	0001                	nop
    334c:	0402                	c.slli64	s0
    334e:	033e                	slli	t1,t1,0xf
    3350:	0900                	addi	s0,sp,144
    3352:	0000                	unimp
    3354:	0001                	nop
    3356:	0402                	c.slli64	s0
    3358:	0900033f 00010008 	.insn	8, 0x000100080900033f
    3360:	0402                	c.slli64	s0
    3362:	0900033f 00010000 	.insn	8, 0x000100000900033f
    336a:	0402                	c.slli64	s0
    336c:	0900033f 00010002 	.insn	8, 0x000100020900033f
    3374:	0402                	c.slli64	s0
    3376:	0900034f          	.insn	4, 0x0900034f
    337a:	0010                	.insn	2, 0x0010
    337c:	0001                	nop
    337e:	0402                	c.slli64	s0
    3380:	0900034f          	.insn	4, 0x0900034f
    3384:	0000                	unimp
    3386:	0001                	nop
    3388:	0402                	c.slli64	s0
    338a:	0900034f          	.insn	4, 0x0900034f
    338e:	0006                	c.slli	zero,0x1
    3390:	0001                	nop
    3392:	0402                	c.slli64	s0
    3394:	0650                	addi	a2,sp,772
    3396:	04090003          	lb	zero,64(s2)
    339a:	0100                	addi	s0,sp,128
    339c:	0200                	addi	s0,sp,256
    339e:	5404                	lw	s1,40(s0)
    33a0:	02090003          	lb	zero,32(s2)
    33a4:	0100                	addi	s0,sp,128
    33a6:	0200                	addi	s0,sp,256
    33a8:	5a04                	lw	s1,48(a2)
    33aa:	0306                	slli	t1,t1,0x1
    33ac:	0900                	addi	s0,sp,144
    33ae:	0006                	c.slli	zero,0x1
    33b0:	0001                	nop
    33b2:	0402                	c.slli64	s0
    33b4:	035a                	slli	t1,t1,0x16
    33b6:	0900                	addi	s0,sp,144
    33b8:	0000                	unimp
    33ba:	0001                	nop
    33bc:	0402                	c.slli64	s0
    33be:	035a                	slli	t1,t1,0x16
    33c0:	0900                	addi	s0,sp,144
    33c2:	0000                	unimp
    33c4:	0001                	nop
    33c6:	0402                	c.slli64	s0
    33c8:	035a                	slli	t1,t1,0x16
    33ca:	0900                	addi	s0,sp,144
    33cc:	0000                	unimp
    33ce:	0001                	nop
    33d0:	0402                	c.slli64	s0
    33d2:	035a                	slli	t1,t1,0x16
    33d4:	0900                	addi	s0,sp,144
    33d6:	0000                	unimp
    33d8:	0001                	nop
    33da:	0402                	c.slli64	s0
    33dc:	035a                	slli	t1,t1,0x16
    33de:	0900                	addi	s0,sp,144
    33e0:	0000                	unimp
    33e2:	0001                	nop
    33e4:	0402                	c.slli64	s0
    33e6:	035a                	slli	t1,t1,0x16
    33e8:	0900                	addi	s0,sp,144
    33ea:	0000                	unimp
    33ec:	0001                	nop
    33ee:	0402                	c.slli64	s0
    33f0:	035a                	slli	t1,t1,0x16
    33f2:	0900                	addi	s0,sp,144
    33f4:	000e                	c.slli	zero,0x3
    33f6:	0001                	nop
    33f8:	0402                	c.slli64	s0
    33fa:	035a                	slli	t1,t1,0x16
    33fc:	0900                	addi	s0,sp,144
    33fe:	0000                	unimp
    3400:	0001                	nop
    3402:	0402                	c.slli64	s0
    3404:	035a                	slli	t1,t1,0x16
    3406:	0900                	addi	s0,sp,144
    3408:	0000                	unimp
    340a:	0301                	addi	t1,t1,0
    340c:	0901                	addi	s2,s2,0
    340e:	0000                	unimp
    3410:	0301                	addi	t1,t1,0
    3412:	0900                	addi	s0,sp,144
    3414:	0000                	unimp
    3416:	0301                	addi	t1,t1,0
    3418:	0900                	addi	s0,sp,144
    341a:	0000                	unimp
    341c:	0301                	addi	t1,t1,0
    341e:	0902                	c.slli64	s2
    3420:	0000                	unimp
    3422:	0501                	addi	a0,a0,0
    3424:	0601                	addi	a2,a2,0
    3426:	00090103          	lb	sp,0(s2)
    342a:	0100                	addi	s0,sp,128
    342c:	0305                	addi	t1,t1,1
    342e:	0200                	addi	s0,sp,256
    3430:	1304                	addi	s1,sp,416
    3432:	04097a03          	.insn	4, 0x04097a03
    3436:	0100                	addi	s0,sp,128
    3438:	0200                	addi	s0,sp,256
    343a:	1c04                	addi	s1,sp,560
    343c:	02090003          	lb	zero,32(s2)
    3440:	0100                	addi	s0,sp,128
    3442:	0200                	addi	s0,sp,256
    3444:	2504                	.insn	2, 0x2504
    3446:	0306                	slli	t1,t1,0x1
    3448:	0902                	c.slli64	s2
    344a:	0002                	c.slli64	zero
    344c:	0001                	nop
    344e:	0402                	c.slli64	s0
    3450:	0325                	addi	t1,t1,9
    3452:	0900                	addi	s0,sp,144
    3454:	0000                	unimp
    3456:	0001                	nop
    3458:	0402                	c.slli64	s0
    345a:	0328                	addi	a0,sp,392
    345c:	0900                	addi	s0,sp,144
    345e:	0000                	unimp
    3460:	0001                	nop
    3462:	0402                	c.slli64	s0
    3464:	0328                	addi	a0,sp,392
    3466:	0900                	addi	s0,sp,144
    3468:	0000                	unimp
    346a:	0001                	nop
    346c:	0402                	c.slli64	s0
    346e:	032c                	addi	a1,sp,392
    3470:	0900                	addi	s0,sp,144
    3472:	000a                	c.slli	zero,0x2
    3474:	0901                	addi	s2,s2,0
    3476:	0008                	.insn	2, 0x0008
    3478:	0100                	addi	s0,sp,128
    347a:	f301                	bnez	a4,337a <_tbss_end+0x337a>
    347c:	0000                	unimp
    347e:	0500                	addi	s0,sp,640
    3480:	0800                	addi	s0,sp,16
    3482:	3300                	.insn	2, 0x3300
    3484:	0000                	unimp
    3486:	0100                	addi	s0,sp,128
    3488:	0101                	addi	sp,sp,0
    348a:	000d0efb          	.insn	4, 0x000d0efb
    348e:	0101                	addi	sp,sp,0
    3490:	0101                	addi	sp,sp,0
    3492:	0000                	unimp
    3494:	0100                	addi	s0,sp,128
    3496:	0000                	unimp
    3498:	0101                	addi	sp,sp,0
    349a:	1f01                	addi	t5,t5,-32
    349c:	2d02                	.insn	2, 0x2d02
    349e:	0000                	unimp
    34a0:	b300                	.insn	2, 0xb300
    34a2:	0002                	c.slli64	zero
    34a4:	0200                	addi	s0,sp,256
    34a6:	1f01                	addi	t5,t5,-32
    34a8:	0f02                	c.slli64	t5
    34aa:	0002a903          	lw	s2,0(t0)
    34ae:	0100                	addi	s0,sp,128
    34b0:	02a9                	addi	t0,t0,10
    34b2:	0000                	unimp
    34b4:	cf01                	beqz	a4,34cc <_tbss_end+0x34cc>
    34b6:	0002                	c.slli64	zero
    34b8:	0100                	addi	s0,sp,128
    34ba:	0105                	addi	sp,sp,1
    34bc:	0900                	addi	s0,sp,144
    34be:	be02                	.insn	2, 0xbe02
    34c0:	0080003b          	addw	zero,zero,s0
    34c4:	0000                	unimp
    34c6:	0300                	addi	s0,sp,384
    34c8:	05ae                	slli	a1,a1,0xb
    34ca:	0501                	addi	a0,a0,0
    34cc:	09010303          	lb	t1,144(sp)
    34d0:	0000                	unimp
    34d2:	0301                	addi	t1,t1,0
    34d4:	0902                	c.slli64	s2
    34d6:	0000                	unimp
    34d8:	0301                	addi	t1,t1,0
    34da:	0900                	addi	s0,sp,144
    34dc:	0000                	unimp
    34de:	0301                	addi	t1,t1,0
    34e0:	0900                	addi	s0,sp,144
    34e2:	0000                	unimp
    34e4:	0301                	addi	t1,t1,0
    34e6:	0900                	addi	s0,sp,144
    34e8:	0000                	unimp
    34ea:	0001                	nop
    34ec:	0402                	c.slli64	s0
    34ee:	0302                	c.slli64	t1
    34f0:	0900                	addi	s0,sp,144
    34f2:	0000                	unimp
    34f4:	0001                	nop
    34f6:	0402                	c.slli64	s0
    34f8:	09000313          	li	t1,144
    34fc:	0000                	unimp
    34fe:	0001                	nop
    3500:	0402                	c.slli64	s0
    3502:	0314                	addi	a3,sp,384
    3504:	0900                	addi	s0,sp,144
    3506:	0000                	unimp
    3508:	0001                	nop
    350a:	0402                	c.slli64	s0
    350c:	0602                	c.slli64	a2
    350e:	06090003          	lb	zero,96(s2)
    3512:	0100                	addi	s0,sp,128
    3514:	0200                	addi	s0,sp,256
    3516:	1204                	addi	s1,sp,288
    3518:	0306                	slli	t1,t1,0x1
    351a:	0900                	addi	s0,sp,144
    351c:	0004                	.insn	2, 0x0004
    351e:	0001                	nop
    3520:	0402                	c.slli64	s0
    3522:	09000313          	li	t1,144
    3526:	0002                	c.slli64	zero
    3528:	0001                	nop
    352a:	0402                	c.slli64	s0
    352c:	0314                	addi	a3,sp,384
    352e:	0900                	addi	s0,sp,144
    3530:	0002                	c.slli64	zero
    3532:	0001                	nop
    3534:	0402                	c.slli64	s0
    3536:	0315                	addi	t1,t1,5
    3538:	0900                	addi	s0,sp,144
    353a:	000a                	c.slli	zero,0x2
    353c:	0001                	nop
    353e:	0402                	c.slli64	s0
    3540:	0315                	addi	t1,t1,5
    3542:	0900                	addi	s0,sp,144
    3544:	0000                	unimp
    3546:	0301                	addi	t1,t1,0
    3548:	0902                	c.slli64	s2
    354a:	0000                	unimp
    354c:	0001                	nop
    354e:	0402                	c.slli64	s0
    3550:	0615                	addi	a2,a2,5
    3552:	00097e03          	.insn	4, 0x00097e03
    3556:	0100                	addi	s0,sp,128
    3558:	0105                	addi	sp,sp,1
    355a:	18090303          	lb	t1,384(s2)
    355e:	0100                	addi	s0,sp,128
    3560:	0305                	addi	t1,t1,1
    3562:	0200                	addi	s0,sp,256
    3564:	0204                	addi	s1,sp,256
    3566:	06097d03          	.insn	4, 0x06097d03
    356a:	0100                	addi	s0,sp,128
    356c:	0609                	addi	a2,a2,2
    356e:	0000                	unimp
    3570:	0101                	addi	sp,sp,0
    3572:	0000003b          	addw	zero,zero,zero
    3576:	0005                	c.nop	1
    3578:	0008                	.insn	2, 0x0008
    357a:	00000033          	add	zero,zero,zero
    357e:	0101                	addi	sp,sp,0
    3580:	fb01                	bnez	a4,3490 <_tbss_end+0x3490>
    3582:	0d0e                	slli	s10,s10,0x3
    3584:	0100                	addi	s0,sp,128
    3586:	0101                	addi	sp,sp,0
    3588:	0001                	nop
    358a:	0000                	unimp
    358c:	0001                	nop
    358e:	0100                	addi	s0,sp,128
    3590:	0101                	addi	sp,sp,0
    3592:	021f 002d 0000      	.insn	6, 0x002d021f
    3598:	000002b3          	add	t0,zero,zero
    359c:	0102                	c.slli64	sp
    359e:	021f 030f 02a9      	.insn	6, 0x02a9030f021f
    35a4:	0000                	unimp
    35a6:	cf01                	beqz	a4,35be <_tbss_end+0x35be>
    35a8:	0002                	c.slli64	zero
    35aa:	0100                	addi	s0,sp,128
    35ac:	02a9                	addi	t0,t0,10
    35ae:	0000                	unimp
    35b0:	Address 0x35b0 is out of bounds.


Disassembly of section .debug_str:

0000000000000000 <.debug_str>:
   0:	5f5f 6e69 3174      	.insn	6, 0x31746e695f5f
   6:	3832                	.insn	2, 0x3832
   8:	7520                	ld	s0,104(a0)
   a:	736e                	ld	t1,248(sp)
   c:	6769                	lui	a4,0x1a
   e:	656e                	ld	a0,216(sp)
  10:	0064                	addi	s1,sp,12
  12:	465f 5f50 4150      	.insn	6, 0x41505f50465f
  18:	525f4b43          	.insn	4, 0x525f4b43
  1c:	5741                	li	a4,-16
  1e:	315f 665f 6f6c      	.insn	6, 0x6f6c665f315f
  24:	5f00                	lw	s0,56(a4)
  26:	615f 6464 6664      	.insn	6, 0x66646464615f
  2c:	665f0033          	.insn	4, 0x665f0033
  30:	7865                	lui	a6,0xffff9
  32:	5f00                	lw	s0,56(a4)
  34:	5046                	.insn	2, 0x5046
  36:	505f 4341 5f4b      	.insn	6, 0x5f4b4341505f
  3c:	494d4553          	.insn	4, 0x494d4553
  40:	4152                	lw	sp,20(sp)
  42:	5f545f57          	.insn	4, 0x5f545f57
  46:	46440063          	beq	s0,tp,4a6 <_tbss_end+0x4a6>
  4a:	7974                	ld	a3,240(a0)
  4c:	6570                	ld	a2,200(a0)
  4e:	5f00                	lw	s0,56(a4)
  50:	5046                	.insn	2, 0x5046
  52:	505f 4341 5f4b      	.insn	6, 0x5f4b4341505f
  58:	494d4553          	.insn	4, 0x494d4553
  5c:	4152                	lw	sp,20(sp)
  5e:	5f545f57          	.insn	4, 0x5f545f57
  62:	0066                	c.slli	zero,0x19
  64:	6461                	lui	s0,0x18
  66:	5f64                	lw	s1,124(a4)
  68:	6f64                	ld	s1,216(a4)
  6a:	656e                	ld	a0,216(sp)
  6c:	7500                	ld	s0,40(a0)
  6e:	736e                	ld	t1,248(sp)
  70:	6769                	lui	a4,0x1a
  72:	656e                	ld	a0,216(sp)
  74:	2064                	.insn	2, 0x2064
  76:	72616863          	bltu	sp,t1,7a6 <_tbss_end+0x7a6>
  7a:	5f00                	lw	s0,56(a4)
  7c:	5046                	.insn	2, 0x5046
  7e:	555f 504e 4341      	.insn	6, 0x4341504e555f
  84:	41525f4b          	.insn	4, 0x41525f4b
  88:	5f315f57          	.insn	4, 0x5f315f57
  8c:	6c66                	ld	s8,88(sp)
  8e:	465f006f          	j	f0cf2 <_tbss_end+0xf0cf2>
  92:	5f50                	lw	a2,60(a4)
  94:	4150                	lw	a2,4(a0)
  96:	535f4b43          	.insn	4, 0x535f4b43
  9a:	4d45                	li	s10,17
  9c:	5249                	li	tp,-14
  9e:	5741                	li	a4,-16
  a0:	545f 735f 5f00      	.insn	6, 0x5f00735f545f
  a6:	695f 746e 3231      	.insn	6, 0x3231746e695f
  ac:	0038                	addi	a4,sp,8
  ae:	31627573          	.insn	4, 0x31627573
  b2:	7300                	ld	s0,32(a4)
  b4:	6275                	lui	tp,0x1d
  b6:	0032                	c.slli	zero,0xc
  b8:	33627573          	.insn	4, 0x33627573
  bc:	6e00                	ld	s0,24(a2)
  be:	006d726f          	jal	tp,d70c4 <_tbss_end+0xd70c4>
  c2:	20554e47          	.insn	4, 0x20554e47
  c6:	20373143          	.insn	4, 0x20373143
  ca:	3331                	addiw	t1,t1,-20
  cc:	322e                	.insn	2, 0x322e
  ce:	302e                	.insn	2, 0x302e
  d0:	2d20                	.insn	2, 0x2d20
  d2:	636d                	lui	t1,0x1b
  d4:	6f6d                	lui	t5,0x1b
  d6:	6564                	ld	s1,200(a0)
  d8:	3d6c                	.insn	2, 0x3d6c
  da:	656d                	lui	a0,0x1b
  dc:	6164                	ld	s1,192(a0)
  de:	796e                	ld	s2,248(sp)
  e0:	2d20                	.insn	2, 0x2d20
  e2:	616d                	addi	sp,sp,240
  e4:	6962                	ld	s2,24(sp)
  e6:	6c3d                	lui	s8,0xf
  e8:	3670                	.insn	2, 0x3670
  ea:	2034                	.insn	2, 0x2034
  ec:	6d2d                	lui	s10,0xb
  ee:	646f6d63          	bltu	t5,t1,748 <_tbss_end+0x748>
  f2:	6c65                	lui	s8,0x19
  f4:	6d3d                	lui	s10,0xf
  f6:	6465                	lui	s0,0x19
  f8:	6e61                	lui	t3,0x18
  fa:	2079                	.insn	2, 0x2079
  fc:	6d2d                	lui	s10,0xb
  fe:	7574                	ld	a3,232(a0)
 100:	656e                	ld	a0,216(sp)
 102:	723d                	lui	tp,0xfffef
 104:	656b636f          	jal	t1,b675a <_tbss_end+0xb675a>
 108:	2074                	.insn	2, 0x2074
 10a:	6d2d                	lui	s10,0xb
 10c:	7369                	lui	t1,0xffffa
 10e:	2d61                	addiw	s10,s10,24 # b018 <_tbss_end+0xb018>
 110:	63657073          	.insn	4, 0x63657073
 114:	323d                	addiw	tp,tp,-17 # fffffffffffeefef <__stack_pointer$+0xffffffff77fef3ef>
 116:	3130                	.insn	2, 0x3130
 118:	3139                	addiw	sp,sp,-18
 11a:	3132                	.insn	2, 0x3132
 11c:	6d2d2033          	.insn	4, 0x6d2d2033
 120:	7261                	lui	tp,0xffff8
 122:	723d6863          	bltu	s10,gp,852 <_tbss_end+0x852>
 126:	3676                	.insn	2, 0x3676
 128:	6934                	ld	a3,80(a0)
 12a:	616d                	addi	sp,sp,240
 12c:	672d2063          	.insn	4, 0x672d2063
 130:	2d20                	.insn	2, 0x2d20
 132:	2d20734f          	.insn	4, 0x2d20734f
 136:	2d20324f          	.insn	4, 0x2d20324f
 13a:	2d20734f          	.insn	4, 0x2d20734f
 13e:	6266                	ld	tp,88(sp)
 140:	6975                	lui	s2,0x1d
 142:	646c                	ld	a1,200(s0)
 144:	6e69                	lui	t3,0x1a
 146:	696c2d67          	.insn	4, 0x696c2d67
 14a:	6762                	ld	a4,24(sp)
 14c:	2d206363          	bltu	zero,s2,412 <_tbss_end+0x412>
 150:	6e66                	ld	t3,88(sp)
 152:	74732d6f          	jal	s10,33098 <_tbss_end+0x33098>
 156:	6361                	lui	t1,0x18
 158:	72702d6b          	.insn	4, 0x72702d6b
 15c:	6365746f          	jal	s0,57792 <_tbss_end+0x57792>
 160:	6f74                	ld	a3,216(a4)
 162:	2072                	.insn	2, 0x2072
 164:	662d                	lui	a2,0xb
 166:	6976                	ld	s2,344(sp)
 168:	69626973          	.insn	4, 0x69626973
 16c:	696c                	ld	a1,208(a0)
 16e:	7974                	ld	a3,240(a0)
 170:	683d                	lui	a6,0xf
 172:	6469                	lui	s0,0x1a
 174:	6564                	ld	s1,200(a0)
 176:	006e                	c.slli	zero,0x1b
 178:	7266                	ld	tp,120(sp)
 17a:	6361                	lui	t1,0x18
 17c:	6c00                	ld	s0,24(s0)
 17e:	20676e6f          	jal	t3,76384 <_tbss_end+0x76384>
 182:	6f6c                	ld	a1,216(a4)
 184:	676e                	ld	a4,216(sp)
 186:	7520                	ld	s0,104(a0)
 188:	736e                	ld	t1,248(sp)
 18a:	6769                	lui	a4,0x1a
 18c:	656e                	ld	a0,216(sp)
 18e:	2064                	.insn	2, 0x2064
 190:	6e69                	lui	t3,0x1a
 192:	0074                	addi	a3,sp,12
 194:	6461                	lui	s0,0x18
 196:	3364                	.insn	2, 0x3364
 198:	5f00                	lw	s0,56(a4)
 19a:	5046                	.insn	2, 0x5046
 19c:	415f 4444 495f      	.insn	6, 0x495f4444415f
 1a2:	544e                	lw	s0,240(sp)
 1a4:	5245                	li	tp,-15
 1a6:	414e                	lw	sp,208(sp)
 1a8:	5f4c                	lw	a1,60(a4)
 1aa:	6964                	ld	s1,208(a0)
 1ac:	6666                	ld	a2,88(sp)
 1ae:	6c00                	ld	s0,24(s0)
 1b0:	20676e6f          	jal	t3,763b6 <_tbss_end+0x763b6>
 1b4:	6f6c                	ld	a1,216(a4)
 1b6:	676e                	ld	a4,216(sp)
 1b8:	6920                	ld	s0,80(a0)
 1ba:	746e                	ld	s0,248(sp)
 1bc:	5f00                	lw	s0,56(a4)
 1be:	5046                	.insn	2, 0x5046
 1c0:	415f 4444 495f      	.insn	6, 0x495f4444415f
 1c6:	544e                	lw	s0,240(sp)
 1c8:	5245                	li	tp,-15
 1ca:	414e                	lw	sp,208(sp)
 1cc:	5f4c                	lw	a1,60(a4)
 1ce:	6465                	lui	s0,0x19
 1d0:	6669                	lui	a2,0x1a
 1d2:	0066                	c.slli	zero,0x19
 1d4:	465f 5f50 4e55      	.insn	6, 0x4e555f50465f
 1da:	4f49                	li	t5,18
 1dc:	5f4e                	lw	t5,240(sp)
 1de:	0044                	addi	s1,sp,4
 1e0:	5f627573          	.insn	4, 0x5f627573
 1e4:	6f64                	ld	s1,216(a4)
 1e6:	656e                	ld	a0,216(sp)
 1e8:	5f00                	lw	s0,56(a4)
 1ea:	5046                	.insn	2, 0x5046
 1ec:	505f 4341 5f4b      	.insn	6, 0x5f4b4341505f
 1f2:	494d4553          	.insn	4, 0x494d4553
 1f6:	4152                	lw	sp,20(sp)
 1f8:	5f545f57          	.insn	4, 0x5f545f57
 1fc:	0065                	c.nop	25
 1fe:	6461                	lui	s0,0x18
 200:	3164                	.insn	2, 0x3164
 202:	6100                	ld	s0,0(a0)
 204:	6464                	ld	s1,200(s0)
 206:	0032                	c.slli	zero,0xc
 208:	6e676973          	.insn	4, 0x6e676973
 20c:	6200                	ld	s0,0(a2)
 20e:	7469                	lui	s0,0xffffa
 210:	5f5f0073          	.insn	4, 0x5f5f0073
 214:	647a6c63          	bltu	s4,t2,86c <_tbss_end+0x86c>
 218:	3269                	addiw	tp,tp,-6 # ffffffffffff7ffa <__stack_pointer$+0xffffffff77ff83fa>
 21a:	5f00                	lw	s0,56(a4)
 21c:	5046                	.insn	2, 0x5046
 21e:	505f 4341 5f4b      	.insn	6, 0x5f4b4341505f
 224:	494d4553          	.insn	4, 0x494d4553
 228:	4152                	lw	sp,20(sp)
 22a:	73695f57          	.insn	4, 0x73695f57
 22e:	745f 6e69 0079      	.insn	6, 0x00796e69745f
 234:	665f 6d72 5f00      	.insn	6, 0x5f006d72665f
 23a:	655f 7371 3266      	.insn	6, 0x32667371655f
 240:	5f00                	lw	s0,56(a4)
 242:	5046                	.insn	2, 0x5046
 244:	555f 494e 4e4f      	.insn	6, 0x4e4f494e555f
 24a:	535f 5f00 675f      	.insn	6, 0x675f5f00535f
 250:	435f6363          	bltu	t5,s5,676 <_tbss_end+0x676>
 254:	504d                	c.li	zero,-13
 256:	7974                	ld	a3,240(a0)
 258:	6570                	ld	a2,200(a0)
 25a:	5f00                	lw	s0,56(a4)
 25c:	5046                	.insn	2, 0x5046
 25e:	495f 5353 4749      	.insn	6, 0x47495353495f
 264:	414e                	lw	sp,208(sp)
 266:	5f4e                	lw	t5,240(sp)
 268:	6572                	ld	a0,280(sp)
 26a:	0074                	addi	a3,sp,12
 26c:	79744653          	.insn	4, 0x79744653
 270:	6570                	ld	a2,200(a0)
 272:	5f00                	lw	s0,56(a4)
 274:	6c5f 7365 3266      	.insn	6, 0x326673656c5f
 27a:	5f00                	lw	s0,56(a4)
 27c:	5046                	.insn	2, 0x5046
 27e:	435f 504d 695f      	.insn	6, 0x695f504d435f
 284:	657a5f73          	.insn	4, 0x657a5f73
 288:	6f72                	ld	t5,280(sp)
 28a:	785f 5f00 5046      	.insn	6, 0x50465f00785f
 290:	435f 504d 695f      	.insn	6, 0x695f504d435f
 296:	657a5f73          	.insn	4, 0x657a5f73
 29a:	6f72                	ld	t5,280(sp)
 29c:	795f 5f00 5046      	.insn	6, 0x50465f00795f
 2a2:	505f 4341 5f4b      	.insn	6, 0x5f4b4341505f
 2a8:	4f4e4143          	.insn	4, 0x4f4e4143
 2ac:	494e                	lw	s2,208(sp)
 2ae:	5f4c4143          	.insn	4, 0x5f4c4143
 2b2:	7369                	lui	t1,0xffffa
 2b4:	745f 6e69 0079      	.insn	6, 0x00796e69745f
 2ba:	465f 5f50 4150      	.insn	6, 0x41505f50465f
 2c0:	435f4b43          	.insn	4, 0x435f4b43
 2c4:	4e41                	li	t3,16
 2c6:	43494e4f          	.insn	4, 0x43494e4f
 2ca:	4c41                	li	s8,16
 2cc:	545f 635f 5f00      	.insn	6, 0x5f00635f545f
 2d2:	5046                	.insn	2, 0x5046
 2d4:	505f 4341 5f4b      	.insn	6, 0x5f4b4341505f
 2da:	4f4e4143          	.insn	4, 0x4f4e4143
 2de:	494e                	lw	s2,208(sp)
 2e0:	5f4c4143          	.insn	4, 0x5f4c4143
 2e4:	5f54                	lw	a3,60(a4)
 2e6:	0065                	c.nop	25
 2e8:	465f 5f50 4150      	.insn	6, 0x41505f50465f
 2ee:	435f4b43          	.insn	4, 0x435f4b43
 2f2:	4e41                	li	t3,16
 2f4:	43494e4f          	.insn	4, 0x43494e4f
 2f8:	4c41                	li	s8,16
 2fa:	545f 665f 5f00      	.insn	6, 0x5f00665f545f
 300:	5046                	.insn	2, 0x5046
 302:	505f 4341 5f4b      	.insn	6, 0x5f4b4341505f
 308:	4f4e4143          	.insn	4, 0x4f4e4143
 30c:	494e                	lw	s2,208(sp)
 30e:	5f4c4143          	.insn	4, 0x5f4c4143
 312:	5f54                	lw	a3,60(a4)
 314:	5f5f0073          	.insn	4, 0x5f5f0073
 318:	756d                	lui	a0,0xffffb
 31a:	736c                	ld	a1,224(a4)
 31c:	3366                	.insn	2, 0x3366
 31e:	5f00                	lw	s0,56(a4)
 320:	5046                	.insn	2, 0x5046
 322:	555f 504e 4341      	.insn	6, 0x4341504e555f
 328:	41435f4b          	.insn	4, 0x41435f4b
 32c:	4f4e                	lw	t5,208(sp)
 32e:	494e                	lw	s2,208(sp)
 330:	5f4c4143          	.insn	4, 0x5f4c4143
 334:	66696873          	.insn	4, 0x66696873
 338:	0074                	addi	a3,sp,12
 33a:	5f5f 7573 7362      	.insn	6, 0x736275735f5f
 340:	3366                	.insn	2, 0x3366
 342:	5f00                	lw	s0,56(a4)
 344:	665f 7869 6673      	.insn	6, 0x66737869665f
 34a:	55006973          	.insn	4, 0x55006973
 34e:	79744953          	.insn	4, 0x79744953
 352:	6570                	ld	a2,200(a0)
 354:	5f00                	lw	s0,56(a4)
 356:	5046                	.insn	2, 0x5046
 358:	545f 5f4f 4e49      	.insn	6, 0x4e495f4f545f
 35e:	5f54                	lw	a3,60(a4)
 360:	6e69                	lui	t3,0x1a
 362:	7865                	lui	a6,0xffff9
 364:	6361                	lui	t1,0x18
 366:	0074                	addi	a3,sp,12
 368:	6170                	ld	a2,192(a0)
 36a:	735f6b63          	bltu	t5,s5,aa0 <_tbss_end+0xaa0>
 36e:	6d65                	lui	s10,0x19
 370:	7269                	lui	tp,0xffffa
 372:	7761                	lui	a4,0xffff8
 374:	5f00                	lw	s0,56(a4)
 376:	5046                	.insn	2, 0x5046
 378:	465f 4f52 5f4d      	.insn	6, 0x5f4d4f52465f
 37e:	4e49                	li	t3,18
 380:	5f54                	lw	a3,60(a4)
 382:	7275                	lui	tp,0xffffd
 384:	5f00                	lw	s0,56(a4)
 386:	665f 6f6c 7461      	.insn	6, 0x74616f6c665f
 38c:	66736973          	.insn	4, 0x66736973
 390:	5f00                	lw	s0,56(a4)
 392:	5046                	.insn	2, 0x5046
 394:	465f 4f52 5f4d      	.insn	6, 0x5f4d4f52465f
 39a:	4e49                	li	t3,18
 39c:	5f54                	lw	a3,60(a4)
 39e:	7a6c                	ld	a1,240(a2)
 3a0:	5f00                	lw	s0,56(a4)
 3a2:	665f 6f6c 7461      	.insn	6, 0x74616f6c665f
 3a8:	6e75                	lui	t3,0x1d
 3aa:	66736973          	.insn	4, 0x66736973
 3ae:	4600                	lw	s0,8(a2)
 3b0:	5f50                	lw	a2,60(a4)
 3b2:	5845                	li	a6,-15
 3b4:	4554                	lw	a3,12(a0)
 3b6:	444e                	lw	s0,208(sp)
 3b8:	6c5f 007a 5f5f      	.insn	6, 0x5f5f007a6c5f
 3be:	7865                	lui	a6,0xffff9
 3c0:	6574                	ld	a3,200(a0)
 3c2:	646e                	ld	s0,216(sp)
 3c4:	66646673          	.insn	4, 0x66646673
 3c8:	0032                	c.slli	zero,0xc
 3ca:	5f5f 7274 6e75      	.insn	6, 0x6e7572745f5f
 3d0:	73666463          	bltu	a2,s6,af8 <_tbss_end+0xaf8>
 3d4:	3266                	.insn	2, 0x3266
 3d6:	6300                	ld	s0,0(a4)
 3d8:	6c706d6f          	jal	s10,729e <_tbss_end+0x729e>
 3dc:	7865                	lui	a6,0xffff9
 3de:	5f20                	lw	s0,120(a4)
 3e0:	6c46                	ld	s8,80(sp)
 3e2:	3174616f          	jal	sp,46ef8 <_tbss_end+0x46ef8>
 3e6:	0036                	c.slli	zero,0xd
 3e8:	726f6873          	.insn	4, 0x726f6873
 3ec:	2074                	.insn	2, 0x2074
 3ee:	6e75                	lui	t3,0x1d
 3f0:	6e676973          	.insn	4, 0x6e676973
 3f4:	6465                	lui	s0,0x19
 3f6:	6920                	ld	s0,80(a0)
 3f8:	746e                	ld	s0,248(sp)
 3fa:	6300                	ld	s0,0(a4)
 3fc:	6c706d6f          	jal	s10,72c2 <_tbss_end+0x72c2>
 400:	7865                	lui	a6,0xffff9
 402:	6c20                	ld	s0,88(s0)
 404:	20676e6f          	jal	t3,7660a <_tbss_end+0x7660a>
 408:	6f64                	ld	s1,216(a4)
 40a:	6275                	lui	tp,0x1d
 40c:	656c                	ld	a1,200(a0)
 40e:	5500                	lw	s0,40(a0)
 410:	4951                	li	s2,20
 412:	7974                	ld	a3,240(a0)
 414:	6570                	ld	a2,200(a0)
 416:	5f00                	lw	s0,56(a4)
 418:	635f 7a6c 745f      	.insn	6, 0x745f7a6c635f
 41e:	6261                	lui	tp,0x18
 420:	5500                	lw	s0,40(a0)
 422:	4944                	lw	s1,20(a0)
 424:	7974                	ld	a3,240(a0)
 426:	6570                	ld	a2,200(a0)
 428:	6300                	ld	s0,0(a4)
 42a:	6c706d6f          	jal	s10,72f0 <_tbss_end+0x72f0>
 42e:	7865                	lui	a6,0xffff9
 430:	6620                	ld	s0,72(a2)
 432:	6f6c                	ld	a1,216(a4)
 434:	7461                	lui	s0,0xffff8
 436:	5f00                	lw	s0,56(a4)
 438:	785f 0072 6873      	.insn	6, 0x68730072785f
 43e:	2074726f          	jal	tp,47e44 <_tbss_end+0x47e44>
 442:	6e69                	lui	t3,0x1a
 444:	0074                	addi	a3,sp,12
 446:	706d6f63          	bltu	s10,t1,b64 <_tbss_end+0xb64>
 44a:	656c                	ld	a1,200(a0)
 44c:	2078                	.insn	2, 0x2078
 44e:	6f64                	ld	s1,216(a4)
 450:	6275                	lui	tp,0x1d
 452:	656c                	ld	a1,200(a0)
	...

Disassembly of section .debug_line_str:

0000000000000000 <.debug_line_str>:
   0:	2e2e                	.insn	2, 0x2e2e
   2:	2f2e2e2f          	.insn	4, 0x2f2e2e2f
   6:	2e2e                	.insn	2, 0x2e2e
   8:	2f2e2e2f          	.insn	4, 0x2f2e2e2f
   c:	2e2e                	.insn	2, 0x2e2e
   e:	672f2e2f          	amoand.w.aqrl	t3,s2,(t5)
  12:	6c2f6363          	bltu	t5,sp,6d8 <_tbss_end+0x6d8>
  16:	6269                	lui	tp,0x1a
  18:	2f636367          	.insn	4, 0x2f636367
  1c:	74666f73          	.insn	4, 0x74666f73
  20:	662d                	lui	a2,0xb
  22:	2f70                	.insn	2, 0x2f70
  24:	6461                	lui	s0,0x18
  26:	6464                	ld	s1,200(s0)
  28:	3366                	.insn	2, 0x3366
  2a:	632e                	ld	t1,200(sp)
  2c:	2f00                	.insn	2, 0x2f00
  2e:	6f68                	ld	a0,216(a4)
  30:	656d                	lui	a0,0x1b
  32:	6c61622f          	.insn	4, 0x6c61622f
  36:	6a61                	lui	s4,0x18
  38:	6f69                	lui	t5,0x1a
  3a:	4d2f7073          	.insn	4, 0x4d2f7073
  3e:	7375                	lui	t1,0xffffd
  40:	6369                	lui	t1,0x1a
  42:	7369722f          	.insn	4, 0x7369722f
  46:	672d7663          	bgeu	s10,s2,6b2 <_tbss_end+0x6b2>
  4a:	756e                	ld	a0,248(sp)
  4c:	742d                	lui	s0,0xfffeb
  4e:	636c6f6f          	jal	t5,c6684 <_tbss_end+0xc6684>
  52:	6168                	ld	a0,192(a0)
  54:	6e69                	lui	t3,0x1a
  56:	6975622f          	.insn	4, 0x6975622f
  5a:	646c                	ld	a1,200(s0)
  5c:	672d                	lui	a4,0xb
  5e:	6e2d6363          	bltu	s10,sp,744 <_tbss_end+0x744>
  62:	7765                	lui	a4,0xffff9
  64:	696c                	ld	a1,208(a0)
  66:	2d62                	.insn	2, 0x2d62
  68:	67617473          	.insn	4, 0x67617473
  6c:	3265                	addiw	tp,tp,-7 # 19ff9 <_tbss_end+0x19ff9>
  6e:	7369722f          	.insn	4, 0x7369722f
  72:	34367663          	bgeu	a2,gp,3be <_tbss_end+0x3be>
  76:	752d                	lui	a0,0xfffeb
  78:	6b6e                	ld	s6,216(sp)
  7a:	6f6e                	ld	t5,216(sp)
  7c:	652d6e77          	.insn	4, 0x652d6e77
  80:	666c                	ld	a1,200(a2)
  82:	3676722f          	.insn	4, 0x3676722f
  86:	6934                	ld	a3,80(a0)
  88:	616d                	addi	sp,sp,240
  8a:	706c2f63          	.insn	4, 0x706c2f63
  8e:	3436                	.insn	2, 0x3436
  90:	62696c2f          	.insn	4, 0x62696c2f
  94:	00636367          	.insn	4, 0x00636367
  98:	2e2e                	.insn	2, 0x2e2e
  9a:	2f2e2e2f          	.insn	4, 0x2f2e2e2f
  9e:	2e2e                	.insn	2, 0x2e2e
  a0:	2f2e2e2f          	.insn	4, 0x2f2e2e2f
  a4:	2e2e                	.insn	2, 0x2e2e
  a6:	672f2e2f          	amoand.w.aqrl	t3,s2,(t5)
  aa:	6c2f6363          	bltu	t5,sp,770 <_tbss_end+0x770>
  ae:	6269                	lui	tp,0x1a
  b0:	2f636367          	.insn	4, 0x2f636367
  b4:	74666f73          	.insn	4, 0x74666f73
  b8:	662d                	lui	a2,0xb
  ba:	0070                	addi	a2,sp,12
  bc:	6f64                	ld	s1,216(a4)
  be:	6275                	lui	tp,0x1d
  c0:	656c                	ld	a1,200(a0)
  c2:	682e                	ld	a6,200(sp)
  c4:	2e00                	.insn	2, 0x2e00
  c6:	2f2e                	.insn	2, 0x2f2e
  c8:	2e2e                	.insn	2, 0x2e2e
  ca:	2f2e2e2f          	.insn	4, 0x2f2e2e2f
  ce:	2e2e                	.insn	2, 0x2e2e
  d0:	2f2e2e2f          	.insn	4, 0x2f2e2e2f
  d4:	2f2e                	.insn	2, 0x2f2e
  d6:	2f636367          	.insn	4, 0x2f636367
  da:	696c                	ld	a1,208(a0)
  dc:	6762                	ld	a4,24(sp)
  de:	732f6363          	bltu	t5,s2,804 <_tbss_end+0x804>
  e2:	2d74666f          	jal	a2,46bb8 <_tbss_end+0x46bb8>
  e6:	7066                	.insn	2, 0x7066
  e8:	7371652f          	.insn	4, 0x7371652f
  ec:	3266                	.insn	2, 0x3266
  ee:	632e                	ld	t1,200(sp)
  f0:	2e00                	.insn	2, 0x2e00
  f2:	7300                	ld	s0,32(a4)
  f4:	7066                	.insn	2, 0x7066
  f6:	6d2d                	lui	s10,0xb
  f8:	6361                	lui	t1,0x18
  fa:	6968                	ld	a0,208(a0)
  fc:	656e                	ld	a0,216(sp)
  fe:	682e                	ld	a6,200(sp)
 100:	7300                	ld	s0,32(a4)
 102:	6e69                	lui	t3,0x1a
 104:	2e656c67          	.insn	4, 0x2e656c67
 108:	0068                	addi	a0,sp,12
 10a:	2e2e                	.insn	2, 0x2e2e
 10c:	2f2e2e2f          	.insn	4, 0x2f2e2e2f
 110:	2e2e                	.insn	2, 0x2e2e
 112:	2f2e2e2f          	.insn	4, 0x2f2e2e2f
 116:	2e2e                	.insn	2, 0x2e2e
 118:	672f2e2f          	amoand.w.aqrl	t3,s2,(t5)
 11c:	6c2f6363          	bltu	t5,sp,7e2 <_tbss_end+0x7e2>
 120:	6269                	lui	tp,0x1a
 122:	2f636367          	.insn	4, 0x2f636367
 126:	74666f73          	.insn	4, 0x74666f73
 12a:	662d                	lui	a2,0xb
 12c:	2f70                	.insn	2, 0x2f70
 12e:	656c                	ld	a1,200(a0)
 130:	2e326673          	.insn	4, 0x2e326673
 134:	2e2e0063          	beq	t3,sp,414 <_tbss_end+0x414>
 138:	2f2e2e2f          	.insn	4, 0x2f2e2e2f
 13c:	2e2e                	.insn	2, 0x2e2e
 13e:	2f2e2e2f          	.insn	4, 0x2f2e2e2f
 142:	2e2e                	.insn	2, 0x2e2e
 144:	672f2e2f          	amoand.w.aqrl	t3,s2,(t5)
 148:	6c2f6363          	bltu	t5,sp,80e <_tbss_end+0x80e>
 14c:	6269                	lui	tp,0x1a
 14e:	2f636367          	.insn	4, 0x2f636367
 152:	74666f73          	.insn	4, 0x74666f73
 156:	662d                	lui	a2,0xb
 158:	2f70                	.insn	2, 0x2f70
 15a:	756d                	lui	a0,0xffffb
 15c:	736c                	ld	a1,224(a4)
 15e:	3366                	.insn	2, 0x3366
 160:	632e                	ld	t1,200(sp)
 162:	2e00                	.insn	2, 0x2e00
 164:	2f2e                	.insn	2, 0x2f2e
 166:	2e2e                	.insn	2, 0x2e2e
 168:	2f2e2e2f          	.insn	4, 0x2f2e2e2f
 16c:	2e2e                	.insn	2, 0x2e2e
 16e:	2f2e2e2f          	.insn	4, 0x2f2e2e2f
 172:	2f2e                	.insn	2, 0x2f2e
 174:	2f636367          	.insn	4, 0x2f636367
 178:	696c                	ld	a1,208(a0)
 17a:	6762                	ld	a4,24(sp)
 17c:	732f6363          	bltu	t5,s2,8a2 <_tbss_end+0x8a2>
 180:	2d74666f          	jal	a2,46c56 <_tbss_end+0x46c56>
 184:	7066                	.insn	2, 0x7066
 186:	6275732f          	.insn	4, 0x6275732f
 18a:	2e336673          	.insn	4, 0x2e336673
 18e:	2e2e0063          	beq	t3,sp,46e <_tbss_end+0x46e>
 192:	2f2e2e2f          	.insn	4, 0x2f2e2e2f
 196:	2e2e                	.insn	2, 0x2e2e
 198:	2f2e2e2f          	.insn	4, 0x2f2e2e2f
 19c:	2e2e                	.insn	2, 0x2e2e
 19e:	672f2e2f          	amoand.w.aqrl	t3,s2,(t5)
 1a2:	6c2f6363          	bltu	t5,sp,868 <_tbss_end+0x868>
 1a6:	6269                	lui	tp,0x1a
 1a8:	2f636367          	.insn	4, 0x2f636367
 1ac:	74666f73          	.insn	4, 0x74666f73
 1b0:	662d                	lui	a2,0xb
 1b2:	2f70                	.insn	2, 0x2f70
 1b4:	6966                	ld	s2,88(sp)
 1b6:	7378                	ld	a4,224(a4)
 1b8:	7366                	ld	t1,120(sp)
 1ba:	2e69                	addiw	t3,t3,26 # 1a01a <_tbss_end+0x1a01a>
 1bc:	6f730063          	beq	t1,s7,89c <_tbss_end+0x89c>
 1c0:	7466                	ld	s0,120(sp)
 1c2:	662d                	lui	a2,0xb
 1c4:	2e70                	.insn	2, 0x2e70
 1c6:	0068                	addi	a0,sp,12
 1c8:	2e2e                	.insn	2, 0x2e2e
 1ca:	2f2e2e2f          	.insn	4, 0x2f2e2e2f
 1ce:	2e2e                	.insn	2, 0x2e2e
 1d0:	2f2e2e2f          	.insn	4, 0x2f2e2e2f
 1d4:	2e2e                	.insn	2, 0x2e2e
 1d6:	672f2e2f          	amoand.w.aqrl	t3,s2,(t5)
 1da:	6c2f6363          	bltu	t5,sp,8a0 <_tbss_end+0x8a0>
 1de:	6269                	lui	tp,0x1a
 1e0:	2f636367          	.insn	4, 0x2f636367
 1e4:	74666f73          	.insn	4, 0x74666f73
 1e8:	662d                	lui	a2,0xb
 1ea:	2f70                	.insn	2, 0x2f70
 1ec:	6c66                	ld	s8,88(sp)
 1ee:	7374616f          	jal	sp,47124 <_tbss_end+0x47124>
 1f2:	7369                	lui	t1,0xffffa
 1f4:	2e66                	.insn	2, 0x2e66
 1f6:	2e2e0063          	beq	t3,sp,4d6 <_tbss_end+0x4d6>
 1fa:	2f2e2e2f          	.insn	4, 0x2f2e2e2f
 1fe:	2e2e                	.insn	2, 0x2e2e
 200:	2f2e2e2f          	.insn	4, 0x2f2e2e2f
 204:	2e2e                	.insn	2, 0x2e2e
 206:	672f2e2f          	amoand.w.aqrl	t3,s2,(t5)
 20a:	6c2f6363          	bltu	t5,sp,8d0 <_tbss_end+0x8d0>
 20e:	6269                	lui	tp,0x1a
 210:	2f636367          	.insn	4, 0x2f636367
 214:	74666f73          	.insn	4, 0x74666f73
 218:	662d                	lui	a2,0xb
 21a:	2f70                	.insn	2, 0x2f70
 21c:	6c66                	ld	s8,88(sp)
 21e:	7574616f          	jal	sp,47174 <_tbss_end+0x47174>
 222:	736e                	ld	t1,248(sp)
 224:	7369                	lui	t1,0xffffa
 226:	2e66                	.insn	2, 0x2e66
 228:	2e2e0063          	beq	t3,sp,508 <_tbss_end+0x508>
 22c:	2f2e2e2f          	.insn	4, 0x2f2e2e2f
 230:	2e2e                	.insn	2, 0x2e2e
 232:	2f2e2e2f          	.insn	4, 0x2f2e2e2f
 236:	2e2e                	.insn	2, 0x2e2e
 238:	672f2e2f          	amoand.w.aqrl	t3,s2,(t5)
 23c:	6c2f6363          	bltu	t5,sp,902 <_tbss_end+0x902>
 240:	6269                	lui	tp,0x1a
 242:	2f636367          	.insn	4, 0x2f636367
 246:	74666f73          	.insn	4, 0x74666f73
 24a:	662d                	lui	a2,0xb
 24c:	2f70                	.insn	2, 0x2f70
 24e:	7865                	lui	a6,0xffff9
 250:	6574                	ld	a3,200(a0)
 252:	646e                	ld	s0,216(sp)
 254:	66646673          	.insn	4, 0x66646673
 258:	2e32                	.insn	2, 0x2e32
 25a:	2e2e0063          	beq	t3,sp,53a <_tbss_end+0x53a>
 25e:	2f2e2e2f          	.insn	4, 0x2f2e2e2f
 262:	2e2e                	.insn	2, 0x2e2e
 264:	2f2e2e2f          	.insn	4, 0x2f2e2e2f
 268:	2e2e                	.insn	2, 0x2e2e
 26a:	672f2e2f          	amoand.w.aqrl	t3,s2,(t5)
 26e:	6c2f6363          	bltu	t5,sp,934 <_tbss_end+0x934>
 272:	6269                	lui	tp,0x1a
 274:	2f636367          	.insn	4, 0x2f636367
 278:	74666f73          	.insn	4, 0x74666f73
 27c:	662d                	lui	a2,0xb
 27e:	2f70                	.insn	2, 0x2f70
 280:	7274                	ld	a3,224(a2)
 282:	6e75                	lui	t3,0x1d
 284:	73666463          	bltu	a2,s6,9ac <_tbss_end+0x9ac>
 288:	3266                	.insn	2, 0x3266
 28a:	632e                	ld	t1,200(sp)
 28c:	2e00                	.insn	2, 0x2e00
 28e:	2f2e                	.insn	2, 0x2f2e
 290:	2e2e                	.insn	2, 0x2e2e
 292:	2f2e2e2f          	.insn	4, 0x2f2e2e2f
 296:	2e2e                	.insn	2, 0x2e2e
 298:	2f2e2e2f          	.insn	4, 0x2f2e2e2f
 29c:	2f2e                	.insn	2, 0x2f2e
 29e:	2f636367          	.insn	4, 0x2f636367
 2a2:	696c                	ld	a1,208(a0)
 2a4:	6762                	ld	a4,24(sp)
 2a6:	6c2f6363          	bltu	t5,sp,96c <_tbss_end+0x96c>
 2aa:	6269                	lui	tp,0x1a
 2ac:	32636367          	.insn	4, 0x32636367
 2b0:	632e                	ld	t1,200(sp)
 2b2:	2e00                	.insn	2, 0x2e00
 2b4:	2f2e                	.insn	2, 0x2f2e
 2b6:	2e2e                	.insn	2, 0x2e2e
 2b8:	2f2e2e2f          	.insn	4, 0x2f2e2e2f
 2bc:	2e2e                	.insn	2, 0x2e2e
 2be:	2f2e2e2f          	.insn	4, 0x2f2e2e2f
 2c2:	2f2e                	.insn	2, 0x2f2e
 2c4:	2f636367          	.insn	4, 0x2f636367
 2c8:	696c                	ld	a1,208(a0)
 2ca:	6762                	ld	a4,24(sp)
 2cc:	6c006363          	bltu	zero,zero,992 <_tbss_end+0x992>
 2d0:	6269                	lui	tp,0x1a
 2d2:	32636367          	.insn	4, 0x32636367
 2d6:	682e                	ld	a6,200(sp)
	...

Disassembly of section .debug_frame:

0000000000000000 <.debug_frame>:
   0:	000c                	.insn	2, 0x000c
   2:	0000                	unimp
   4:	ffff                	.insn	2, 0xffff
   6:	ffff                	.insn	2, 0xffff
   8:	7c010003          	lb	zero,1984(sp)
   c:	0d01                	addi	s10,s10,0 # b000 <_tbss_end+0xb000>
   e:	0002                	c.slli64	zero
  10:	0034                	addi	a3,sp,8
  12:	0000                	unimp
  14:	0000                	unimp
  16:	0000                	unimp
  18:	2f1a                	.insn	2, 0x2f1a
  1a:	8000                	.insn	2, 0x8000
  1c:	0000                	unimp
  1e:	0000                	unimp
  20:	033a                	slli	t1,t1,0xe
  22:	0000                	unimp
  24:	0000                	unimp
  26:	0000                	unimp
  28:	0e44                	addi	s1,sp,788
  2a:	5820                	lw	s0,112(s0)
  2c:	0488                	addi	a0,sp,576
  2e:	0892                	slli	a7,a7,0x4
  30:	8148                	.insn	2, 0x8148
  32:	8902                	jr	s2
  34:	0306                	slli	t1,t1,0x1
  36:	0282                	c.slli64	t0
  38:	c10a                	sw	sp,128(sp)
  3a:	c84c                	sw	a1,20(s0)
  3c:	c94a                	sw	s2,144(sp)
  3e:	d242                	sw	a6,36(sp)
  40:	0e44                	addi	s1,sp,788
  42:	4200                	lw	s0,0(a2)
  44:	0000000b          	.insn	4, 0x000b
  48:	000c                	.insn	2, 0x000c
  4a:	0000                	unimp
  4c:	ffff                	.insn	2, 0xffff
  4e:	ffff                	.insn	2, 0xffff
  50:	7c010003          	lb	zero,1984(sp)
  54:	0d01                	addi	s10,s10,0
  56:	0002                	c.slli64	zero
  58:	0014                	.insn	2, 0x0014
  5a:	0000                	unimp
  5c:	0048                	addi	a0,sp,4
  5e:	0000                	unimp
  60:	3254                	.insn	2, 0x3254
  62:	8000                	.insn	2, 0x8000
  64:	0000                	unimp
  66:	0000                	unimp
  68:	006e                	c.slli	zero,0x1b
  6a:	0000                	unimp
  6c:	0000                	unimp
  6e:	0000                	unimp
  70:	000c                	.insn	2, 0x000c
  72:	0000                	unimp
  74:	ffff                	.insn	2, 0xffff
  76:	ffff                	.insn	2, 0xffff
  78:	7c010003          	lb	zero,1984(sp)
  7c:	0d01                	addi	s10,s10,0
  7e:	0002                	c.slli64	zero
  80:	0014                	.insn	2, 0x0014
  82:	0000                	unimp
  84:	0070                	addi	a2,sp,12
  86:	0000                	unimp
  88:	32c2                	.insn	2, 0x32c2
  8a:	8000                	.insn	2, 0x8000
  8c:	0000                	unimp
  8e:	0000                	unimp
  90:	0080                	addi	s0,sp,64
  92:	0000                	unimp
  94:	0000                	unimp
  96:	0000                	unimp
  98:	000c                	.insn	2, 0x000c
  9a:	0000                	unimp
  9c:	ffff                	.insn	2, 0xffff
  9e:	ffff                	.insn	2, 0xffff
  a0:	7c010003          	lb	zero,1984(sp)
  a4:	0d01                	addi	s10,s10,0
  a6:	0002                	c.slli64	zero
  a8:	0044                	addi	s1,sp,4
  aa:	0000                	unimp
  ac:	0098                	addi	a4,sp,64
  ae:	0000                	unimp
  b0:	3342                	.insn	2, 0x3342
  b2:	8000                	.insn	2, 0x8000
  b4:	0000                	unimp
  b6:	0000                	unimp
  b8:	020a                	slli	tp,tp,0x2
  ba:	0000                	unimp
  bc:	0000                	unimp
  be:	0000                	unimp
  c0:	0e42                	slli	t3,t3,0x10
  c2:	4240                	lw	s0,4(a2)
  c4:	0892                	slli	a7,a7,0x4
  c6:	894a                	mv	s2,s2
  c8:	9306                	add	t1,t1,ra
  ca:	950a                	add	a0,a0,sp
  cc:	4a0e                	lw	s4,192(sp)
  ce:	0281                	addi	t0,t0,0
  d0:	0488                	addi	a0,sp,576
  d2:	0c94                	addi	a3,sp,592
  d4:	0a016203          	lwu	tp,160(sp)
  d8:	42c1                	li	t0,16
  da:	52c8                	lw	a0,36(a3)
  dc:	42c9                	li	t0,18
  de:	42d2                	lw	t0,20(sp)
  e0:	42d4                	lw	a3,4(a3)
  e2:	46d5                	li	a3,21
  e4:	000e42d3          	.insn	4, 0x000e42d3
  e8:	0b42                	slli	s6,s6,0x10
  ea:	0000                	unimp
  ec:	0000                	unimp
  ee:	0000                	unimp
  f0:	000c                	.insn	2, 0x000c
  f2:	0000                	unimp
  f4:	ffff                	.insn	2, 0xffff
  f6:	ffff                	.insn	2, 0xffff
  f8:	7c010003          	lb	zero,1984(sp)
  fc:	0d01                	addi	s10,s10,0
  fe:	0002                	c.slli64	zero
 100:	0034                	addi	a3,sp,8
 102:	0000                	unimp
 104:	00f0                	addi	a2,sp,76
 106:	0000                	unimp
 108:	354c                	.insn	2, 0x354c
 10a:	8000                	.insn	2, 0x8000
 10c:	0000                	unimp
 10e:	0000                	unimp
 110:	0346                	slli	t1,t1,0x11
 112:	0000                	unimp
 114:	0000                	unimp
 116:	0000                	unimp
 118:	0e52                	slli	t3,t3,0x14
 11a:	6020                	ld	s0,64(s0)
 11c:	0488                	addi	a0,sp,576
 11e:	0689                	addi	a3,a3,2
 120:	0281                	addi	t0,t0,0
 122:	0892                	slli	a7,a7,0x4
 124:	0a02f803          	.insn	4, 0x0a02f803
 128:	44c1                	li	s1,16
 12a:	46c8                	lw	a0,12(a3)
 12c:	42d2                	lw	t0,20(sp)
 12e:	44c9                	li	s1,18
 130:	000e                	c.slli	zero,0x3
 132:	0b42                	slli	s6,s6,0x10
 134:	0000                	unimp
 136:	0000                	unimp
 138:	000c                	.insn	2, 0x000c
 13a:	0000                	unimp
 13c:	ffff                	.insn	2, 0xffff
 13e:	ffff                	.insn	2, 0xffff
 140:	7c010003          	lb	zero,1984(sp)
 144:	0d01                	addi	s10,s10,0
 146:	0002                	c.slli64	zero
 148:	0014                	.insn	2, 0x0014
 14a:	0000                	unimp
 14c:	0138                	addi	a4,sp,136
 14e:	0000                	unimp
 150:	3892                	.insn	2, 0x3892
 152:	8000                	.insn	2, 0x8000
 154:	0000                	unimp
 156:	0000                	unimp
 158:	006a                	c.slli	zero,0x1a
 15a:	0000                	unimp
 15c:	0000                	unimp
 15e:	0000                	unimp
 160:	000c                	.insn	2, 0x000c
 162:	0000                	unimp
 164:	ffff                	.insn	2, 0xffff
 166:	ffff                	.insn	2, 0xffff
 168:	7c010003          	lb	zero,1984(sp)
 16c:	0d01                	addi	s10,s10,0
 16e:	0002                	c.slli64	zero
 170:	0034                	addi	a3,sp,8
 172:	0000                	unimp
 174:	0160                	addi	s0,sp,140
 176:	0000                	unimp
 178:	38fc                	.insn	2, 0x38fc
 17a:	8000                	.insn	2, 0x8000
 17c:	0000                	unimp
 17e:	0000                	unimp
 180:	00cc                	addi	a1,sp,68
 182:	0000                	unimp
 184:	0000                	unimp
 186:	0000                	unimp
 188:	0e42                	slli	t3,t3,0x10
 18a:	4820                	lw	s0,80(s0)
 18c:	0281                	addi	t0,t0,0
 18e:	0488                	addi	a0,sp,576
 190:	0689                	addi	a3,a3,2
 192:	0892                	slli	a7,a7,0x4
 194:	4802                	lw	a6,0(sp)
 196:	c10a                	sw	sp,128(sp)
 198:	c844                	sw	s1,20(s0)
 19a:	c942                	sw	a6,144(sp)
 19c:	d242                	sw	a6,36(sp)
 19e:	0e42                	slli	t3,t3,0x10
 1a0:	4200                	lw	s0,0(a2)
 1a2:	0000000b          	.insn	4, 0x000b
 1a6:	0000                	unimp
 1a8:	000c                	.insn	2, 0x000c
 1aa:	0000                	unimp
 1ac:	ffff                	.insn	2, 0xffff
 1ae:	ffff                	.insn	2, 0xffff
 1b0:	7c010003          	lb	zero,1984(sp)
 1b4:	0d01                	addi	s10,s10,0
 1b6:	0002                	c.slli64	zero
 1b8:	002c                	addi	a1,sp,8
 1ba:	0000                	unimp
 1bc:	01a8                	addi	a0,sp,200
 1be:	0000                	unimp
 1c0:	39c8                	.insn	2, 0x39c8
 1c2:	8000                	.insn	2, 0x8000
 1c4:	0000                	unimp
 1c6:	0000                	unimp
 1c8:	00b2                	slli	ra,ra,0xc
 1ca:	0000                	unimp
 1cc:	0000                	unimp
 1ce:	0000                	unimp
 1d0:	0e42                	slli	t3,t3,0x10
 1d2:	4620                	lw	s0,72(a2)
 1d4:	0281                	addi	t0,t0,0
 1d6:	0488                	addi	a0,sp,576
 1d8:	0689                	addi	a3,a3,2
 1da:	0a74                	addi	a3,sp,284
 1dc:	44c1                	li	s1,16
 1de:	42c8                	lw	a0,4(a3)
 1e0:	42c9                	li	t0,18
 1e2:	000e                	c.slli	zero,0x3
 1e4:	0b42                	slli	s6,s6,0x10
 1e6:	0000                	unimp
 1e8:	000c                	.insn	2, 0x000c
 1ea:	0000                	unimp
 1ec:	ffff                	.insn	2, 0xffff
 1ee:	ffff                	.insn	2, 0xffff
 1f0:	7c010003          	lb	zero,1984(sp)
 1f4:	0d01                	addi	s10,s10,0
 1f6:	0002                	c.slli64	zero
 1f8:	002c                	addi	a1,sp,8
 1fa:	0000                	unimp
 1fc:	01e8                	addi	a0,sp,204
 1fe:	0000                	unimp
 200:	3a7a                	.insn	2, 0x3a7a
 202:	8000                	.insn	2, 0x8000
 204:	0000                	unimp
 206:	0000                	unimp
 208:	006c                	addi	a1,sp,12
 20a:	0000                	unimp
 20c:	0000                	unimp
 20e:	0000                	unimp
 210:	0e4a                	slli	t3,t3,0x12
 212:	4820                	lw	s0,80(s0)
 214:	0488                	addi	a0,sp,576
 216:	0689                	addi	a3,a3,2
 218:	8146                	mv	sp,a7
 21a:	5a02                	lw	s4,32(sp)
 21c:	c10a                	sw	sp,128(sp)
 21e:	c844                	sw	s1,20(s0)
 220:	c948                	sw	a0,20(a0)
 222:	0e42                	slli	t3,t3,0x10
 224:	4200                	lw	s0,0(a2)
 226:	000c000b          	.insn	4, 0x000c000b
 22a:	0000                	unimp
 22c:	ffff                	.insn	2, 0xffff
 22e:	ffff                	.insn	2, 0xffff
 230:	7c010003          	lb	zero,1984(sp)
 234:	0d01                	addi	s10,s10,0
 236:	0002                	c.slli64	zero
 238:	0014                	.insn	2, 0x0014
 23a:	0000                	unimp
 23c:	0228                	addi	a0,sp,264
 23e:	0000                	unimp
 240:	3ae6                	.insn	2, 0x3ae6
 242:	8000                	.insn	2, 0x8000
 244:	0000                	unimp
 246:	0000                	unimp
 248:	00d8                	addi	a4,sp,68
 24a:	0000                	unimp
 24c:	0000                	unimp
 24e:	0000                	unimp
 250:	000c                	.insn	2, 0x000c
 252:	0000                	unimp
 254:	ffff                	.insn	2, 0xffff
 256:	ffff                	.insn	2, 0xffff
 258:	7c010003          	lb	zero,1984(sp)
 25c:	0d01                	addi	s10,s10,0
 25e:	0002                	c.slli64	zero
 260:	0014                	.insn	2, 0x0014
 262:	0000                	unimp
 264:	0250                	addi	a2,sp,260
 266:	0000                	unimp
 268:	3bbe                	.insn	2, 0x3bbe
 26a:	8000                	.insn	2, 0x8000
 26c:	0000                	unimp
 26e:	0000                	unimp
 270:	003c                	addi	a5,sp,8
 272:	0000                	unimp
 274:	0000                	unimp
	...
